   1               		.file	"keymap.c"
   2               	__SP_H__ = 0x3e
   3               	__SP_L__ = 0x3d
   4               	__SREG__ = 0x3f
   5               	__tmp_reg__ = 0
   6               	__zero_reg__ = 1
   7               		.text
   8               	.Ltext0:
   9               		.cfi_sections	.debug_frame
  10               		.section	.text.equal_reset,"ax",@progbits
  11               	.global	equal_reset
  13               	equal_reset:
  14               	.LFB130:
  15               		.file 1 "/net/depot/qmk_firmware/keyboards/splitography/keymaps/thumbi/common/keycode_functions.c"
   1:/net/depot/qmk_firmware/keyboards/splitography/keymaps/thumbi/common/keycode_functions.c **** 
   2:/net/depot/qmk_firmware/keyboards/splitography/keymaps/thumbi/common/keycode_functions.c **** // ................................................................... Mod Masks
   3:/net/depot/qmk_firmware/keyboards/splitography/keymaps/thumbi/common/keycode_functions.c **** 
   4:/net/depot/qmk_firmware/keyboards/splitography/keymaps/thumbi/common/keycode_functions.c **** // tap dance persistant mods, see process_record_user()
   5:/net/depot/qmk_firmware/keyboards/splitography/keymaps/thumbi/common/keycode_functions.c **** // keyboard_report->mods (?) appears to be cleared by tap dance
   6:/net/depot/qmk_firmware/keyboards/splitography/keymaps/thumbi/common/keycode_functions.c **** static uint8_t mods = 0;
   7:/net/depot/qmk_firmware/keyboards/splitography/keymaps/thumbi/common/keycode_functions.c **** 
   8:/net/depot/qmk_firmware/keyboards/splitography/keymaps/thumbi/common/keycode_functions.c **** void tap_mods(keyrecord_t *record, uint16_t keycode)
   9:/net/depot/qmk_firmware/keyboards/splitography/keymaps/thumbi/common/keycode_functions.c **** {
  10:/net/depot/qmk_firmware/keyboards/splitography/keymaps/thumbi/common/keycode_functions.c ****   if (record->event.pressed) { mods |= MOD_BIT(keycode); }
  11:/net/depot/qmk_firmware/keyboards/splitography/keymaps/thumbi/common/keycode_functions.c ****   else                       { mods &= ~(MOD_BIT(keycode)); }
  12:/net/depot/qmk_firmware/keyboards/splitography/keymaps/thumbi/common/keycode_functions.c **** }
  13:/net/depot/qmk_firmware/keyboards/splitography/keymaps/thumbi/common/keycode_functions.c **** 
  14:/net/depot/qmk_firmware/keyboards/splitography/keymaps/thumbi/common/keycode_functions.c **** // (un)register modifiers
  15:/net/depot/qmk_firmware/keyboards/splitography/keymaps/thumbi/common/keycode_functions.c **** void modifier(void (*f)(uint8_t))
  16:/net/depot/qmk_firmware/keyboards/splitography/keymaps/thumbi/common/keycode_functions.c **** {
  17:/net/depot/qmk_firmware/keyboards/splitography/keymaps/thumbi/common/keycode_functions.c ****   if (mods & MOD_BIT(KC_LCTL)) { f(KC_LCTL); }
  18:/net/depot/qmk_firmware/keyboards/splitography/keymaps/thumbi/common/keycode_functions.c ****   if (mods & MOD_BIT(KC_LGUI)) { f(KC_LGUI); }
  19:/net/depot/qmk_firmware/keyboards/splitography/keymaps/thumbi/common/keycode_functions.c ****   if (mods & MOD_BIT(KC_LALT)) { f(KC_LALT); }
  20:/net/depot/qmk_firmware/keyboards/splitography/keymaps/thumbi/common/keycode_functions.c ****   if (mods & MOD_BIT(KC_LSFT)) { f(KC_LSFT); }
  21:/net/depot/qmk_firmware/keyboards/splitography/keymaps/thumbi/common/keycode_functions.c ****   if (mods & MOD_BIT(KC_RSFT)) { f(KC_RSFT); }  // note: qmk macros all use left modifiers
  22:/net/depot/qmk_firmware/keyboards/splitography/keymaps/thumbi/common/keycode_functions.c **** }
  23:/net/depot/qmk_firmware/keyboards/splitography/keymaps/thumbi/common/keycode_functions.c **** 
  24:/net/depot/qmk_firmware/keyboards/splitography/keymaps/thumbi/common/keycode_functions.c **** // .......................................................... Keycode Primitives
  25:/net/depot/qmk_firmware/keyboards/splitography/keymaps/thumbi/common/keycode_functions.c **** 
  26:/net/depot/qmk_firmware/keyboards/splitography/keymaps/thumbi/common/keycode_functions.c **** // register shift keycode
  27:/net/depot/qmk_firmware/keyboards/splitography/keymaps/thumbi/common/keycode_functions.c **** void register_shift(uint16_t keycode)
  28:/net/depot/qmk_firmware/keyboards/splitography/keymaps/thumbi/common/keycode_functions.c **** {
  29:/net/depot/qmk_firmware/keyboards/splitography/keymaps/thumbi/common/keycode_functions.c ****   register_code(KC_LSFT);
  30:/net/depot/qmk_firmware/keyboards/splitography/keymaps/thumbi/common/keycode_functions.c ****   register_code(keycode);
  31:/net/depot/qmk_firmware/keyboards/splitography/keymaps/thumbi/common/keycode_functions.c **** }
  32:/net/depot/qmk_firmware/keyboards/splitography/keymaps/thumbi/common/keycode_functions.c **** 
  33:/net/depot/qmk_firmware/keyboards/splitography/keymaps/thumbi/common/keycode_functions.c **** // unregister shift keycode
  34:/net/depot/qmk_firmware/keyboards/splitography/keymaps/thumbi/common/keycode_functions.c **** void unregister_shift(uint16_t keycode)
  35:/net/depot/qmk_firmware/keyboards/splitography/keymaps/thumbi/common/keycode_functions.c **** {
  36:/net/depot/qmk_firmware/keyboards/splitography/keymaps/thumbi/common/keycode_functions.c ****   unregister_code(keycode);
  37:/net/depot/qmk_firmware/keyboards/splitography/keymaps/thumbi/common/keycode_functions.c ****   unregister_code(KC_LSFT);
  38:/net/depot/qmk_firmware/keyboards/splitography/keymaps/thumbi/common/keycode_functions.c **** }
  39:/net/depot/qmk_firmware/keyboards/splitography/keymaps/thumbi/common/keycode_functions.c **** 
  40:/net/depot/qmk_firmware/keyboards/splitography/keymaps/thumbi/common/keycode_functions.c **** // register simple key press
  41:/net/depot/qmk_firmware/keyboards/splitography/keymaps/thumbi/common/keycode_functions.c **** void tap_key(uint16_t keycode)
  42:/net/depot/qmk_firmware/keyboards/splitography/keymaps/thumbi/common/keycode_functions.c **** {
  43:/net/depot/qmk_firmware/keyboards/splitography/keymaps/thumbi/common/keycode_functions.c ****   register_code  (keycode);
  44:/net/depot/qmk_firmware/keyboards/splitography/keymaps/thumbi/common/keycode_functions.c ****   unregister_code(keycode);
  45:/net/depot/qmk_firmware/keyboards/splitography/keymaps/thumbi/common/keycode_functions.c **** }
  46:/net/depot/qmk_firmware/keyboards/splitography/keymaps/thumbi/common/keycode_functions.c **** 
  47:/net/depot/qmk_firmware/keyboards/splitography/keymaps/thumbi/common/keycode_functions.c **** void shift_key(uint16_t keycode)
  48:/net/depot/qmk_firmware/keyboards/splitography/keymaps/thumbi/common/keycode_functions.c **** {
  49:/net/depot/qmk_firmware/keyboards/splitography/keymaps/thumbi/common/keycode_functions.c ****   register_code  (KC_LSFT);
  50:/net/depot/qmk_firmware/keyboards/splitography/keymaps/thumbi/common/keycode_functions.c ****   tap_key        (keycode);
  51:/net/depot/qmk_firmware/keyboards/splitography/keymaps/thumbi/common/keycode_functions.c ****   unregister_code(KC_LSFT);
  52:/net/depot/qmk_firmware/keyboards/splitography/keymaps/thumbi/common/keycode_functions.c **** }
  53:/net/depot/qmk_firmware/keyboards/splitography/keymaps/thumbi/common/keycode_functions.c **** 
  54:/net/depot/qmk_firmware/keyboards/splitography/keymaps/thumbi/common/keycode_functions.c **** #define SHIFT   1
  55:/net/depot/qmk_firmware/keyboards/splitography/keymaps/thumbi/common/keycode_functions.c **** #define NOSHIFT 0
  56:/net/depot/qmk_firmware/keyboards/splitography/keymaps/thumbi/common/keycode_functions.c **** 
  57:/net/depot/qmk_firmware/keyboards/splitography/keymaps/thumbi/common/keycode_functions.c **** static uint16_t key_timer = 0;
  58:/net/depot/qmk_firmware/keyboards/splitography/keymaps/thumbi/common/keycode_functions.c **** 
  59:/net/depot/qmk_firmware/keyboards/splitography/keymaps/thumbi/common/keycode_functions.c **** // key press for thumb_roll() and lt_shift() macros
  60:/net/depot/qmk_firmware/keyboards/splitography/keymaps/thumbi/common/keycode_functions.c **** bool key_press(uint8_t shift, uint16_t keycode)
  61:/net/depot/qmk_firmware/keyboards/splitography/keymaps/thumbi/common/keycode_functions.c **** {
  62:/net/depot/qmk_firmware/keyboards/splitography/keymaps/thumbi/common/keycode_functions.c ****   if (keycode) {
  63:/net/depot/qmk_firmware/keyboards/splitography/keymaps/thumbi/common/keycode_functions.c ****     if (timer_elapsed(key_timer) < TAPPING_TERM) {
  64:/net/depot/qmk_firmware/keyboards/splitography/keymaps/thumbi/common/keycode_functions.c ****       if (shift) { shift_key(keycode); }
  65:/net/depot/qmk_firmware/keyboards/splitography/keymaps/thumbi/common/keycode_functions.c ****       else       { tap_key(keycode); }
  66:/net/depot/qmk_firmware/keyboards/splitography/keymaps/thumbi/common/keycode_functions.c ****       return true;
  67:/net/depot/qmk_firmware/keyboards/splitography/keymaps/thumbi/common/keycode_functions.c ****     }
  68:/net/depot/qmk_firmware/keyboards/splitography/keymaps/thumbi/common/keycode_functions.c ****   }
  69:/net/depot/qmk_firmware/keyboards/splitography/keymaps/thumbi/common/keycode_functions.c ****   return false;
  70:/net/depot/qmk_firmware/keyboards/splitography/keymaps/thumbi/common/keycode_functions.c **** }
  71:/net/depot/qmk_firmware/keyboards/splitography/keymaps/thumbi/common/keycode_functions.c **** 
  72:/net/depot/qmk_firmware/keyboards/splitography/keymaps/thumbi/common/keycode_functions.c **** // ALT_T, CTL_T, GUI_T, SFT_T for shifted keycodes
  73:/net/depot/qmk_firmware/keyboards/splitography/keymaps/thumbi/common/keycode_functions.c **** void mt_shift(keyrecord_t *record, uint16_t modifier, uint16_t modifier2, uint16_t keycode)
  74:/net/depot/qmk_firmware/keyboards/splitography/keymaps/thumbi/common/keycode_functions.c **** {
  75:/net/depot/qmk_firmware/keyboards/splitography/keymaps/thumbi/common/keycode_functions.c ****   if (record->event.pressed) {
  76:/net/depot/qmk_firmware/keyboards/splitography/keymaps/thumbi/common/keycode_functions.c ****     key_timer = timer_read();
  77:/net/depot/qmk_firmware/keyboards/splitography/keymaps/thumbi/common/keycode_functions.c ****     register_code(modifier);
  78:/net/depot/qmk_firmware/keyboards/splitography/keymaps/thumbi/common/keycode_functions.c ****     if (modifier2) { register_code(modifier2); }
  79:/net/depot/qmk_firmware/keyboards/splitography/keymaps/thumbi/common/keycode_functions.c ****   }
  80:/net/depot/qmk_firmware/keyboards/splitography/keymaps/thumbi/common/keycode_functions.c ****   else {
  81:/net/depot/qmk_firmware/keyboards/splitography/keymaps/thumbi/common/keycode_functions.c ****     unregister_code(modifier);
  82:/net/depot/qmk_firmware/keyboards/splitography/keymaps/thumbi/common/keycode_functions.c ****     if (modifier2) { unregister_code(modifier2); }
  83:/net/depot/qmk_firmware/keyboards/splitography/keymaps/thumbi/common/keycode_functions.c ****     if (timer_elapsed(key_timer) < TAPPING_TERM) { shift_key(keycode); }
  84:/net/depot/qmk_firmware/keyboards/splitography/keymaps/thumbi/common/keycode_functions.c ****     key_timer = 0;
  85:/net/depot/qmk_firmware/keyboards/splitography/keymaps/thumbi/common/keycode_functions.c ****   }
  86:/net/depot/qmk_firmware/keyboards/splitography/keymaps/thumbi/common/keycode_functions.c **** }
  87:/net/depot/qmk_firmware/keyboards/splitography/keymaps/thumbi/common/keycode_functions.c **** 
  88:/net/depot/qmk_firmware/keyboards/splitography/keymaps/thumbi/common/keycode_functions.c **** // remap keycodes to other keycode values via shift for base and caps layers, see process_record_us
  89:/net/depot/qmk_firmware/keyboards/splitography/keymaps/thumbi/common/keycode_functions.c **** bool map_shift(keyrecord_t *record, uint16_t shift_key, uint8_t shift, uint16_t keycode)
  90:/net/depot/qmk_firmware/keyboards/splitography/keymaps/thumbi/common/keycode_functions.c **** {
  91:/net/depot/qmk_firmware/keyboards/splitography/keymaps/thumbi/common/keycode_functions.c ****   // if modifier and only shift modifier and base layer..
  92:/net/depot/qmk_firmware/keyboards/splitography/keymaps/thumbi/common/keycode_functions.c ****   if (mods && ((mods & MOD_BIT(shift_key)) == mods) && (biton32(layer_state) == _BASE || biton32(la
  93:/net/depot/qmk_firmware/keyboards/splitography/keymaps/thumbi/common/keycode_functions.c ****     if (record->event.pressed) {
  94:/net/depot/qmk_firmware/keyboards/splitography/keymaps/thumbi/common/keycode_functions.c ****       if (!shift) { unregister_code(KC_LSFT); }  // in event of unshifted keycode
  95:/net/depot/qmk_firmware/keyboards/splitography/keymaps/thumbi/common/keycode_functions.c ****       register_code(keycode);
  96:/net/depot/qmk_firmware/keyboards/splitography/keymaps/thumbi/common/keycode_functions.c ****     }
  97:/net/depot/qmk_firmware/keyboards/splitography/keymaps/thumbi/common/keycode_functions.c ****     else {
  98:/net/depot/qmk_firmware/keyboards/splitography/keymaps/thumbi/common/keycode_functions.c ****       unregister_code(keycode);
  99:/net/depot/qmk_firmware/keyboards/splitography/keymaps/thumbi/common/keycode_functions.c ****       if (!shift) { register_code(KC_LSFT); }    // restore SFT_T
 100:/net/depot/qmk_firmware/keyboards/splitography/keymaps/thumbi/common/keycode_functions.c ****     }
 101:/net/depot/qmk_firmware/keyboards/splitography/keymaps/thumbi/common/keycode_functions.c ****     return true;                                 // remap complete, see process_record_user()
 102:/net/depot/qmk_firmware/keyboards/splitography/keymaps/thumbi/common/keycode_functions.c ****   }
 103:/net/depot/qmk_firmware/keyboards/splitography/keymaps/thumbi/common/keycode_functions.c ****   return false;
 104:/net/depot/qmk_firmware/keyboards/splitography/keymaps/thumbi/common/keycode_functions.c **** }
 105:/net/depot/qmk_firmware/keyboards/splitography/keymaps/thumbi/common/keycode_functions.c **** 
 106:/net/depot/qmk_firmware/keyboards/splitography/keymaps/thumbi/common/keycode_functions.c **** // .................................................... Triple Dance Shift/Layer
 107:/net/depot/qmk_firmware/keyboards/splitography/keymaps/thumbi/common/keycode_functions.c **** 
 108:/net/depot/qmk_firmware/keyboards/splitography/keymaps/thumbi/common/keycode_functions.c **** static uint8_t dt_shift = 0;
 109:/net/depot/qmk_firmware/keyboards/splitography/keymaps/thumbi/common/keycode_functions.c **** 
 110:/net/depot/qmk_firmware/keyboards/splitography/keymaps/thumbi/common/keycode_functions.c **** void double_shift(uint16_t keycode, uint8_t layer)
 111:/net/depot/qmk_firmware/keyboards/splitography/keymaps/thumbi/common/keycode_functions.c **** {
 112:/net/depot/qmk_firmware/keyboards/splitography/keymaps/thumbi/common/keycode_functions.c ****   tap_key (keycode);
 113:/net/depot/qmk_firmware/keyboards/splitography/keymaps/thumbi/common/keycode_functions.c ****   if (DT_SHIFT) {
 114:/net/depot/qmk_firmware/keyboards/splitography/keymaps/thumbi/common/keycode_functions.c ****     // set_oneshot_mods(MOD_LSFT);
 115:/net/depot/qmk_firmware/keyboards/splitography/keymaps/thumbi/common/keycode_functions.c ****     // layer_on(layer);
 116:/net/depot/qmk_firmware/keyboards/splitography/keymaps/thumbi/common/keycode_functions.c ****     layer_on         (_SHIFT);
 117:/net/depot/qmk_firmware/keyboards/splitography/keymaps/thumbi/common/keycode_functions.c ****     set_oneshot_layer(_SHIFT, ONESHOT_START);
 118:/net/depot/qmk_firmware/keyboards/splitography/keymaps/thumbi/common/keycode_functions.c ****     dt_shift = 1;
 119:/net/depot/qmk_firmware/keyboards/splitography/keymaps/thumbi/common/keycode_functions.c ****   }
 120:/net/depot/qmk_firmware/keyboards/splitography/keymaps/thumbi/common/keycode_functions.c ****   else { layer_on(layer); }
 121:/net/depot/qmk_firmware/keyboards/splitography/keymaps/thumbi/common/keycode_functions.c **** }
 122:/net/depot/qmk_firmware/keyboards/splitography/keymaps/thumbi/common/keycode_functions.c **** 
 123:/net/depot/qmk_firmware/keyboards/splitography/keymaps/thumbi/common/keycode_functions.c **** static uint8_t tap_rule = 0;                        // down_rule persistance, see process_record_us
 124:/net/depot/qmk_firmware/keyboards/splitography/keymaps/thumbi/common/keycode_functions.c **** 
 125:/net/depot/qmk_firmware/keyboards/splitography/keymaps/thumbi/common/keycode_functions.c **** // tap dance LT (LAYER, KEY) emulation with <KEY><DOWN> -> <KEY><SHIFT> and auto-repeat extensions!
 126:/net/depot/qmk_firmware/keyboards/splitography/keymaps/thumbi/common/keycode_functions.c **** void tap_lt(qk_tap_dance_state_t *state, uint16_t keycode, uint8_t triple, uint8_t layer, uint8_t r
 127:/net/depot/qmk_firmware/keyboards/splitography/keymaps/thumbi/common/keycode_functions.c **** {
 128:/net/depot/qmk_firmware/keyboards/splitography/keymaps/thumbi/common/keycode_functions.c ****   uint8_t i;
 129:/net/depot/qmk_firmware/keyboards/splitography/keymaps/thumbi/common/keycode_functions.c ****   if (state->count > 2) {
 130:/net/depot/qmk_firmware/keyboards/splitography/keymaps/thumbi/common/keycode_functions.c ****     if (state->pressed) { register_code(keycode); } // double tap down -> keycode...
 131:/net/depot/qmk_firmware/keyboards/splitography/keymaps/thumbi/common/keycode_functions.c ****     else if (state->count == triple) {              // triple tap -> double keycode + shift
 132:/net/depot/qmk_firmware/keyboards/splitography/keymaps/thumbi/common/keycode_functions.c ****       tap_key     (keycode);
 133:/net/depot/qmk_firmware/keyboards/splitography/keymaps/thumbi/common/keycode_functions.c ****       double_shift(keycode, layer);
 134:/net/depot/qmk_firmware/keyboards/splitography/keymaps/thumbi/common/keycode_functions.c ****     }
 135:/net/depot/qmk_firmware/keyboards/splitography/keymaps/thumbi/common/keycode_functions.c ****     else for (i = 0; i < state->count; i++) { tap_key(keycode); }
 136:/net/depot/qmk_firmware/keyboards/splitography/keymaps/thumbi/common/keycode_functions.c ****   }
 137:/net/depot/qmk_firmware/keyboards/splitography/keymaps/thumbi/common/keycode_functions.c ****   else if (state->count > 1) {
 138:/net/depot/qmk_firmware/keyboards/splitography/keymaps/thumbi/common/keycode_functions.c ****     if (state->count == triple - 1) {
 139:/net/depot/qmk_firmware/keyboards/splitography/keymaps/thumbi/common/keycode_functions.c ****       if (rule == 2) { tap_key(keycode); }          // (.) double tap -> keycode keycode + shift
 140:/net/depot/qmk_firmware/keyboards/splitography/keymaps/thumbi/common/keycode_functions.c ****       double_shift(keycode, layer);
 141:/net/depot/qmk_firmware/keyboards/splitography/keymaps/thumbi/common/keycode_functions.c ****     }
 142:/net/depot/qmk_firmware/keyboards/splitography/keymaps/thumbi/common/keycode_functions.c ****     // just works out that existing function call can apply rule . space space -> . enter + shift
 143:/net/depot/qmk_firmware/keyboards/splitography/keymaps/thumbi/common/keycode_functions.c ****     else if (rule == 2) { double_shift(altcode ? altcode : keycode, layer); } // (.) double tap -> 
 144:/net/depot/qmk_firmware/keyboards/splitography/keymaps/thumbi/common/keycode_functions.c ****     else                { double_shift(keycode, layer); }                     // tap down or double
 145:/net/depot/qmk_firmware/keyboards/splitography/keymaps/thumbi/common/keycode_functions.c ****   }
 146:/net/depot/qmk_firmware/keyboards/splitography/keymaps/thumbi/common/keycode_functions.c ****   else if (state->pressed) { layer_on(layer); }     // down -> shift
 147:/net/depot/qmk_firmware/keyboards/splitography/keymaps/thumbi/common/keycode_functions.c ****   else switch (rule) {                              // see process_record_user()
 148:/net/depot/qmk_firmware/keyboards/splitography/keymaps/thumbi/common/keycode_functions.c ****   case 0:
 149:/net/depot/qmk_firmware/keyboards/splitography/keymaps/thumbi/common/keycode_functions.c ****     modifier(register_code);
 150:/net/depot/qmk_firmware/keyboards/splitography/keymaps/thumbi/common/keycode_functions.c ****     tap_key (keycode);
 151:/net/depot/qmk_firmware/keyboards/splitography/keymaps/thumbi/common/keycode_functions.c ****     modifier(unregister_code);
 152:/net/depot/qmk_firmware/keyboards/splitography/keymaps/thumbi/common/keycode_functions.c ****     return;
 153:/net/depot/qmk_firmware/keyboards/splitography/keymaps/thumbi/common/keycode_functions.c ****   case 1:
 154:/net/depot/qmk_firmware/keyboards/splitography/keymaps/thumbi/common/keycode_functions.c ****     if (altcode) { tap_key (altcode); }
 155:/net/depot/qmk_firmware/keyboards/splitography/keymaps/thumbi/common/keycode_functions.c ****     return;
 156:/net/depot/qmk_firmware/keyboards/splitography/keymaps/thumbi/common/keycode_functions.c ****   case 2:
 157:/net/depot/qmk_firmware/keyboards/splitography/keymaps/thumbi/common/keycode_functions.c ****     double_shift(keycode, layer);
 158:/net/depot/qmk_firmware/keyboards/splitography/keymaps/thumbi/common/keycode_functions.c ****   }
 159:/net/depot/qmk_firmware/keyboards/splitography/keymaps/thumbi/common/keycode_functions.c **** }
 160:/net/depot/qmk_firmware/keyboards/splitography/keymaps/thumbi/common/keycode_functions.c **** 
 161:/net/depot/qmk_firmware/keyboards/splitography/keymaps/thumbi/common/keycode_functions.c **** void tap_reset(uint16_t keycode, uint8_t layer)
 162:/net/depot/qmk_firmware/keyboards/splitography/keymaps/thumbi/common/keycode_functions.c **** {
 163:/net/depot/qmk_firmware/keyboards/splitography/keymaps/thumbi/common/keycode_functions.c ****   unregister_code(keycode);
 164:/net/depot/qmk_firmware/keyboards/splitography/keymaps/thumbi/common/keycode_functions.c ****   if (dt_shift) { clear_oneshot_layer_state(ONESHOT_PRESSED); }
 165:/net/depot/qmk_firmware/keyboards/splitography/keymaps/thumbi/common/keycode_functions.c ****   else { layer_off(layer); }
 166:/net/depot/qmk_firmware/keyboards/splitography/keymaps/thumbi/common/keycode_functions.c ****   dt_shift = 0;
 167:/net/depot/qmk_firmware/keyboards/splitography/keymaps/thumbi/common/keycode_functions.c ****   tap_rule = 0;                                     // clear retained down_rule, see process_record
 168:/net/depot/qmk_firmware/keyboards/splitography/keymaps/thumbi/common/keycode_functions.c **** }
 169:/net/depot/qmk_firmware/keyboards/splitography/keymaps/thumbi/common/keycode_functions.c **** 
 170:/net/depot/qmk_firmware/keyboards/splitography/keymaps/thumbi/common/keycode_functions.c **** #define REPEATING    0
 171:/net/depot/qmk_firmware/keyboards/splitography/keymaps/thumbi/common/keycode_functions.c **** #define TRIPLE       3
 172:/net/depot/qmk_firmware/keyboards/splitography/keymaps/thumbi/common/keycode_functions.c **** 
 173:/net/depot/qmk_firmware/keyboards/splitography/keymaps/thumbi/common/keycode_functions.c **** // augment pseudo LT (_RSHIFT, KC_ENT) handling below for rapid <ENTER><SHIFT> sequences
 174:/net/depot/qmk_firmware/keyboards/splitography/keymaps/thumbi/common/keycode_functions.c **** void enter(qk_tap_dance_state_t *state, void *user_data)
 175:/net/depot/qmk_firmware/keyboards/splitography/keymaps/thumbi/common/keycode_functions.c **** {
 176:/net/depot/qmk_firmware/keyboards/splitography/keymaps/thumbi/common/keycode_functions.c ****   tap_lt(state, KC_ENT, TRIPLE, _RSHIFT, tap_rule, 0);  // triple tap -> double enter + shift, down
 177:/net/depot/qmk_firmware/keyboards/splitography/keymaps/thumbi/common/keycode_functions.c **** }
 178:/net/depot/qmk_firmware/keyboards/splitography/keymaps/thumbi/common/keycode_functions.c **** 
 179:/net/depot/qmk_firmware/keyboards/splitography/keymaps/thumbi/common/keycode_functions.c **** void enter_reset(qk_tap_dance_state_t *state, void *user_data)
 180:/net/depot/qmk_firmware/keyboards/splitography/keymaps/thumbi/common/keycode_functions.c **** {
 181:/net/depot/qmk_firmware/keyboards/splitography/keymaps/thumbi/common/keycode_functions.c ****   tap_reset(KC_ENT, _RSHIFT);
 182:/net/depot/qmk_firmware/keyboards/splitography/keymaps/thumbi/common/keycode_functions.c **** }
 183:/net/depot/qmk_firmware/keyboards/splitography/keymaps/thumbi/common/keycode_functions.c **** 
 184:/net/depot/qmk_firmware/keyboards/splitography/keymaps/thumbi/common/keycode_functions.c **** // augment pseudo LT (_LSHIFT, KC_SPC) handling below for rapid <SPACE><SHIFT> sequences
 185:/net/depot/qmk_firmware/keyboards/splitography/keymaps/thumbi/common/keycode_functions.c **** void space(qk_tap_dance_state_t *state, void *user_data)
 186:/net/depot/qmk_firmware/keyboards/splitography/keymaps/thumbi/common/keycode_functions.c **** {
 187:/net/depot/qmk_firmware/keyboards/splitography/keymaps/thumbi/common/keycode_functions.c ****   tap_lt(state, KC_SPC, REPEATING, _RSHIFT, tap_rule, KC_ENT); // triple tap down -> space...
 188:/net/depot/qmk_firmware/keyboards/splitography/keymaps/thumbi/common/keycode_functions.c **** }
 189:/net/depot/qmk_firmware/keyboards/splitography/keymaps/thumbi/common/keycode_functions.c **** 
 190:/net/depot/qmk_firmware/keyboards/splitography/keymaps/thumbi/common/keycode_functions.c **** void space_reset(qk_tap_dance_state_t *state, void *user_data)
 191:/net/depot/qmk_firmware/keyboards/splitography/keymaps/thumbi/common/keycode_functions.c **** {
 192:/net/depot/qmk_firmware/keyboards/splitography/keymaps/thumbi/common/keycode_functions.c ****   tap_reset(KC_SPC, _RSHIFT);
 193:/net/depot/qmk_firmware/keyboards/splitography/keymaps/thumbi/common/keycode_functions.c **** }
 194:/net/depot/qmk_firmware/keyboards/splitography/keymaps/thumbi/common/keycode_functions.c **** 
 195:/net/depot/qmk_firmware/keyboards/splitography/keymaps/thumbi/common/keycode_functions.c **** // ......................................................... Triple Dance Insert
 196:/net/depot/qmk_firmware/keyboards/splitography/keymaps/thumbi/common/keycode_functions.c **** 
 197:/net/depot/qmk_firmware/keyboards/splitography/keymaps/thumbi/common/keycode_functions.c **** void double_max(uint8_t count, uint8_t shift, uint16_t keycode)
 198:/net/depot/qmk_firmware/keyboards/splitography/keymaps/thumbi/common/keycode_functions.c **** {
 199:/net/depot/qmk_firmware/keyboards/splitography/keymaps/thumbi/common/keycode_functions.c ****   if (shift) {
 200:/net/depot/qmk_firmware/keyboards/splitography/keymaps/thumbi/common/keycode_functions.c ****     shift_key(keycode);
 201:/net/depot/qmk_firmware/keyboards/splitography/keymaps/thumbi/common/keycode_functions.c ****     if (count > 1) { shift_key(keycode); }
 202:/net/depot/qmk_firmware/keyboards/splitography/keymaps/thumbi/common/keycode_functions.c ****   }
 203:/net/depot/qmk_firmware/keyboards/splitography/keymaps/thumbi/common/keycode_functions.c ****   else {
 204:/net/depot/qmk_firmware/keyboards/splitography/keymaps/thumbi/common/keycode_functions.c ****     tap_key(keycode);
 205:/net/depot/qmk_firmware/keyboards/splitography/keymaps/thumbi/common/keycode_functions.c ****     if (count > 1) { tap_key(keycode); }
 206:/net/depot/qmk_firmware/keyboards/splitography/keymaps/thumbi/common/keycode_functions.c ****   }
 207:/net/depot/qmk_firmware/keyboards/splitography/keymaps/thumbi/common/keycode_functions.c **** }
 208:/net/depot/qmk_firmware/keyboards/splitography/keymaps/thumbi/common/keycode_functions.c **** 
 209:/net/depot/qmk_firmware/keyboards/splitography/keymaps/thumbi/common/keycode_functions.c **** void colon(qk_tap_dance_state_t *state, void *user_data)
 210:/net/depot/qmk_firmware/keyboards/splitography/keymaps/thumbi/common/keycode_functions.c **** {
 211:/net/depot/qmk_firmware/keyboards/splitography/keymaps/thumbi/common/keycode_functions.c ****   uint8_t i;
 212:/net/depot/qmk_firmware/keyboards/splitography/keymaps/thumbi/common/keycode_functions.c ****   if (state->count > 2) {
 213:/net/depot/qmk_firmware/keyboards/splitography/keymaps/thumbi/common/keycode_functions.c ****     if (state->pressed) { register_shift(KC_SCLN); }
 214:/net/depot/qmk_firmware/keyboards/splitography/keymaps/thumbi/common/keycode_functions.c ****     else if (state->count == 3) { send_string(" :: "); }
 215:/net/depot/qmk_firmware/keyboards/splitography/keymaps/thumbi/common/keycode_functions.c ****     else for (i = 0; i < state->count; i++) { shift_key(KC_SCLN); }
 216:/net/depot/qmk_firmware/keyboards/splitography/keymaps/thumbi/common/keycode_functions.c ****   }
 217:/net/depot/qmk_firmware/keyboards/splitography/keymaps/thumbi/common/keycode_functions.c ****   else if (state->pressed) { register_shift(KC_SCLN); }
 218:/net/depot/qmk_firmware/keyboards/splitography/keymaps/thumbi/common/keycode_functions.c ****   else { double_max(state->count, SHIFT, KC_SCLN); }
 219:/net/depot/qmk_firmware/keyboards/splitography/keymaps/thumbi/common/keycode_functions.c ****   reset_tap_dance(state);
 220:/net/depot/qmk_firmware/keyboards/splitography/keymaps/thumbi/common/keycode_functions.c **** }
 221:/net/depot/qmk_firmware/keyboards/splitography/keymaps/thumbi/common/keycode_functions.c **** 
 222:/net/depot/qmk_firmware/keyboards/splitography/keymaps/thumbi/common/keycode_functions.c **** void colon_reset(qk_tap_dance_state_t *state, void *user_data)
 223:/net/depot/qmk_firmware/keyboards/splitography/keymaps/thumbi/common/keycode_functions.c **** {
 224:/net/depot/qmk_firmware/keyboards/splitography/keymaps/thumbi/common/keycode_functions.c ****   unregister_shift(KC_SCLN);
 225:/net/depot/qmk_firmware/keyboards/splitography/keymaps/thumbi/common/keycode_functions.c **** }
 226:/net/depot/qmk_firmware/keyboards/splitography/keymaps/thumbi/common/keycode_functions.c **** 
 227:/net/depot/qmk_firmware/keyboards/splitography/keymaps/thumbi/common/keycode_functions.c **** #ifndef EQL_LT
 228:/net/depot/qmk_firmware/keyboards/splitography/keymaps/thumbi/common/keycode_functions.c **** #define EQL_LT _EDIT
 229:/net/depot/qmk_firmware/keyboards/splitography/keymaps/thumbi/common/keycode_functions.c **** #endif
 230:/net/depot/qmk_firmware/keyboards/splitography/keymaps/thumbi/common/keycode_functions.c **** 
 231:/net/depot/qmk_firmware/keyboards/splitography/keymaps/thumbi/common/keycode_functions.c **** void equal(qk_tap_dance_state_t *state, void *user_data)
 232:/net/depot/qmk_firmware/keyboards/splitography/keymaps/thumbi/common/keycode_functions.c **** {
 233:/net/depot/qmk_firmware/keyboards/splitography/keymaps/thumbi/common/keycode_functions.c ****   uint8_t i;
 234:/net/depot/qmk_firmware/keyboards/splitography/keymaps/thumbi/common/keycode_functions.c ****   if (state->count > 2) {
 235:/net/depot/qmk_firmware/keyboards/splitography/keymaps/thumbi/common/keycode_functions.c ****     if (state->pressed) { register_code(KC_EQL); }
 236:/net/depot/qmk_firmware/keyboards/splitography/keymaps/thumbi/common/keycode_functions.c ****     else if (state->count == 3) { send_string(" /= "); }
 237:/net/depot/qmk_firmware/keyboards/splitography/keymaps/thumbi/common/keycode_functions.c ****     else for (i = 0; i < state->count; i++) { tap_key(KC_EQL); }
 238:/net/depot/qmk_firmware/keyboards/splitography/keymaps/thumbi/common/keycode_functions.c ****   }
 239:/net/depot/qmk_firmware/keyboards/splitography/keymaps/thumbi/common/keycode_functions.c ****   else if (state->pressed) { layer_on(EQL_LT); }  // down: edit layer
 240:/net/depot/qmk_firmware/keyboards/splitography/keymaps/thumbi/common/keycode_functions.c ****   else { double_max(state->count, NOSHIFT, KC_EQL); }
 241:/net/depot/qmk_firmware/keyboards/splitography/keymaps/thumbi/common/keycode_functions.c ****   reset_tap_dance(state);
 242:/net/depot/qmk_firmware/keyboards/splitography/keymaps/thumbi/common/keycode_functions.c **** }
 243:/net/depot/qmk_firmware/keyboards/splitography/keymaps/thumbi/common/keycode_functions.c **** 
 244:/net/depot/qmk_firmware/keyboards/splitography/keymaps/thumbi/common/keycode_functions.c **** void equal_reset(qk_tap_dance_state_t *state, void *user_data)
 245:/net/depot/qmk_firmware/keyboards/splitography/keymaps/thumbi/common/keycode_functions.c **** {
  16               		.loc 1 245 0
  17               		.cfi_startproc
  18               	.LVL0:
  19               	/* prologue: function */
  20               	/* frame size = 0 */
  21               	/* stack size = 0 */
  22               	.L__stack_usage = 0
 246:/net/depot/qmk_firmware/keyboards/splitography/keymaps/thumbi/common/keycode_functions.c ****   unregister_code(KC_EQL);
  23               		.loc 1 246 0
  24 0000 8EE2      		ldi r24,lo8(46)
  25               	.LVL1:
  26 0002 0E94 0000 		call unregister_code
  27               	.LVL2:
 247:/net/depot/qmk_firmware/keyboards/splitography/keymaps/thumbi/common/keycode_functions.c ****   layer_off(EQL_LT);
  28               		.loc 1 247 0
  29 0006 8AE0      		ldi r24,lo8(10)
  30 0008 0C94 0000 		jmp layer_off
  31               	.LVL3:
  32               		.cfi_endproc
  33               	.LFE130:
  35               		.section	.text.private,"ax",@progbits
  36               	.global	private
  38               	private:
  39               	.LFB140:
 248:/net/depot/qmk_firmware/keyboards/splitography/keymaps/thumbi/common/keycode_functions.c **** }
 249:/net/depot/qmk_firmware/keyboards/splitography/keymaps/thumbi/common/keycode_functions.c **** 
 250:/net/depot/qmk_firmware/keyboards/splitography/keymaps/thumbi/common/keycode_functions.c **** void greater(qk_tap_dance_state_t *state, void *user_data)
 251:/net/depot/qmk_firmware/keyboards/splitography/keymaps/thumbi/common/keycode_functions.c **** {
 252:/net/depot/qmk_firmware/keyboards/splitography/keymaps/thumbi/common/keycode_functions.c ****   uint8_t i;
 253:/net/depot/qmk_firmware/keyboards/splitography/keymaps/thumbi/common/keycode_functions.c ****   if (state->count > 2) {
 254:/net/depot/qmk_firmware/keyboards/splitography/keymaps/thumbi/common/keycode_functions.c ****     if (state->pressed) { register_shift(KC_DOT); }
 255:/net/depot/qmk_firmware/keyboards/splitography/keymaps/thumbi/common/keycode_functions.c ****     else if (state->count == 3) { send_string(" -> "); }
 256:/net/depot/qmk_firmware/keyboards/splitography/keymaps/thumbi/common/keycode_functions.c ****     else for (i = 0; i < state->count; i++) { shift_key(KC_DOT); }
 257:/net/depot/qmk_firmware/keyboards/splitography/keymaps/thumbi/common/keycode_functions.c ****   }
 258:/net/depot/qmk_firmware/keyboards/splitography/keymaps/thumbi/common/keycode_functions.c ****   else if (state->pressed) { register_code(KC_LSFT); }  // down: shift
 259:/net/depot/qmk_firmware/keyboards/splitography/keymaps/thumbi/common/keycode_functions.c ****   else { double_max(state->count, SHIFT, KC_DOT); }
 260:/net/depot/qmk_firmware/keyboards/splitography/keymaps/thumbi/common/keycode_functions.c ****   reset_tap_dance(state);
 261:/net/depot/qmk_firmware/keyboards/splitography/keymaps/thumbi/common/keycode_functions.c **** }
 262:/net/depot/qmk_firmware/keyboards/splitography/keymaps/thumbi/common/keycode_functions.c **** 
 263:/net/depot/qmk_firmware/keyboards/splitography/keymaps/thumbi/common/keycode_functions.c **** void greater_reset(qk_tap_dance_state_t *state, void *user_data)
 264:/net/depot/qmk_firmware/keyboards/splitography/keymaps/thumbi/common/keycode_functions.c **** {
 265:/net/depot/qmk_firmware/keyboards/splitography/keymaps/thumbi/common/keycode_functions.c ****   unregister_shift(KC_DOT);
 266:/net/depot/qmk_firmware/keyboards/splitography/keymaps/thumbi/common/keycode_functions.c **** }
 267:/net/depot/qmk_firmware/keyboards/splitography/keymaps/thumbi/common/keycode_functions.c **** 
 268:/net/depot/qmk_firmware/keyboards/splitography/keymaps/thumbi/common/keycode_functions.c **** void lesser(qk_tap_dance_state_t *state, void *user_data)
 269:/net/depot/qmk_firmware/keyboards/splitography/keymaps/thumbi/common/keycode_functions.c **** {
 270:/net/depot/qmk_firmware/keyboards/splitography/keymaps/thumbi/common/keycode_functions.c ****   uint8_t i;
 271:/net/depot/qmk_firmware/keyboards/splitography/keymaps/thumbi/common/keycode_functions.c ****   if (state->count > 2) {
 272:/net/depot/qmk_firmware/keyboards/splitography/keymaps/thumbi/common/keycode_functions.c ****     if (state->pressed) { register_shift(KC_COMM); }
 273:/net/depot/qmk_firmware/keyboards/splitography/keymaps/thumbi/common/keycode_functions.c ****     else if (state->count == 3) { send_string(" <- "); }
 274:/net/depot/qmk_firmware/keyboards/splitography/keymaps/thumbi/common/keycode_functions.c ****     else for (i = 0; i < state->count; i++) { shift_key(KC_COMM); }
 275:/net/depot/qmk_firmware/keyboards/splitography/keymaps/thumbi/common/keycode_functions.c ****   }
 276:/net/depot/qmk_firmware/keyboards/splitography/keymaps/thumbi/common/keycode_functions.c ****   else if (state->pressed) { register_code(KC_LCTL); }  // down: ctrl
 277:/net/depot/qmk_firmware/keyboards/splitography/keymaps/thumbi/common/keycode_functions.c ****   else { double_max(state->count, SHIFT, KC_COMM); }
 278:/net/depot/qmk_firmware/keyboards/splitography/keymaps/thumbi/common/keycode_functions.c ****   reset_tap_dance(state);
 279:/net/depot/qmk_firmware/keyboards/splitography/keymaps/thumbi/common/keycode_functions.c **** }
 280:/net/depot/qmk_firmware/keyboards/splitography/keymaps/thumbi/common/keycode_functions.c **** 
 281:/net/depot/qmk_firmware/keyboards/splitography/keymaps/thumbi/common/keycode_functions.c **** void lesser_reset(qk_tap_dance_state_t *state, void *user_data)
 282:/net/depot/qmk_firmware/keyboards/splitography/keymaps/thumbi/common/keycode_functions.c **** {
 283:/net/depot/qmk_firmware/keyboards/splitography/keymaps/thumbi/common/keycode_functions.c ****   unregister_shift(KC_COMM);
 284:/net/depot/qmk_firmware/keyboards/splitography/keymaps/thumbi/common/keycode_functions.c ****   unregister_code(KC_LCTL);
 285:/net/depot/qmk_firmware/keyboards/splitography/keymaps/thumbi/common/keycode_functions.c **** }
 286:/net/depot/qmk_firmware/keyboards/splitography/keymaps/thumbi/common/keycode_functions.c **** 
 287:/net/depot/qmk_firmware/keyboards/splitography/keymaps/thumbi/common/keycode_functions.c **** void tilde(qk_tap_dance_state_t *state, void *user_data)
 288:/net/depot/qmk_firmware/keyboards/splitography/keymaps/thumbi/common/keycode_functions.c **** {
 289:/net/depot/qmk_firmware/keyboards/splitography/keymaps/thumbi/common/keycode_functions.c ****   uint8_t i;
 290:/net/depot/qmk_firmware/keyboards/splitography/keymaps/thumbi/common/keycode_functions.c ****   if (state->count > 1) {
 291:/net/depot/qmk_firmware/keyboards/splitography/keymaps/thumbi/common/keycode_functions.c ****     if (state->pressed) { register_shift(KC_GRV); }
 292:/net/depot/qmk_firmware/keyboards/splitography/keymaps/thumbi/common/keycode_functions.c ****     else if (state->count == 2) { send_string("~/"); }
 293:/net/depot/qmk_firmware/keyboards/splitography/keymaps/thumbi/common/keycode_functions.c ****     else for (i = 0; i < state->count; i++) { shift_key(KC_GRV); }
 294:/net/depot/qmk_firmware/keyboards/splitography/keymaps/thumbi/common/keycode_functions.c ****   }
 295:/net/depot/qmk_firmware/keyboards/splitography/keymaps/thumbi/common/keycode_functions.c ****   else if (state->pressed) { register_shift(KC_GRV); }
 296:/net/depot/qmk_firmware/keyboards/splitography/keymaps/thumbi/common/keycode_functions.c ****   else { shift_key(KC_GRV); }
 297:/net/depot/qmk_firmware/keyboards/splitography/keymaps/thumbi/common/keycode_functions.c ****   reset_tap_dance(state);
 298:/net/depot/qmk_firmware/keyboards/splitography/keymaps/thumbi/common/keycode_functions.c **** }
 299:/net/depot/qmk_firmware/keyboards/splitography/keymaps/thumbi/common/keycode_functions.c **** 
 300:/net/depot/qmk_firmware/keyboards/splitography/keymaps/thumbi/common/keycode_functions.c **** void tilde_reset(qk_tap_dance_state_t *state, void *user_data)
 301:/net/depot/qmk_firmware/keyboards/splitography/keymaps/thumbi/common/keycode_functions.c **** {
 302:/net/depot/qmk_firmware/keyboards/splitography/keymaps/thumbi/common/keycode_functions.c ****   unregister_shift(KC_GRV);
 303:/net/depot/qmk_firmware/keyboards/splitography/keymaps/thumbi/common/keycode_functions.c **** }
 304:/net/depot/qmk_firmware/keyboards/splitography/keymaps/thumbi/common/keycode_functions.c **** 
 305:/net/depot/qmk_firmware/keyboards/splitography/keymaps/thumbi/common/keycode_functions.c **** // ............................................................ Tap Dance Insert
 306:/net/depot/qmk_firmware/keyboards/splitography/keymaps/thumbi/common/keycode_functions.c **** 
 307:/net/depot/qmk_firmware/keyboards/splitography/keymaps/thumbi/common/keycode_functions.c **** void asterisk(qk_tap_dance_state_t *state, void *user_data)
 308:/net/depot/qmk_firmware/keyboards/splitography/keymaps/thumbi/common/keycode_functions.c **** {
 309:/net/depot/qmk_firmware/keyboards/splitography/keymaps/thumbi/common/keycode_functions.c ****   if (state->count > 1) { tap_key(KC_DOT); }
 310:/net/depot/qmk_firmware/keyboards/splitography/keymaps/thumbi/common/keycode_functions.c ****   shift_key(KC_8);
 311:/net/depot/qmk_firmware/keyboards/splitography/keymaps/thumbi/common/keycode_functions.c ****   reset_tap_dance(state);
 312:/net/depot/qmk_firmware/keyboards/splitography/keymaps/thumbi/common/keycode_functions.c **** }
 313:/net/depot/qmk_firmware/keyboards/splitography/keymaps/thumbi/common/keycode_functions.c **** 
 314:/net/depot/qmk_firmware/keyboards/splitography/keymaps/thumbi/common/keycode_functions.c **** void comma(qk_tap_dance_state_t *state, void *user_data)
 315:/net/depot/qmk_firmware/keyboards/splitography/keymaps/thumbi/common/keycode_functions.c **** {
 316:/net/depot/qmk_firmware/keyboards/splitography/keymaps/thumbi/common/keycode_functions.c ****   tap_key(KC_COMM);
 317:/net/depot/qmk_firmware/keyboards/splitography/keymaps/thumbi/common/keycode_functions.c ****   if (state->count > 1) { tap_key(KC_SPC); }
 318:/net/depot/qmk_firmware/keyboards/splitography/keymaps/thumbi/common/keycode_functions.c ****   reset_tap_dance(state);
 319:/net/depot/qmk_firmware/keyboards/splitography/keymaps/thumbi/common/keycode_functions.c **** }
 320:/net/depot/qmk_firmware/keyboards/splitography/keymaps/thumbi/common/keycode_functions.c **** 
 321:/net/depot/qmk_firmware/keyboards/splitography/keymaps/thumbi/common/keycode_functions.c **** void dot(qk_tap_dance_state_t *state, void *user_data)
 322:/net/depot/qmk_firmware/keyboards/splitography/keymaps/thumbi/common/keycode_functions.c **** {
 323:/net/depot/qmk_firmware/keyboards/splitography/keymaps/thumbi/common/keycode_functions.c ****   if (state->count > 1) { shift_key(KC_COLN); }
 324:/net/depot/qmk_firmware/keyboards/splitography/keymaps/thumbi/common/keycode_functions.c ****   else                  { tap_key(KC_DOT); }
 325:/net/depot/qmk_firmware/keyboards/splitography/keymaps/thumbi/common/keycode_functions.c ****   reset_tap_dance(state);
 326:/net/depot/qmk_firmware/keyboards/splitography/keymaps/thumbi/common/keycode_functions.c **** }
 327:/net/depot/qmk_firmware/keyboards/splitography/keymaps/thumbi/common/keycode_functions.c **** 
 328:/net/depot/qmk_firmware/keyboards/splitography/keymaps/thumbi/common/keycode_functions.c **** // compile time macro string, see functions/hardware planck script
 329:/net/depot/qmk_firmware/keyboards/splitography/keymaps/thumbi/common/keycode_functions.c **** void private(qk_tap_dance_state_t *state, void *user_data)
 330:/net/depot/qmk_firmware/keyboards/splitography/keymaps/thumbi/common/keycode_functions.c **** {
  40               		.loc 1 330 0
  41               		.cfi_startproc
  42               	.LVL4:
  43 0000 CF93      		push r28
  44               	.LCFI0:
  45               		.cfi_def_cfa_offset 3
  46               		.cfi_offset 28, -2
  47 0002 DF93      		push r29
  48               	.LCFI1:
  49               		.cfi_def_cfa_offset 4
  50               		.cfi_offset 29, -3
  51               	/* prologue: function */
  52               	/* frame size = 0 */
  53               	/* stack size = 2 */
  54               	.L__stack_usage = 2
  55 0004 EC01      		movw r28,r24
 331:/net/depot/qmk_firmware/keyboards/splitography/keymaps/thumbi/common/keycode_functions.c **** #ifdef PRIVATE_STRING
 332:/net/depot/qmk_firmware/keyboards/splitography/keymaps/thumbi/common/keycode_functions.c ****   if (state->count > 1) {
  56               		.loc 1 332 0
  57 0006 8881      		ld r24,Y
  58               	.LVL5:
  59 0008 8230      		cpi r24,lo8(2)
  60 000a 00F0      		brlo .L3
  61               		.file 2 "keyboards/splitography/keymaps/thumbi/private_string.h"
   1:keyboards/splitography/keymaps/thumbi/private_string.h **** SEND_STRING("the keys of enoch");
  62               		.loc 2 1 0
  63 000c 80E0      		ldi r24,lo8(__c.5766)
  64 000e 90E0      		ldi r25,hi8(__c.5766)
  65 0010 0E94 0000 		call send_string_P
  66               	.LVL6:
  67               	.L3:
 333:/net/depot/qmk_firmware/keyboards/splitography/keymaps/thumbi/common/keycode_functions.c **** #include "private_string.h"
 334:/net/depot/qmk_firmware/keyboards/splitography/keymaps/thumbi/common/keycode_functions.c ****   }
 335:/net/depot/qmk_firmware/keyboards/splitography/keymaps/thumbi/common/keycode_functions.c **** #endif
 336:/net/depot/qmk_firmware/keyboards/splitography/keymaps/thumbi/common/keycode_functions.c ****   reset_tap_dance(state);
  68               		.loc 1 336 0
  69 0014 CE01      		movw r24,r28
  70               	/* epilogue start */
 337:/net/depot/qmk_firmware/keyboards/splitography/keymaps/thumbi/common/keycode_functions.c **** }
  71               		.loc 1 337 0
  72 0016 DF91      		pop r29
  73 0018 CF91      		pop r28
  74               	.LVL7:
 336:/net/depot/qmk_firmware/keyboards/splitography/keymaps/thumbi/common/keycode_functions.c **** }
  75               		.loc 1 336 0
  76 001a 0C94 0000 		jmp reset_tap_dance
  77               	.LVL8:
  78               		.cfi_endproc
  79               	.LFE140:
  81               		.section	.text.send,"ax",@progbits
  82               	.global	send
  84               	send:
  85               	.LFB141:
 338:/net/depot/qmk_firmware/keyboards/splitography/keymaps/thumbi/common/keycode_functions.c **** 
 339:/net/depot/qmk_firmware/keyboards/splitography/keymaps/thumbi/common/keycode_functions.c **** // config.h defined string
 340:/net/depot/qmk_firmware/keyboards/splitography/keymaps/thumbi/common/keycode_functions.c **** void send(qk_tap_dance_state_t *state, void *user_data)
 341:/net/depot/qmk_firmware/keyboards/splitography/keymaps/thumbi/common/keycode_functions.c **** {
  86               		.loc 1 341 0
  87               		.cfi_startproc
  88               	.LVL9:
  89 0000 CF93      		push r28
  90               	.LCFI2:
  91               		.cfi_def_cfa_offset 3
  92               		.cfi_offset 28, -2
  93 0002 DF93      		push r29
  94               	.LCFI3:
  95               		.cfi_def_cfa_offset 4
  96               		.cfi_offset 29, -3
  97               	/* prologue: function */
  98               	/* frame size = 0 */
  99               	/* stack size = 2 */
 100               	.L__stack_usage = 2
 101 0004 EC01      		movw r28,r24
 342:/net/depot/qmk_firmware/keyboards/splitography/keymaps/thumbi/common/keycode_functions.c ****   if (state->count > 1) { SEND_STRING(PUBLIC_STRING); }
 102               		.loc 1 342 0
 103 0006 8881      		ld r24,Y
 104               	.LVL10:
 105 0008 8230      		cpi r24,lo8(2)
 106 000a 00F0      		brlo .L5
 107               		.loc 1 342 0 is_stmt 0 discriminator 1
 108 000c 80E0      		ldi r24,lo8(__c.5772)
 109 000e 90E0      		ldi r25,hi8(__c.5772)
 110 0010 0E94 0000 		call send_string_P
 111               	.LVL11:
 112               	.L5:
 343:/net/depot/qmk_firmware/keyboards/splitography/keymaps/thumbi/common/keycode_functions.c ****   reset_tap_dance(state);
 113               		.loc 1 343 0 is_stmt 1
 114 0014 CE01      		movw r24,r28
 115               	/* epilogue start */
 344:/net/depot/qmk_firmware/keyboards/splitography/keymaps/thumbi/common/keycode_functions.c **** }
 116               		.loc 1 344 0
 117 0016 DF91      		pop r29
 118 0018 CF91      		pop r28
 119               	.LVL12:
 343:/net/depot/qmk_firmware/keyboards/splitography/keymaps/thumbi/common/keycode_functions.c ****   reset_tap_dance(state);
 120               		.loc 1 343 0
 121 001a 0C94 0000 		jmp reset_tap_dance
 122               	.LVL13:
 123               		.cfi_endproc
 124               	.LFE141:
 126               		.section	.text.tap_mods,"ax",@progbits
 127               	.global	tap_mods
 129               	tap_mods:
 130               	.LFB110:
   9:/net/depot/qmk_firmware/keyboards/splitography/keymaps/thumbi/common/keycode_functions.c ****   if (record->event.pressed) { mods |= MOD_BIT(keycode); }
 131               		.loc 1 9 0
 132               		.cfi_startproc
 133               	.LVL14:
 134               	/* prologue: function */
 135               	/* frame size = 0 */
 136               	/* stack size = 0 */
 137               	.L__stack_usage = 0
 138 0000 6770      		andi r22,7
 139 0002 7727      		clr r23
 140               	.LVL15:
 141 0004 21E0      		ldi r18,lo8(1)
 142 0006 30E0      		ldi r19,0
 143 0008 00C0      		rjmp 2f
 144               		1:
 145 000a 220F      		lsl r18
 146               		2:
 147 000c 6A95      		dec r22
 148 000e 02F4      		brpl 1b
 149 0010 4091 0000 		lds r20,mods
  10:/net/depot/qmk_firmware/keyboards/splitography/keymaps/thumbi/common/keycode_functions.c ****   else                       { mods &= ~(MOD_BIT(keycode)); }
 150               		.loc 1 10 0
 151 0014 FC01      		movw r30,r24
 152 0016 8281      		ldd r24,Z+2
 153               	.LVL16:
 154 0018 8823      		tst r24
 155 001a 01F0      		breq .L7
  10:/net/depot/qmk_firmware/keyboards/splitography/keymaps/thumbi/common/keycode_functions.c ****   else                       { mods &= ~(MOD_BIT(keycode)); }
 156               		.loc 1 10 0 is_stmt 0 discriminator 1
 157 001c 242B      		or r18,r20
 158               	.L9:
  11:/net/depot/qmk_firmware/keyboards/splitography/keymaps/thumbi/common/keycode_functions.c **** }
 159               		.loc 1 11 0 is_stmt 1
 160 001e 2093 0000 		sts mods,r18
 161               	/* epilogue start */
  12:/net/depot/qmk_firmware/keyboards/splitography/keymaps/thumbi/common/keycode_functions.c **** 
 162               		.loc 1 12 0
 163 0022 0895      		ret
 164               	.L7:
  11:/net/depot/qmk_firmware/keyboards/splitography/keymaps/thumbi/common/keycode_functions.c **** }
 165               		.loc 1 11 0
 166 0024 2095      		com r18
 167 0026 2423      		and r18,r20
 168 0028 00C0      		rjmp .L9
 169               		.cfi_endproc
 170               	.LFE110:
 172               		.section	.text.modifier,"ax",@progbits
 173               	.global	modifier
 175               	modifier:
 176               	.LFB111:
  16:/net/depot/qmk_firmware/keyboards/splitography/keymaps/thumbi/common/keycode_functions.c ****   if (mods & MOD_BIT(KC_LCTL)) { f(KC_LCTL); }
 177               		.loc 1 16 0
 178               		.cfi_startproc
 179               	.LVL17:
 180 0000 CF93      		push r28
 181               	.LCFI4:
 182               		.cfi_def_cfa_offset 3
 183               		.cfi_offset 28, -2
 184 0002 DF93      		push r29
 185               	.LCFI5:
 186               		.cfi_def_cfa_offset 4
 187               		.cfi_offset 29, -3
 188               	/* prologue: function */
 189               	/* frame size = 0 */
 190               	/* stack size = 2 */
 191               	.L__stack_usage = 2
 192 0004 EC01      		movw r28,r24
  17:/net/depot/qmk_firmware/keyboards/splitography/keymaps/thumbi/common/keycode_functions.c ****   if (mods & MOD_BIT(KC_LGUI)) { f(KC_LGUI); }
 193               		.loc 1 17 0
 194 0006 8091 0000 		lds r24,mods
 195               	.LVL18:
 196 000a 80FF      		sbrs r24,0
 197 000c 00C0      		rjmp .L11
  17:/net/depot/qmk_firmware/keyboards/splitography/keymaps/thumbi/common/keycode_functions.c ****   if (mods & MOD_BIT(KC_LGUI)) { f(KC_LGUI); }
 198               		.loc 1 17 0 is_stmt 0 discriminator 1
 199 000e 80EE      		ldi r24,lo8(-32)
 200 0010 FE01      		movw r30,r28
 201 0012 0995      		icall
 202               	.LVL19:
 203               	.L11:
  18:/net/depot/qmk_firmware/keyboards/splitography/keymaps/thumbi/common/keycode_functions.c ****   if (mods & MOD_BIT(KC_LALT)) { f(KC_LALT); }
 204               		.loc 1 18 0 is_stmt 1
 205 0014 8091 0000 		lds r24,mods
 206 0018 83FF      		sbrs r24,3
 207 001a 00C0      		rjmp .L12
  18:/net/depot/qmk_firmware/keyboards/splitography/keymaps/thumbi/common/keycode_functions.c ****   if (mods & MOD_BIT(KC_LALT)) { f(KC_LALT); }
 208               		.loc 1 18 0 is_stmt 0 discriminator 1
 209 001c 83EE      		ldi r24,lo8(-29)
 210 001e FE01      		movw r30,r28
 211 0020 0995      		icall
 212               	.LVL20:
 213               	.L12:
  19:/net/depot/qmk_firmware/keyboards/splitography/keymaps/thumbi/common/keycode_functions.c ****   if (mods & MOD_BIT(KC_LSFT)) { f(KC_LSFT); }
 214               		.loc 1 19 0 is_stmt 1
 215 0022 8091 0000 		lds r24,mods
 216 0026 82FF      		sbrs r24,2
 217 0028 00C0      		rjmp .L13
  19:/net/depot/qmk_firmware/keyboards/splitography/keymaps/thumbi/common/keycode_functions.c ****   if (mods & MOD_BIT(KC_LSFT)) { f(KC_LSFT); }
 218               		.loc 1 19 0 is_stmt 0 discriminator 1
 219 002a 82EE      		ldi r24,lo8(-30)
 220 002c FE01      		movw r30,r28
 221 002e 0995      		icall
 222               	.LVL21:
 223               	.L13:
  20:/net/depot/qmk_firmware/keyboards/splitography/keymaps/thumbi/common/keycode_functions.c ****   if (mods & MOD_BIT(KC_RSFT)) { f(KC_RSFT); }  // note: qmk macros all use left modifiers
 224               		.loc 1 20 0 is_stmt 1
 225 0030 8091 0000 		lds r24,mods
 226 0034 81FF      		sbrs r24,1
 227 0036 00C0      		rjmp .L14
  20:/net/depot/qmk_firmware/keyboards/splitography/keymaps/thumbi/common/keycode_functions.c ****   if (mods & MOD_BIT(KC_RSFT)) { f(KC_RSFT); }  // note: qmk macros all use left modifiers
 228               		.loc 1 20 0 is_stmt 0 discriminator 1
 229 0038 81EE      		ldi r24,lo8(-31)
 230 003a FE01      		movw r30,r28
 231 003c 0995      		icall
 232               	.LVL22:
 233               	.L14:
  21:/net/depot/qmk_firmware/keyboards/splitography/keymaps/thumbi/common/keycode_functions.c **** }
 234               		.loc 1 21 0 is_stmt 1
 235 003e 8091 0000 		lds r24,mods
 236 0042 85FF      		sbrs r24,5
 237 0044 00C0      		rjmp .L10
  21:/net/depot/qmk_firmware/keyboards/splitography/keymaps/thumbi/common/keycode_functions.c **** }
 238               		.loc 1 21 0 is_stmt 0 discriminator 1
 239 0046 85EE      		ldi r24,lo8(-27)
 240 0048 FE01      		movw r30,r28
 241               	/* epilogue start */
  22:/net/depot/qmk_firmware/keyboards/splitography/keymaps/thumbi/common/keycode_functions.c **** 
 242               		.loc 1 22 0 is_stmt 1 discriminator 1
 243 004a DF91      		pop r29
 244 004c CF91      		pop r28
 245               	.LVL23:
  21:/net/depot/qmk_firmware/keyboards/splitography/keymaps/thumbi/common/keycode_functions.c **** }
 246               		.loc 1 21 0 discriminator 1
 247 004e 0994      		ijmp
 248               	.LVL24:
 249               	.L10:
 250               	/* epilogue start */
  22:/net/depot/qmk_firmware/keyboards/splitography/keymaps/thumbi/common/keycode_functions.c **** 
 251               		.loc 1 22 0
 252 0050 DF91      		pop r29
 253 0052 CF91      		pop r28
 254               	.LVL25:
 255 0054 0895      		ret
 256               		.cfi_endproc
 257               	.LFE111:
 259               		.section	.text.register_shift,"ax",@progbits
 260               	.global	register_shift
 262               	register_shift:
 263               	.LFB112:
  28:/net/depot/qmk_firmware/keyboards/splitography/keymaps/thumbi/common/keycode_functions.c ****   register_code(KC_LSFT);
 264               		.loc 1 28 0
 265               		.cfi_startproc
 266               	.LVL26:
 267 0000 CF93      		push r28
 268               	.LCFI6:
 269               		.cfi_def_cfa_offset 3
 270               		.cfi_offset 28, -2
 271               	/* prologue: function */
 272               	/* frame size = 0 */
 273               	/* stack size = 1 */
 274               	.L__stack_usage = 1
 275 0002 C82F      		mov r28,r24
  29:/net/depot/qmk_firmware/keyboards/splitography/keymaps/thumbi/common/keycode_functions.c ****   register_code(keycode);
 276               		.loc 1 29 0
 277 0004 81EE      		ldi r24,lo8(-31)
 278               	.LVL27:
 279 0006 0E94 0000 		call register_code
 280               	.LVL28:
  30:/net/depot/qmk_firmware/keyboards/splitography/keymaps/thumbi/common/keycode_functions.c **** }
 281               		.loc 1 30 0
 282 000a 8C2F      		mov r24,r28
 283               	/* epilogue start */
  31:/net/depot/qmk_firmware/keyboards/splitography/keymaps/thumbi/common/keycode_functions.c **** 
 284               		.loc 1 31 0
 285 000c CF91      		pop r28
  30:/net/depot/qmk_firmware/keyboards/splitography/keymaps/thumbi/common/keycode_functions.c **** }
 286               		.loc 1 30 0
 287 000e 0C94 0000 		jmp register_code
 288               	.LVL29:
 289               		.cfi_endproc
 290               	.LFE112:
 292               		.section	.text.unregister_shift,"ax",@progbits
 293               	.global	unregister_shift
 295               	unregister_shift:
 296               	.LFB113:
  35:/net/depot/qmk_firmware/keyboards/splitography/keymaps/thumbi/common/keycode_functions.c ****   unregister_code(keycode);
 297               		.loc 1 35 0
 298               		.cfi_startproc
 299               	.LVL30:
 300               	/* prologue: function */
 301               	/* frame size = 0 */
 302               	/* stack size = 0 */
 303               	.L__stack_usage = 0
  36:/net/depot/qmk_firmware/keyboards/splitography/keymaps/thumbi/common/keycode_functions.c ****   unregister_code(KC_LSFT);
 304               		.loc 1 36 0
 305 0000 0E94 0000 		call unregister_code
 306               	.LVL31:
  37:/net/depot/qmk_firmware/keyboards/splitography/keymaps/thumbi/common/keycode_functions.c **** }
 307               		.loc 1 37 0
 308 0004 81EE      		ldi r24,lo8(-31)
 309 0006 0C94 0000 		jmp unregister_code
 310               	.LVL32:
 311               		.cfi_endproc
 312               	.LFE113:
 314               		.section	.text.colon_reset,"ax",@progbits
 315               	.global	colon_reset
 317               	colon_reset:
 318               	.LFB128:
 223:/net/depot/qmk_firmware/keyboards/splitography/keymaps/thumbi/common/keycode_functions.c ****   unregister_shift(KC_SCLN);
 319               		.loc 1 223 0
 320               		.cfi_startproc
 321               	.LVL33:
 322               	/* prologue: function */
 323               	/* frame size = 0 */
 324               	/* stack size = 0 */
 325               	.L__stack_usage = 0
 224:/net/depot/qmk_firmware/keyboards/splitography/keymaps/thumbi/common/keycode_functions.c **** }
 326               		.loc 1 224 0
 327 0000 83E3      		ldi r24,lo8(51)
 328 0002 90E0      		ldi r25,0
 329               	.LVL34:
 330 0004 0C94 0000 		jmp unregister_shift
 331               	.LVL35:
 332               		.cfi_endproc
 333               	.LFE128:
 335               		.section	.text.greater_reset,"ax",@progbits
 336               	.global	greater_reset
 338               	greater_reset:
 339               	.LFB132:
 264:/net/depot/qmk_firmware/keyboards/splitography/keymaps/thumbi/common/keycode_functions.c ****   unregister_shift(KC_DOT);
 340               		.loc 1 264 0
 341               		.cfi_startproc
 342               	.LVL36:
 343               	/* prologue: function */
 344               	/* frame size = 0 */
 345               	/* stack size = 0 */
 346               	.L__stack_usage = 0
 265:/net/depot/qmk_firmware/keyboards/splitography/keymaps/thumbi/common/keycode_functions.c **** }
 347               		.loc 1 265 0
 348 0000 87E3      		ldi r24,lo8(55)
 349 0002 90E0      		ldi r25,0
 350               	.LVL37:
 351 0004 0C94 0000 		jmp unregister_shift
 352               	.LVL38:
 353               		.cfi_endproc
 354               	.LFE132:
 356               		.section	.text.lesser_reset,"ax",@progbits
 357               	.global	lesser_reset
 359               	lesser_reset:
 360               	.LFB134:
 282:/net/depot/qmk_firmware/keyboards/splitography/keymaps/thumbi/common/keycode_functions.c ****   unregister_shift(KC_COMM);
 361               		.loc 1 282 0
 362               		.cfi_startproc
 363               	.LVL39:
 364               	/* prologue: function */
 365               	/* frame size = 0 */
 366               	/* stack size = 0 */
 367               	.L__stack_usage = 0
 283:/net/depot/qmk_firmware/keyboards/splitography/keymaps/thumbi/common/keycode_functions.c ****   unregister_code(KC_LCTL);
 368               		.loc 1 283 0
 369 0000 86E3      		ldi r24,lo8(54)
 370 0002 90E0      		ldi r25,0
 371               	.LVL40:
 372 0004 0E94 0000 		call unregister_shift
 373               	.LVL41:
 284:/net/depot/qmk_firmware/keyboards/splitography/keymaps/thumbi/common/keycode_functions.c **** }
 374               		.loc 1 284 0
 375 0008 80EE      		ldi r24,lo8(-32)
 376 000a 0C94 0000 		jmp unregister_code
 377               	.LVL42:
 378               		.cfi_endproc
 379               	.LFE134:
 381               		.section	.text.tilde_reset,"ax",@progbits
 382               	.global	tilde_reset
 384               	tilde_reset:
 385               	.LFB136:
 301:/net/depot/qmk_firmware/keyboards/splitography/keymaps/thumbi/common/keycode_functions.c ****   unregister_shift(KC_GRV);
 386               		.loc 1 301 0
 387               		.cfi_startproc
 388               	.LVL43:
 389               	/* prologue: function */
 390               	/* frame size = 0 */
 391               	/* stack size = 0 */
 392               	.L__stack_usage = 0
 302:/net/depot/qmk_firmware/keyboards/splitography/keymaps/thumbi/common/keycode_functions.c **** }
 393               		.loc 1 302 0
 394 0000 85E3      		ldi r24,lo8(53)
 395 0002 90E0      		ldi r25,0
 396               	.LVL44:
 397 0004 0C94 0000 		jmp unregister_shift
 398               	.LVL45:
 399               		.cfi_endproc
 400               	.LFE136:
 402               		.section	.text.tap_key,"ax",@progbits
 403               	.global	tap_key
 405               	tap_key:
 406               	.LFB114:
  42:/net/depot/qmk_firmware/keyboards/splitography/keymaps/thumbi/common/keycode_functions.c ****   register_code  (keycode);
 407               		.loc 1 42 0
 408               		.cfi_startproc
 409               	.LVL46:
 410 0000 CF93      		push r28
 411               	.LCFI7:
 412               		.cfi_def_cfa_offset 3
 413               		.cfi_offset 28, -2
 414               	/* prologue: function */
 415               	/* frame size = 0 */
 416               	/* stack size = 1 */
 417               	.L__stack_usage = 1
 418 0002 C82F      		mov r28,r24
  43:/net/depot/qmk_firmware/keyboards/splitography/keymaps/thumbi/common/keycode_functions.c ****   unregister_code(keycode);
 419               		.loc 1 43 0
 420 0004 0E94 0000 		call register_code
 421               	.LVL47:
  44:/net/depot/qmk_firmware/keyboards/splitography/keymaps/thumbi/common/keycode_functions.c **** }
 422               		.loc 1 44 0
 423 0008 8C2F      		mov r24,r28
 424               	/* epilogue start */
  45:/net/depot/qmk_firmware/keyboards/splitography/keymaps/thumbi/common/keycode_functions.c **** 
 425               		.loc 1 45 0
 426 000a CF91      		pop r28
  44:/net/depot/qmk_firmware/keyboards/splitography/keymaps/thumbi/common/keycode_functions.c **** }
 427               		.loc 1 44 0
 428 000c 0C94 0000 		jmp unregister_code
 429               	.LVL48:
 430               		.cfi_endproc
 431               	.LFE114:
 433               		.section	.text.comma,"ax",@progbits
 434               	.global	comma
 436               	comma:
 437               	.LFB138:
 315:/net/depot/qmk_firmware/keyboards/splitography/keymaps/thumbi/common/keycode_functions.c ****   tap_key(KC_COMM);
 438               		.loc 1 315 0
 439               		.cfi_startproc
 440               	.LVL49:
 441 0000 CF93      		push r28
 442               	.LCFI8:
 443               		.cfi_def_cfa_offset 3
 444               		.cfi_offset 28, -2
 445 0002 DF93      		push r29
 446               	.LCFI9:
 447               		.cfi_def_cfa_offset 4
 448               		.cfi_offset 29, -3
 449               	/* prologue: function */
 450               	/* frame size = 0 */
 451               	/* stack size = 2 */
 452               	.L__stack_usage = 2
 453 0004 EC01      		movw r28,r24
 316:/net/depot/qmk_firmware/keyboards/splitography/keymaps/thumbi/common/keycode_functions.c ****   if (state->count > 1) { tap_key(KC_SPC); }
 454               		.loc 1 316 0
 455 0006 86E3      		ldi r24,lo8(54)
 456 0008 90E0      		ldi r25,0
 457               	.LVL50:
 458 000a 0E94 0000 		call tap_key
 459               	.LVL51:
 317:/net/depot/qmk_firmware/keyboards/splitography/keymaps/thumbi/common/keycode_functions.c ****   reset_tap_dance(state);
 460               		.loc 1 317 0
 461 000e 8881      		ld r24,Y
 462 0010 8230      		cpi r24,lo8(2)
 463 0012 00F0      		brlo .L36
 317:/net/depot/qmk_firmware/keyboards/splitography/keymaps/thumbi/common/keycode_functions.c ****   reset_tap_dance(state);
 464               		.loc 1 317 0 is_stmt 0 discriminator 1
 465 0014 8CE2      		ldi r24,lo8(44)
 466 0016 90E0      		ldi r25,0
 467 0018 0E94 0000 		call tap_key
 468               	.LVL52:
 469               	.L36:
 318:/net/depot/qmk_firmware/keyboards/splitography/keymaps/thumbi/common/keycode_functions.c **** }
 470               		.loc 1 318 0 is_stmt 1
 471 001c CE01      		movw r24,r28
 472               	/* epilogue start */
 319:/net/depot/qmk_firmware/keyboards/splitography/keymaps/thumbi/common/keycode_functions.c **** 
 473               		.loc 1 319 0
 474 001e DF91      		pop r29
 475 0020 CF91      		pop r28
 476               	.LVL53:
 318:/net/depot/qmk_firmware/keyboards/splitography/keymaps/thumbi/common/keycode_functions.c **** }
 477               		.loc 1 318 0
 478 0022 0C94 0000 		jmp reset_tap_dance
 479               	.LVL54:
 480               		.cfi_endproc
 481               	.LFE138:
 483               		.section	.text.shift_key,"ax",@progbits
 484               	.global	shift_key
 486               	shift_key:
 487               	.LFB115:
  48:/net/depot/qmk_firmware/keyboards/splitography/keymaps/thumbi/common/keycode_functions.c ****   register_code  (KC_LSFT);
 488               		.loc 1 48 0
 489               		.cfi_startproc
 490               	.LVL55:
 491 0000 CF93      		push r28
 492               	.LCFI10:
 493               		.cfi_def_cfa_offset 3
 494               		.cfi_offset 28, -2
 495 0002 DF93      		push r29
 496               	.LCFI11:
 497               		.cfi_def_cfa_offset 4
 498               		.cfi_offset 29, -3
 499               	/* prologue: function */
 500               	/* frame size = 0 */
 501               	/* stack size = 2 */
 502               	.L__stack_usage = 2
 503 0004 EC01      		movw r28,r24
  49:/net/depot/qmk_firmware/keyboards/splitography/keymaps/thumbi/common/keycode_functions.c ****   tap_key        (keycode);
 504               		.loc 1 49 0
 505 0006 81EE      		ldi r24,lo8(-31)
 506               	.LVL56:
 507 0008 0E94 0000 		call register_code
 508               	.LVL57:
  50:/net/depot/qmk_firmware/keyboards/splitography/keymaps/thumbi/common/keycode_functions.c ****   unregister_code(KC_LSFT);
 509               		.loc 1 50 0
 510 000c CE01      		movw r24,r28
 511 000e 0E94 0000 		call tap_key
 512               	.LVL58:
  51:/net/depot/qmk_firmware/keyboards/splitography/keymaps/thumbi/common/keycode_functions.c **** }
 513               		.loc 1 51 0
 514 0012 81EE      		ldi r24,lo8(-31)
 515               	/* epilogue start */
  52:/net/depot/qmk_firmware/keyboards/splitography/keymaps/thumbi/common/keycode_functions.c **** 
 516               		.loc 1 52 0
 517 0014 DF91      		pop r29
 518 0016 CF91      		pop r28
 519               	.LVL59:
  51:/net/depot/qmk_firmware/keyboards/splitography/keymaps/thumbi/common/keycode_functions.c **** }
 520               		.loc 1 51 0
 521 0018 0C94 0000 		jmp unregister_code
 522               	.LVL60:
 523               		.cfi_endproc
 524               	.LFE115:
 526               		.section	.rodata.tilde.str1.1,"aMS",@progbits,1
 527               	.LC0:
 528 0000 7E2F 00   		.string	"~/"
 529               		.section	.text.tilde,"ax",@progbits
 530               	.global	tilde
 532               	tilde:
 533               	.LFB135:
 288:/net/depot/qmk_firmware/keyboards/splitography/keymaps/thumbi/common/keycode_functions.c ****   uint8_t i;
 534               		.loc 1 288 0
 535               		.cfi_startproc
 536               	.LVL61:
 537 0000 1F93      		push r17
 538               	.LCFI12:
 539               		.cfi_def_cfa_offset 3
 540               		.cfi_offset 17, -2
 541 0002 CF93      		push r28
 542               	.LCFI13:
 543               		.cfi_def_cfa_offset 4
 544               		.cfi_offset 28, -3
 545 0004 DF93      		push r29
 546               	.LCFI14:
 547               		.cfi_def_cfa_offset 5
 548               		.cfi_offset 29, -4
 549               	/* prologue: function */
 550               	/* frame size = 0 */
 551               	/* stack size = 3 */
 552               	.L__stack_usage = 3
 553 0006 EC01      		movw r28,r24
 290:/net/depot/qmk_firmware/keyboards/splitography/keymaps/thumbi/common/keycode_functions.c ****     if (state->pressed) { register_shift(KC_GRV); }
 554               		.loc 1 290 0
 555 0008 9881      		ld r25,Y
 556 000a 8F81      		ldd r24,Y+7
 557               	.LVL62:
 558 000c 9230      		cpi r25,lo8(2)
 559 000e 00F0      		brlo .L39
 291:/net/depot/qmk_firmware/keyboards/splitography/keymaps/thumbi/common/keycode_functions.c ****     else if (state->count == 2) { send_string("~/"); }
 560               		.loc 1 291 0
 561 0010 8823      		tst r24
 562 0012 01F0      		breq .L40
 563               	.L44:
 291:/net/depot/qmk_firmware/keyboards/splitography/keymaps/thumbi/common/keycode_functions.c ****     else if (state->count == 2) { send_string("~/"); }
 564               		.loc 1 291 0 is_stmt 0 discriminator 1
 565 0014 85E3      		ldi r24,lo8(53)
 566 0016 90E0      		ldi r25,0
 567 0018 0E94 0000 		call register_shift
 568               	.LVL63:
 569               	.L41:
 297:/net/depot/qmk_firmware/keyboards/splitography/keymaps/thumbi/common/keycode_functions.c **** }
 570               		.loc 1 297 0 is_stmt 1
 571 001c CE01      		movw r24,r28
 572               	/* epilogue start */
 298:/net/depot/qmk_firmware/keyboards/splitography/keymaps/thumbi/common/keycode_functions.c **** 
 573               		.loc 1 298 0
 574 001e DF91      		pop r29
 575 0020 CF91      		pop r28
 576               	.LVL64:
 577 0022 1F91      		pop r17
 297:/net/depot/qmk_firmware/keyboards/splitography/keymaps/thumbi/common/keycode_functions.c **** }
 578               		.loc 1 297 0
 579 0024 0C94 0000 		jmp reset_tap_dance
 580               	.LVL65:
 581               	.L40:
 293:/net/depot/qmk_firmware/keyboards/splitography/keymaps/thumbi/common/keycode_functions.c ****   }
 582               		.loc 1 293 0
 583 0028 10E0      		ldi r17,0
 292:/net/depot/qmk_firmware/keyboards/splitography/keymaps/thumbi/common/keycode_functions.c ****     else for (i = 0; i < state->count; i++) { shift_key(KC_GRV); }
 584               		.loc 1 292 0
 585 002a 9230      		cpi r25,lo8(2)
 586 002c 01F4      		brne .L42
 292:/net/depot/qmk_firmware/keyboards/splitography/keymaps/thumbi/common/keycode_functions.c ****     else for (i = 0; i < state->count; i++) { shift_key(KC_GRV); }
 587               		.loc 1 292 0 is_stmt 0 discriminator 1
 588 002e 80E0      		ldi r24,lo8(.LC0)
 589 0030 90E0      		ldi r25,hi8(.LC0)
 590 0032 0E94 0000 		call send_string
 591               	.LVL66:
 592 0036 00C0      		rjmp .L41
 593               	.LVL67:
 594               	.L43:
 293:/net/depot/qmk_firmware/keyboards/splitography/keymaps/thumbi/common/keycode_functions.c ****   }
 595               		.loc 1 293 0 is_stmt 1 discriminator 3
 596 0038 85E3      		ldi r24,lo8(53)
 597 003a 90E0      		ldi r25,0
 598 003c 0E94 0000 		call shift_key
 599               	.LVL68:
 600 0040 1F5F      		subi r17,lo8(-(1))
 601               	.LVL69:
 602               	.L42:
 293:/net/depot/qmk_firmware/keyboards/splitography/keymaps/thumbi/common/keycode_functions.c ****   }
 603               		.loc 1 293 0 is_stmt 0 discriminator 1
 604 0042 8881      		ld r24,Y
 605 0044 1817      		cp r17,r24
 606 0046 00F0      		brlo .L43
 607 0048 00C0      		rjmp .L41
 608               	.LVL70:
 609               	.L39:
 295:/net/depot/qmk_firmware/keyboards/splitography/keymaps/thumbi/common/keycode_functions.c ****   else { shift_key(KC_GRV); }
 610               		.loc 1 295 0 is_stmt 1
 611 004a 8111      		cpse r24,__zero_reg__
 612 004c 00C0      		rjmp .L44
 296:/net/depot/qmk_firmware/keyboards/splitography/keymaps/thumbi/common/keycode_functions.c ****   reset_tap_dance(state);
 613               		.loc 1 296 0
 614 004e 85E3      		ldi r24,lo8(53)
 615 0050 90E0      		ldi r25,0
 616 0052 0E94 0000 		call shift_key
 617               	.LVL71:
 618 0056 00C0      		rjmp .L41
 619               		.cfi_endproc
 620               	.LFE135:
 622               		.section	.text.asterisk,"ax",@progbits
 623               	.global	asterisk
 625               	asterisk:
 626               	.LFB137:
 308:/net/depot/qmk_firmware/keyboards/splitography/keymaps/thumbi/common/keycode_functions.c ****   if (state->count > 1) { tap_key(KC_DOT); }
 627               		.loc 1 308 0
 628               		.cfi_startproc
 629               	.LVL72:
 630 0000 CF93      		push r28
 631               	.LCFI15:
 632               		.cfi_def_cfa_offset 3
 633               		.cfi_offset 28, -2
 634 0002 DF93      		push r29
 635               	.LCFI16:
 636               		.cfi_def_cfa_offset 4
 637               		.cfi_offset 29, -3
 638               	/* prologue: function */
 639               	/* frame size = 0 */
 640               	/* stack size = 2 */
 641               	.L__stack_usage = 2
 642 0004 EC01      		movw r28,r24
 309:/net/depot/qmk_firmware/keyboards/splitography/keymaps/thumbi/common/keycode_functions.c ****   shift_key(KC_8);
 643               		.loc 1 309 0
 644 0006 8881      		ld r24,Y
 645               	.LVL73:
 646 0008 8230      		cpi r24,lo8(2)
 647 000a 00F0      		brlo .L47
 309:/net/depot/qmk_firmware/keyboards/splitography/keymaps/thumbi/common/keycode_functions.c ****   shift_key(KC_8);
 648               		.loc 1 309 0 is_stmt 0 discriminator 1
 649 000c 87E3      		ldi r24,lo8(55)
 650 000e 90E0      		ldi r25,0
 651 0010 0E94 0000 		call tap_key
 652               	.LVL74:
 653               	.L47:
 310:/net/depot/qmk_firmware/keyboards/splitography/keymaps/thumbi/common/keycode_functions.c ****   reset_tap_dance(state);
 654               		.loc 1 310 0 is_stmt 1
 655 0014 85E2      		ldi r24,lo8(37)
 656 0016 90E0      		ldi r25,0
 657 0018 0E94 0000 		call shift_key
 658               	.LVL75:
 311:/net/depot/qmk_firmware/keyboards/splitography/keymaps/thumbi/common/keycode_functions.c **** }
 659               		.loc 1 311 0
 660 001c CE01      		movw r24,r28
 661               	/* epilogue start */
 312:/net/depot/qmk_firmware/keyboards/splitography/keymaps/thumbi/common/keycode_functions.c **** 
 662               		.loc 1 312 0
 663 001e DF91      		pop r29
 664 0020 CF91      		pop r28
 665               	.LVL76:
 311:/net/depot/qmk_firmware/keyboards/splitography/keymaps/thumbi/common/keycode_functions.c **** }
 666               		.loc 1 311 0
 667 0022 0C94 0000 		jmp reset_tap_dance
 668               	.LVL77:
 669               		.cfi_endproc
 670               	.LFE137:
 672               		.section	.text.dot,"ax",@progbits
 673               	.global	dot
 675               	dot:
 676               	.LFB139:
 322:/net/depot/qmk_firmware/keyboards/splitography/keymaps/thumbi/common/keycode_functions.c ****   if (state->count > 1) { shift_key(KC_COLN); }
 677               		.loc 1 322 0
 678               		.cfi_startproc
 679               	.LVL78:
 680 0000 CF93      		push r28
 681               	.LCFI17:
 682               		.cfi_def_cfa_offset 3
 683               		.cfi_offset 28, -2
 684 0002 DF93      		push r29
 685               	.LCFI18:
 686               		.cfi_def_cfa_offset 4
 687               		.cfi_offset 29, -3
 688               	/* prologue: function */
 689               	/* frame size = 0 */
 690               	/* stack size = 2 */
 691               	.L__stack_usage = 2
 692 0004 EC01      		movw r28,r24
 323:/net/depot/qmk_firmware/keyboards/splitography/keymaps/thumbi/common/keycode_functions.c ****   else                  { tap_key(KC_DOT); }
 693               		.loc 1 323 0
 694 0006 8881      		ld r24,Y
 695               	.LVL79:
 696 0008 8230      		cpi r24,lo8(2)
 697 000a 00F0      		brlo .L49
 323:/net/depot/qmk_firmware/keyboards/splitography/keymaps/thumbi/common/keycode_functions.c ****   else                  { tap_key(KC_DOT); }
 698               		.loc 1 323 0 is_stmt 0 discriminator 1
 699 000c 83E3      		ldi r24,lo8(51)
 700 000e 92E0      		ldi r25,lo8(2)
 701 0010 0E94 0000 		call shift_key
 702               	.LVL80:
 703               	.L50:
 325:/net/depot/qmk_firmware/keyboards/splitography/keymaps/thumbi/common/keycode_functions.c **** }
 704               		.loc 1 325 0 is_stmt 1
 705 0014 CE01      		movw r24,r28
 706               	/* epilogue start */
 326:/net/depot/qmk_firmware/keyboards/splitography/keymaps/thumbi/common/keycode_functions.c **** 
 707               		.loc 1 326 0
 708 0016 DF91      		pop r29
 709 0018 CF91      		pop r28
 710               	.LVL81:
 325:/net/depot/qmk_firmware/keyboards/splitography/keymaps/thumbi/common/keycode_functions.c **** }
 711               		.loc 1 325 0
 712 001a 0C94 0000 		jmp reset_tap_dance
 713               	.LVL82:
 714               	.L49:
 324:/net/depot/qmk_firmware/keyboards/splitography/keymaps/thumbi/common/keycode_functions.c ****   reset_tap_dance(state);
 715               		.loc 1 324 0
 716 001e 87E3      		ldi r24,lo8(55)
 717 0020 90E0      		ldi r25,0
 718 0022 0E94 0000 		call tap_key
 719               	.LVL83:
 720 0026 00C0      		rjmp .L50
 721               		.cfi_endproc
 722               	.LFE139:
 724               		.section	.text.key_press,"ax",@progbits
 725               	.global	key_press
 727               	key_press:
 728               	.LFB116:
  61:/net/depot/qmk_firmware/keyboards/splitography/keymaps/thumbi/common/keycode_functions.c ****   if (keycode) {
 729               		.loc 1 61 0
 730               		.cfi_startproc
 731               	.LVL84:
 732 0000 1F93      		push r17
 733               	.LCFI19:
 734               		.cfi_def_cfa_offset 3
 735               		.cfi_offset 17, -2
 736 0002 CF93      		push r28
 737               	.LCFI20:
 738               		.cfi_def_cfa_offset 4
 739               		.cfi_offset 28, -3
 740 0004 DF93      		push r29
 741               	.LCFI21:
 742               		.cfi_def_cfa_offset 5
 743               		.cfi_offset 29, -4
 744               	/* prologue: function */
 745               	/* frame size = 0 */
 746               	/* stack size = 3 */
 747               	.L__stack_usage = 3
 748 0006 182F      		mov r17,r24
 749 0008 EB01      		movw r28,r22
  62:/net/depot/qmk_firmware/keyboards/splitography/keymaps/thumbi/common/keycode_functions.c ****     if (timer_elapsed(key_timer) < TAPPING_TERM) {
 750               		.loc 1 62 0
 751 000a 2097      		sbiw r28,0
 752 000c 01F4      		brne .L52
 753               	.LVL85:
 754               	.L54:
  69:/net/depot/qmk_firmware/keyboards/splitography/keymaps/thumbi/common/keycode_functions.c **** }
 755               		.loc 1 69 0
 756 000e 80E0      		ldi r24,0
 757               	.L51:
 758               	/* epilogue start */
  70:/net/depot/qmk_firmware/keyboards/splitography/keymaps/thumbi/common/keycode_functions.c **** 
 759               		.loc 1 70 0
 760 0010 DF91      		pop r29
 761 0012 CF91      		pop r28
 762               	.LVL86:
 763 0014 1F91      		pop r17
 764               	.LVL87:
 765 0016 0895      		ret
 766               	.LVL88:
 767               	.L52:
  63:/net/depot/qmk_firmware/keyboards/splitography/keymaps/thumbi/common/keycode_functions.c ****       if (shift) { shift_key(keycode); }
 768               		.loc 1 63 0
 769 0018 8091 0000 		lds r24,key_timer
 770 001c 9091 0000 		lds r25,key_timer+1
 771 0020 0E94 0000 		call timer_elapsed
 772               	.LVL89:
 773 0024 8A3F      		cpi r24,-6
 774 0026 9105      		cpc r25,__zero_reg__
 775 0028 00F4      		brsh .L54
  64:/net/depot/qmk_firmware/keyboards/splitography/keymaps/thumbi/common/keycode_functions.c ****       else       { tap_key(keycode); }
 776               		.loc 1 64 0
 777 002a CE01      		movw r24,r28
 778 002c 1123      		tst r17
 779 002e 01F0      		breq .L55
 780               	.LVL90:
  64:/net/depot/qmk_firmware/keyboards/splitography/keymaps/thumbi/common/keycode_functions.c ****       else       { tap_key(keycode); }
 781               		.loc 1 64 0 is_stmt 0 discriminator 1
 782 0030 0E94 0000 		call shift_key
 783               	.LVL91:
 784               	.L56:
  66:/net/depot/qmk_firmware/keyboards/splitography/keymaps/thumbi/common/keycode_functions.c ****     }
 785               		.loc 1 66 0 is_stmt 1
 786 0034 81E0      		ldi r24,lo8(1)
 787 0036 00C0      		rjmp .L51
 788               	.LVL92:
 789               	.L55:
  65:/net/depot/qmk_firmware/keyboards/splitography/keymaps/thumbi/common/keycode_functions.c ****       return true;
 790               		.loc 1 65 0
 791 0038 0E94 0000 		call tap_key
 792               	.LVL93:
 793 003c 00C0      		rjmp .L56
 794               		.cfi_endproc
 795               	.LFE116:
 797               		.section	.text.mt_shift,"ax",@progbits
 798               	.global	mt_shift
 800               	mt_shift:
 801               	.LFB117:
  74:/net/depot/qmk_firmware/keyboards/splitography/keymaps/thumbi/common/keycode_functions.c ****   if (record->event.pressed) {
 802               		.loc 1 74 0
 803               		.cfi_startproc
 804               	.LVL94:
 805 0000 EF92      		push r14
 806               	.LCFI22:
 807               		.cfi_def_cfa_offset 3
 808               		.cfi_offset 14, -2
 809 0002 FF92      		push r15
 810               	.LCFI23:
 811               		.cfi_def_cfa_offset 4
 812               		.cfi_offset 15, -3
 813 0004 1F93      		push r17
 814               	.LCFI24:
 815               		.cfi_def_cfa_offset 5
 816               		.cfi_offset 17, -4
 817 0006 CF93      		push r28
 818               	.LCFI25:
 819               		.cfi_def_cfa_offset 6
 820               		.cfi_offset 28, -5
 821 0008 DF93      		push r29
 822               	.LCFI26:
 823               		.cfi_def_cfa_offset 7
 824               		.cfi_offset 29, -6
 825               	/* prologue: function */
 826               	/* frame size = 0 */
 827               	/* stack size = 5 */
 828               	.L__stack_usage = 5
 829 000a 162F      		mov r17,r22
 830 000c EA01      		movw r28,r20
 831 000e 7901      		movw r14,r18
  75:/net/depot/qmk_firmware/keyboards/splitography/keymaps/thumbi/common/keycode_functions.c ****     key_timer = timer_read();
 832               		.loc 1 75 0
 833 0010 FC01      		movw r30,r24
 834 0012 8281      		ldd r24,Z+2
 835               	.LVL95:
 836 0014 8823      		tst r24
 837 0016 01F0      		breq .L58
  76:/net/depot/qmk_firmware/keyboards/splitography/keymaps/thumbi/common/keycode_functions.c ****     register_code(modifier);
 838               		.loc 1 76 0
 839 0018 0E94 0000 		call timer_read
 840               	.LVL96:
 841 001c 9093 0000 		sts key_timer+1,r25
 842 0020 8093 0000 		sts key_timer,r24
  77:/net/depot/qmk_firmware/keyboards/splitography/keymaps/thumbi/common/keycode_functions.c ****     if (modifier2) { register_code(modifier2); }
 843               		.loc 1 77 0
 844 0024 812F      		mov r24,r17
 845 0026 0E94 0000 		call register_code
 846               	.LVL97:
  78:/net/depot/qmk_firmware/keyboards/splitography/keymaps/thumbi/common/keycode_functions.c ****   }
 847               		.loc 1 78 0
 848 002a 2097      		sbiw r28,0
 849 002c 01F0      		breq .L57
  78:/net/depot/qmk_firmware/keyboards/splitography/keymaps/thumbi/common/keycode_functions.c ****   }
 850               		.loc 1 78 0 is_stmt 0 discriminator 1
 851 002e 8C2F      		mov r24,r28
 852               	/* epilogue start */
  86:/net/depot/qmk_firmware/keyboards/splitography/keymaps/thumbi/common/keycode_functions.c **** 
 853               		.loc 1 86 0 is_stmt 1 discriminator 1
 854 0030 DF91      		pop r29
 855 0032 CF91      		pop r28
 856               	.LVL98:
 857 0034 1F91      		pop r17
 858 0036 FF90      		pop r15
 859 0038 EF90      		pop r14
 860               	.LVL99:
  78:/net/depot/qmk_firmware/keyboards/splitography/keymaps/thumbi/common/keycode_functions.c ****   }
 861               		.loc 1 78 0 discriminator 1
 862 003a 0C94 0000 		jmp register_code
 863               	.LVL100:
 864               	.L58:
  81:/net/depot/qmk_firmware/keyboards/splitography/keymaps/thumbi/common/keycode_functions.c ****     if (modifier2) { unregister_code(modifier2); }
 865               		.loc 1 81 0
 866 003e 862F      		mov r24,r22
 867 0040 0E94 0000 		call unregister_code
 868               	.LVL101:
  82:/net/depot/qmk_firmware/keyboards/splitography/keymaps/thumbi/common/keycode_functions.c ****     if (timer_elapsed(key_timer) < TAPPING_TERM) { shift_key(keycode); }
 869               		.loc 1 82 0
 870 0044 2097      		sbiw r28,0
 871 0046 01F0      		breq .L60
  82:/net/depot/qmk_firmware/keyboards/splitography/keymaps/thumbi/common/keycode_functions.c ****     if (timer_elapsed(key_timer) < TAPPING_TERM) { shift_key(keycode); }
 872               		.loc 1 82 0 is_stmt 0 discriminator 1
 873 0048 8C2F      		mov r24,r28
 874 004a 0E94 0000 		call unregister_code
 875               	.LVL102:
 876               	.L60:
  83:/net/depot/qmk_firmware/keyboards/splitography/keymaps/thumbi/common/keycode_functions.c ****     key_timer = 0;
 877               		.loc 1 83 0 is_stmt 1
 878 004e 8091 0000 		lds r24,key_timer
 879 0052 9091 0000 		lds r25,key_timer+1
 880 0056 0E94 0000 		call timer_elapsed
 881               	.LVL103:
 882 005a 8A3F      		cpi r24,-6
 883 005c 9105      		cpc r25,__zero_reg__
 884 005e 00F4      		brsh .L61
  83:/net/depot/qmk_firmware/keyboards/splitography/keymaps/thumbi/common/keycode_functions.c ****     key_timer = 0;
 885               		.loc 1 83 0 is_stmt 0 discriminator 1
 886 0060 C701      		movw r24,r14
 887 0062 0E94 0000 		call shift_key
 888               	.LVL104:
 889               	.L61:
  84:/net/depot/qmk_firmware/keyboards/splitography/keymaps/thumbi/common/keycode_functions.c ****   }
 890               		.loc 1 84 0 is_stmt 1
 891 0066 1092 0000 		sts key_timer+1,__zero_reg__
 892 006a 1092 0000 		sts key_timer,__zero_reg__
 893               	.L57:
 894               	/* epilogue start */
  86:/net/depot/qmk_firmware/keyboards/splitography/keymaps/thumbi/common/keycode_functions.c **** 
 895               		.loc 1 86 0
 896 006e DF91      		pop r29
 897 0070 CF91      		pop r28
 898               	.LVL105:
 899 0072 1F91      		pop r17
 900 0074 FF90      		pop r15
 901 0076 EF90      		pop r14
 902               	.LVL106:
 903 0078 0895      		ret
 904               		.cfi_endproc
 905               	.LFE117:
 907               		.section	.text.map_shift,"ax",@progbits
 908               	.global	map_shift
 910               	map_shift:
 911               	.LFB118:
  90:/net/depot/qmk_firmware/keyboards/splitography/keymaps/thumbi/common/keycode_functions.c ****   // if modifier and only shift modifier and base layer..
 912               		.loc 1 90 0
 913               		.cfi_startproc
 914               	.LVL107:
 915 0000 0F93      		push r16
 916               	.LCFI27:
 917               		.cfi_def_cfa_offset 3
 918               		.cfi_offset 16, -2
 919 0002 1F93      		push r17
 920               	.LCFI28:
 921               		.cfi_def_cfa_offset 4
 922               		.cfi_offset 17, -3
 923 0004 CF93      		push r28
 924               	.LCFI29:
 925               		.cfi_def_cfa_offset 5
 926               		.cfi_offset 28, -4
 927 0006 DF93      		push r29
 928               	.LCFI30:
 929               		.cfi_def_cfa_offset 6
 930               		.cfi_offset 29, -5
 931               	/* prologue: function */
 932               	/* frame size = 0 */
 933               	/* stack size = 4 */
 934               	.L__stack_usage = 4
 935 0008 EC01      		movw r28,r24
 936 000a 142F      		mov r17,r20
 937 000c 022F      		mov r16,r18
  92:/net/depot/qmk_firmware/keyboards/splitography/keymaps/thumbi/common/keycode_functions.c ****     if (record->event.pressed) {
 938               		.loc 1 92 0
 939 000e 2091 0000 		lds r18,mods
 940               	.LVL108:
 941 0012 2111      		cpse r18,__zero_reg__
 942 0014 00C0      		rjmp .L69
 943               	.LVL109:
 944               	.L71:
 103:/net/depot/qmk_firmware/keyboards/splitography/keymaps/thumbi/common/keycode_functions.c **** }
 945               		.loc 1 103 0
 946 0016 C0E0      		ldi r28,0
 947               	.LVL110:
 948               	.L68:
 104:/net/depot/qmk_firmware/keyboards/splitography/keymaps/thumbi/common/keycode_functions.c **** 
 949               		.loc 1 104 0
 950 0018 8C2F      		mov r24,r28
 951               	/* epilogue start */
 952 001a DF91      		pop r29
 953 001c CF91      		pop r28
 954 001e 1F91      		pop r17
 955               	.LVL111:
 956 0020 0F91      		pop r16
 957 0022 0895      		ret
 958               	.LVL112:
 959               	.L69:
  92:/net/depot/qmk_firmware/keyboards/splitography/keymaps/thumbi/common/keycode_functions.c ****     if (record->event.pressed) {
 960               		.loc 1 92 0 discriminator 1
 961 0024 30E0      		ldi r19,0
 962 0026 6770      		andi r22,7
 963 0028 7727      		clr r23
 964               	.LVL113:
 965 002a 81E0      		ldi r24,lo8(1)
 966 002c 90E0      		ldi r25,0
 967               	.LVL114:
 968 002e 00C0      		rjmp 2f
 969               		1:
 970 0030 880F      		lsl r24
 971 0032 991F      		rol r25
 972               		2:
 973 0034 6A95      		dec r22
 974 0036 02F4      		brpl 1b
 975 0038 8223      		and r24,r18
 976 003a 9323      		and r25,r19
 977 003c 2817      		cp r18,r24
 978 003e 3907      		cpc r19,r25
 979 0040 01F4      		brne .L71
  92:/net/depot/qmk_firmware/keyboards/splitography/keymaps/thumbi/common/keycode_functions.c ****     if (record->event.pressed) {
 980               		.loc 1 92 0 is_stmt 0 discriminator 2
 981 0042 6091 0000 		lds r22,layer_state
 982 0046 7091 0000 		lds r23,layer_state+1
 983 004a 8091 0000 		lds r24,layer_state+2
 984 004e 9091 0000 		lds r25,layer_state+3
 985 0052 0E94 0000 		call biton32
 986               	.LVL115:
 987 0056 8111      		cpse r24,__zero_reg__
 988 0058 00C0      		rjmp .L72
 989               	.L75:
  93:/net/depot/qmk_firmware/keyboards/splitography/keymaps/thumbi/common/keycode_functions.c ****       if (!shift) { unregister_code(KC_LSFT); }  // in event of unshifted keycode
 990               		.loc 1 93 0 is_stmt 1
 991 005a CA81      		ldd r28,Y+2
 992               	.LVL116:
 993 005c C111      		cpse r28,__zero_reg__
 994 005e 00C0      		rjmp .L73
  98:/net/depot/qmk_firmware/keyboards/splitography/keymaps/thumbi/common/keycode_functions.c ****       if (!shift) { register_code(KC_LSFT); }    // restore SFT_T
 995               		.loc 1 98 0
 996 0060 802F      		mov r24,r16
 997 0062 0E94 0000 		call unregister_code
 998               	.LVL117:
  99:/net/depot/qmk_firmware/keyboards/splitography/keymaps/thumbi/common/keycode_functions.c ****     }
 999               		.loc 1 99 0
 1000 0066 1111      		cpse r17,__zero_reg__
 1001 0068 00C0      		rjmp .L77
  99:/net/depot/qmk_firmware/keyboards/splitography/keymaps/thumbi/common/keycode_functions.c ****     }
 1002               		.loc 1 99 0 is_stmt 0 discriminator 1
 1003 006a 81EE      		ldi r24,lo8(-31)
 1004 006c 0E94 0000 		call register_code
 1005               	.LVL118:
 1006               	.L77:
 101:/net/depot/qmk_firmware/keyboards/splitography/keymaps/thumbi/common/keycode_functions.c ****   }
 1007               		.loc 1 101 0 is_stmt 1
 1008 0070 C1E0      		ldi r28,lo8(1)
 1009 0072 00C0      		rjmp .L68
 1010               	.LVL119:
 1011               	.L72:
  92:/net/depot/qmk_firmware/keyboards/splitography/keymaps/thumbi/common/keycode_functions.c ****     if (record->event.pressed) {
 1012               		.loc 1 92 0 discriminator 3
 1013 0074 6091 0000 		lds r22,layer_state
 1014 0078 7091 0000 		lds r23,layer_state+1
 1015 007c 8091 0000 		lds r24,layer_state+2
 1016 0080 9091 0000 		lds r25,layer_state+3
 1017 0084 0E94 0000 		call biton32
 1018               	.LVL120:
 1019 0088 8C30      		cpi r24,lo8(12)
 1020 008a 01F4      		brne .L71
 1021 008c 00C0      		rjmp .L75
 1022               	.LVL121:
 1023               	.L73:
  94:/net/depot/qmk_firmware/keyboards/splitography/keymaps/thumbi/common/keycode_functions.c ****       register_code(keycode);
 1024               		.loc 1 94 0
 1025 008e 1111      		cpse r17,__zero_reg__
 1026 0090 00C0      		rjmp .L76
  94:/net/depot/qmk_firmware/keyboards/splitography/keymaps/thumbi/common/keycode_functions.c ****       register_code(keycode);
 1027               		.loc 1 94 0 is_stmt 0 discriminator 1
 1028 0092 81EE      		ldi r24,lo8(-31)
 1029 0094 0E94 0000 		call unregister_code
 1030               	.LVL122:
 1031               	.L76:
  95:/net/depot/qmk_firmware/keyboards/splitography/keymaps/thumbi/common/keycode_functions.c ****     }
 1032               		.loc 1 95 0 is_stmt 1
 1033 0098 802F      		mov r24,r16
 1034 009a 0E94 0000 		call register_code
 1035               	.LVL123:
 1036 009e 00C0      		rjmp .L68
 1037               		.cfi_endproc
 1038               	.LFE118:
 1040               		.section	.text.double_shift,"ax",@progbits
 1041               	.global	double_shift
 1043               	double_shift:
 1044               	.LFB119:
 111:/net/depot/qmk_firmware/keyboards/splitography/keymaps/thumbi/common/keycode_functions.c ****   tap_key (keycode);
 1045               		.loc 1 111 0
 1046               		.cfi_startproc
 1047               	.LVL124:
 1048               	/* prologue: function */
 1049               	/* frame size = 0 */
 1050               	/* stack size = 0 */
 1051               	.L__stack_usage = 0
 112:/net/depot/qmk_firmware/keyboards/splitography/keymaps/thumbi/common/keycode_functions.c ****   if (DT_SHIFT) {
 1052               		.loc 1 112 0
 1053 0000 0E94 0000 		call tap_key
 1054               	.LVL125:
 116:/net/depot/qmk_firmware/keyboards/splitography/keymaps/thumbi/common/keycode_functions.c ****     set_oneshot_layer(_SHIFT, ONESHOT_START);
 1055               		.loc 1 116 0
 1056 0004 81E0      		ldi r24,lo8(1)
 1057 0006 0E94 0000 		call layer_on
 1058               	.LVL126:
 117:/net/depot/qmk_firmware/keyboards/splitography/keymaps/thumbi/common/keycode_functions.c ****     dt_shift = 1;
 1059               		.loc 1 117 0
 1060 000a 63E0      		ldi r22,lo8(3)
 1061 000c 81E0      		ldi r24,lo8(1)
 1062 000e 0E94 0000 		call set_oneshot_layer
 1063               	.LVL127:
 118:/net/depot/qmk_firmware/keyboards/splitography/keymaps/thumbi/common/keycode_functions.c ****   }
 1064               		.loc 1 118 0
 1065 0012 81E0      		ldi r24,lo8(1)
 1066 0014 8093 0000 		sts dt_shift,r24
 1067               	/* epilogue start */
 121:/net/depot/qmk_firmware/keyboards/splitography/keymaps/thumbi/common/keycode_functions.c **** 
 1068               		.loc 1 121 0
 1069 0018 0895      		ret
 1070               		.cfi_endproc
 1071               	.LFE119:
 1073               		.section	.text.tap_lt,"ax",@progbits
 1074               	.global	tap_lt
 1076               	tap_lt:
 1077               	.LFB120:
 127:/net/depot/qmk_firmware/keyboards/splitography/keymaps/thumbi/common/keycode_functions.c ****   uint8_t i;
 1078               		.loc 1 127 0
 1079               		.cfi_startproc
 1080               	.LVL128:
 1081 0000 CF92      		push r12
 1082               	.LCFI31:
 1083               		.cfi_def_cfa_offset 3
 1084               		.cfi_offset 12, -2
 1085 0002 DF92      		push r13
 1086               	.LCFI32:
 1087               		.cfi_def_cfa_offset 4
 1088               		.cfi_offset 13, -3
 1089 0004 EF92      		push r14
 1090               	.LCFI33:
 1091               		.cfi_def_cfa_offset 5
 1092               		.cfi_offset 14, -4
 1093 0006 FF92      		push r15
 1094               	.LCFI34:
 1095               		.cfi_def_cfa_offset 6
 1096               		.cfi_offset 15, -5
 1097 0008 0F93      		push r16
 1098               	.LCFI35:
 1099               		.cfi_def_cfa_offset 7
 1100               		.cfi_offset 16, -6
 1101 000a 1F93      		push r17
 1102               	.LCFI36:
 1103               		.cfi_def_cfa_offset 8
 1104               		.cfi_offset 17, -7
 1105 000c CF93      		push r28
 1106               	.LCFI37:
 1107               		.cfi_def_cfa_offset 9
 1108               		.cfi_offset 28, -8
 1109 000e DF93      		push r29
 1110               	.LCFI38:
 1111               		.cfi_def_cfa_offset 10
 1112               		.cfi_offset 29, -9
 1113               	/* prologue: function */
 1114               	/* frame size = 0 */
 1115               	/* stack size = 8 */
 1116               	.L__stack_usage = 8
 1117 0010 6C01      		movw r12,r24
 1118 0012 EB01      		movw r28,r22
 1119 0014 122F      		mov r17,r18
 1120 0016 C701      		movw r24,r14
 1121               	.LVL129:
 129:/net/depot/qmk_firmware/keyboards/splitography/keymaps/thumbi/common/keycode_functions.c ****     if (state->pressed) { register_code(keycode); } // double tap down -> keycode...
 1122               		.loc 1 129 0
 1123 0018 F601      		movw r30,r12
 1124 001a 2081      		ld r18,Z
 1125               	.LVL130:
 1126 001c 2330      		cpi r18,lo8(3)
 1127 001e 00F0      		brlo .L84
 130:/net/depot/qmk_firmware/keyboards/splitography/keymaps/thumbi/common/keycode_functions.c ****     else if (state->count == triple) {              // triple tap -> double keycode + shift
 1128               		.loc 1 130 0
 1129 0020 8781      		ldd r24,Z+7
 1130 0022 8823      		tst r24
 1131 0024 01F0      		breq .L85
 130:/net/depot/qmk_firmware/keyboards/splitography/keymaps/thumbi/common/keycode_functions.c ****     else if (state->count == triple) {              // triple tap -> double keycode + shift
 1132               		.loc 1 130 0 is_stmt 0 discriminator 1
 1133 0026 862F      		mov r24,r22
 1134               	/* epilogue start */
 159:/net/depot/qmk_firmware/keyboards/splitography/keymaps/thumbi/common/keycode_functions.c **** 
 1135               		.loc 1 159 0 is_stmt 1 discriminator 1
 1136 0028 DF91      		pop r29
 1137 002a CF91      		pop r28
 1138 002c 1F91      		pop r17
 1139               	.LVL131:
 1140 002e 0F91      		pop r16
 1141               	.LVL132:
 1142 0030 FF90      		pop r15
 1143 0032 EF90      		pop r14
 1144               	.LVL133:
 1145 0034 DF90      		pop r13
 1146 0036 CF90      		pop r12
 1147               	.LVL134:
 130:/net/depot/qmk_firmware/keyboards/splitography/keymaps/thumbi/common/keycode_functions.c ****     else if (state->count == triple) {              // triple tap -> double keycode + shift
 1148               		.loc 1 130 0 discriminator 1
 1149 0038 0C94 0000 		jmp register_code
 1150               	.LVL135:
 1151               	.L85:
 131:/net/depot/qmk_firmware/keyboards/splitography/keymaps/thumbi/common/keycode_functions.c ****       tap_key     (keycode);
 1152               		.loc 1 131 0
 1153 003c 2413      		cpse r18,r20
 1154 003e 00C0      		rjmp .L98
 1155               	.L103:
 139:/net/depot/qmk_firmware/keyboards/splitography/keymaps/thumbi/common/keycode_functions.c ****       double_shift(keycode, layer);
 1156               		.loc 1 139 0 discriminator 1
 1157 0040 CE01      		movw r24,r28
 1158 0042 0E94 0000 		call tap_key
 1159               	.LVL136:
 1160 0046 00C0      		rjmp .L96
 1161               	.LVL137:
 1162               	.L87:
 135:/net/depot/qmk_firmware/keyboards/splitography/keymaps/thumbi/common/keycode_functions.c ****   }
 1163               		.loc 1 135 0 discriminator 3
 1164 0048 CE01      		movw r24,r28
 1165 004a 0E94 0000 		call tap_key
 1166               	.LVL138:
 1167 004e 1F5F      		subi r17,lo8(-(1))
 1168               	.LVL139:
 1169               	.L86:
 135:/net/depot/qmk_firmware/keyboards/splitography/keymaps/thumbi/common/keycode_functions.c ****   }
 1170               		.loc 1 135 0 is_stmt 0 discriminator 1
 1171 0050 F601      		movw r30,r12
 1172 0052 8081      		ld r24,Z
 1173 0054 1817      		cp r17,r24
 1174 0056 00F0      		brlo .L87
 1175               	.LVL140:
 1176               	.L83:
 1177               	/* epilogue start */
 159:/net/depot/qmk_firmware/keyboards/splitography/keymaps/thumbi/common/keycode_functions.c **** 
 1178               		.loc 1 159 0 is_stmt 1
 1179 0058 DF91      		pop r29
 1180 005a CF91      		pop r28
 1181               	.LVL141:
 1182 005c 1F91      		pop r17
 1183 005e 0F91      		pop r16
 1184               	.LVL142:
 1185 0060 FF90      		pop r15
 1186 0062 EF90      		pop r14
 1187               	.LVL143:
 1188 0064 DF90      		pop r13
 1189 0066 CF90      		pop r12
 1190               	.LVL144:
 1191 0068 0895      		ret
 1192               	.LVL145:
 1193               	.L98:
 135:/net/depot/qmk_firmware/keyboards/splitography/keymaps/thumbi/common/keycode_functions.c ****   }
 1194               		.loc 1 135 0
 1195 006a 10E0      		ldi r17,0
 1196               	.LVL146:
 1197 006c 00C0      		rjmp .L86
 1198               	.LVL147:
 1199               	.L84:
 137:/net/depot/qmk_firmware/keyboards/splitography/keymaps/thumbi/common/keycode_functions.c ****     if (state->count == triple - 1) {
 1200               		.loc 1 137 0
 1201 006e 2230      		cpi r18,lo8(2)
 1202 0070 01F4      		brne .L89
 138:/net/depot/qmk_firmware/keyboards/splitography/keymaps/thumbi/common/keycode_functions.c ****       if (rule == 2) { tap_key(keycode); }          // (.) double tap -> keycode keycode + shift
 1203               		.loc 1 138 0
 1204 0072 4330      		cpi r20,lo8(3)
 1205 0074 01F4      		brne .L90
 139:/net/depot/qmk_firmware/keyboards/splitography/keymaps/thumbi/common/keycode_functions.c ****       double_shift(keycode, layer);
 1206               		.loc 1 139 0
 1207 0076 0230      		cpi r16,lo8(2)
 1208 0078 01F0      		breq .L103
 1209               	.LVL148:
 1210               	.L96:
 157:/net/depot/qmk_firmware/keyboards/splitography/keymaps/thumbi/common/keycode_functions.c ****   }
 1211               		.loc 1 157 0
 1212 007a 612F      		mov r22,r17
 1213 007c CE01      		movw r24,r28
 1214 007e 00C0      		rjmp .L102
 1215               	.LVL149:
 1216               	.L90:
 143:/net/depot/qmk_firmware/keyboards/splitography/keymaps/thumbi/common/keycode_functions.c ****     else                { double_shift(keycode, layer); }                     // tap down or double
 1217               		.loc 1 143 0
 1218 0080 0230      		cpi r16,lo8(2)
 1219 0082 01F4      		brne .L96
 143:/net/depot/qmk_firmware/keyboards/splitography/keymaps/thumbi/common/keycode_functions.c ****     else                { double_shift(keycode, layer); }                     // tap down or double
 1220               		.loc 1 143 0 is_stmt 0 discriminator 1
 1221 0084 0097      		sbiw r24,0
 1222 0086 01F4      		brne .L92
 143:/net/depot/qmk_firmware/keyboards/splitography/keymaps/thumbi/common/keycode_functions.c ****     else                { double_shift(keycode, layer); }                     // tap down or double
 1223               		.loc 1 143 0
 1224 0088 CB01      		movw r24,r22
 1225               	.L92:
 143:/net/depot/qmk_firmware/keyboards/splitography/keymaps/thumbi/common/keycode_functions.c ****     else                { double_shift(keycode, layer); }                     // tap down or double
 1226               		.loc 1 143 0 discriminator 5
 1227 008a 612F      		mov r22,r17
 1228               	.LVL150:
 1229               	.L102:
 1230               	/* epilogue start */
 159:/net/depot/qmk_firmware/keyboards/splitography/keymaps/thumbi/common/keycode_functions.c **** 
 1231               		.loc 1 159 0 is_stmt 1
 1232 008c DF91      		pop r29
 1233 008e CF91      		pop r28
 1234               	.LVL151:
 1235 0090 1F91      		pop r17
 1236               	.LVL152:
 1237 0092 0F91      		pop r16
 1238               	.LVL153:
 1239 0094 FF90      		pop r15
 1240 0096 EF90      		pop r14
 1241               	.LVL154:
 1242 0098 DF90      		pop r13
 1243 009a CF90      		pop r12
 1244               	.LVL155:
 157:/net/depot/qmk_firmware/keyboards/splitography/keymaps/thumbi/common/keycode_functions.c ****   }
 1245               		.loc 1 157 0
 1246 009c 0C94 0000 		jmp double_shift
 1247               	.LVL156:
 1248               	.L89:
 146:/net/depot/qmk_firmware/keyboards/splitography/keymaps/thumbi/common/keycode_functions.c ****   else switch (rule) {                              // see process_record_user()
 1249               		.loc 1 146 0
 1250 00a0 2781      		ldd r18,Z+7
 1251 00a2 2223      		tst r18
 1252 00a4 01F0      		breq .L93
 146:/net/depot/qmk_firmware/keyboards/splitography/keymaps/thumbi/common/keycode_functions.c ****   else switch (rule) {                              // see process_record_user()
 1253               		.loc 1 146 0 is_stmt 0 discriminator 1
 1254 00a6 812F      		mov r24,r17
 1255               	/* epilogue start */
 159:/net/depot/qmk_firmware/keyboards/splitography/keymaps/thumbi/common/keycode_functions.c **** 
 1256               		.loc 1 159 0 is_stmt 1 discriminator 1
 1257 00a8 DF91      		pop r29
 1258 00aa CF91      		pop r28
 1259 00ac 1F91      		pop r17
 1260               	.LVL157:
 1261 00ae 0F91      		pop r16
 1262               	.LVL158:
 1263 00b0 FF90      		pop r15
 1264 00b2 EF90      		pop r14
 1265               	.LVL159:
 1266 00b4 DF90      		pop r13
 1267 00b6 CF90      		pop r12
 1268               	.LVL160:
 146:/net/depot/qmk_firmware/keyboards/splitography/keymaps/thumbi/common/keycode_functions.c ****   else switch (rule) {                              // see process_record_user()
 1269               		.loc 1 146 0 discriminator 1
 1270 00b8 0C94 0000 		jmp layer_on
 1271               	.LVL161:
 1272               	.L93:
 147:/net/depot/qmk_firmware/keyboards/splitography/keymaps/thumbi/common/keycode_functions.c ****   case 0:
 1273               		.loc 1 147 0
 1274 00bc 0130      		cpi r16,lo8(1)
 1275 00be 01F0      		breq .L94
 1276 00c0 00F0      		brlo .L95
 1277 00c2 0230      		cpi r16,lo8(2)
 1278 00c4 01F0      		breq .L96
 1279 00c6 00C0      		rjmp .L83
 1280               	.L95:
 149:/net/depot/qmk_firmware/keyboards/splitography/keymaps/thumbi/common/keycode_functions.c ****     tap_key (keycode);
 1281               		.loc 1 149 0
 1282 00c8 80E0      		ldi r24,lo8(gs(register_code))
 1283 00ca 90E0      		ldi r25,hi8(gs(register_code))
 1284 00cc 0E94 0000 		call modifier
 1285               	.LVL162:
 150:/net/depot/qmk_firmware/keyboards/splitography/keymaps/thumbi/common/keycode_functions.c ****     modifier(unregister_code);
 1286               		.loc 1 150 0
 1287 00d0 CE01      		movw r24,r28
 1288 00d2 0E94 0000 		call tap_key
 1289               	.LVL163:
 151:/net/depot/qmk_firmware/keyboards/splitography/keymaps/thumbi/common/keycode_functions.c ****     return;
 1290               		.loc 1 151 0
 1291 00d6 80E0      		ldi r24,lo8(gs(unregister_code))
 1292 00d8 90E0      		ldi r25,hi8(gs(unregister_code))
 1293               	/* epilogue start */
 159:/net/depot/qmk_firmware/keyboards/splitography/keymaps/thumbi/common/keycode_functions.c **** 
 1294               		.loc 1 159 0
 1295 00da DF91      		pop r29
 1296 00dc CF91      		pop r28
 1297               	.LVL164:
 1298 00de 1F91      		pop r17
 1299               	.LVL165:
 1300 00e0 0F91      		pop r16
 1301               	.LVL166:
 1302 00e2 FF90      		pop r15
 1303 00e4 EF90      		pop r14
 1304               	.LVL167:
 1305 00e6 DF90      		pop r13
 1306 00e8 CF90      		pop r12
 1307               	.LVL168:
 151:/net/depot/qmk_firmware/keyboards/splitography/keymaps/thumbi/common/keycode_functions.c ****     return;
 1308               		.loc 1 151 0
 1309 00ea 0C94 0000 		jmp modifier
 1310               	.LVL169:
 1311               	.L94:
 154:/net/depot/qmk_firmware/keyboards/splitography/keymaps/thumbi/common/keycode_functions.c ****     return;
 1312               		.loc 1 154 0
 1313 00ee 0097      		sbiw r24,0
 1314 00f0 01F4      		brne .+2
 1315 00f2 00C0      		rjmp .L83
 1316               	/* epilogue start */
 159:/net/depot/qmk_firmware/keyboards/splitography/keymaps/thumbi/common/keycode_functions.c **** 
 1317               		.loc 1 159 0 discriminator 1
 1318 00f4 DF91      		pop r29
 1319 00f6 CF91      		pop r28
 1320 00f8 1F91      		pop r17
 1321               	.LVL170:
 1322 00fa 0F91      		pop r16
 1323               	.LVL171:
 1324 00fc FF90      		pop r15
 1325 00fe EF90      		pop r14
 1326               	.LVL172:
 1327 0100 DF90      		pop r13
 1328 0102 CF90      		pop r12
 1329               	.LVL173:
 154:/net/depot/qmk_firmware/keyboards/splitography/keymaps/thumbi/common/keycode_functions.c ****     return;
 1330               		.loc 1 154 0 discriminator 1
 1331 0104 0C94 0000 		jmp tap_key
 1332               	.LVL174:
 1333               		.cfi_endproc
 1334               	.LFE120:
 1336               		.section	.text.enter,"ax",@progbits
 1337               	.global	enter
 1339               	enter:
 1340               	.LFB122:
 175:/net/depot/qmk_firmware/keyboards/splitography/keymaps/thumbi/common/keycode_functions.c ****   tap_lt(state, KC_ENT, TRIPLE, _RSHIFT, tap_rule, 0);  // triple tap -> double enter + shift, down
 1341               		.loc 1 175 0
 1342               		.cfi_startproc
 1343               	.LVL175:
 1344 0000 EF92      		push r14
 1345               	.LCFI39:
 1346               		.cfi_def_cfa_offset 3
 1347               		.cfi_offset 14, -2
 1348 0002 FF92      		push r15
 1349               	.LCFI40:
 1350               		.cfi_def_cfa_offset 4
 1351               		.cfi_offset 15, -3
 1352 0004 0F93      		push r16
 1353               	.LCFI41:
 1354               		.cfi_def_cfa_offset 5
 1355               		.cfi_offset 16, -4
 1356               	/* prologue: function */
 1357               	/* frame size = 0 */
 1358               	/* stack size = 3 */
 1359               	.L__stack_usage = 3
 176:/net/depot/qmk_firmware/keyboards/splitography/keymaps/thumbi/common/keycode_functions.c **** }
 1360               		.loc 1 176 0
 1361 0006 F12C      		mov r15,__zero_reg__
 1362 0008 E12C      		mov r14,__zero_reg__
 1363 000a 0091 0000 		lds r16,tap_rule
 1364 000e 23E0      		ldi r18,lo8(3)
 1365 0010 43E0      		ldi r20,lo8(3)
 1366 0012 68E2      		ldi r22,lo8(40)
 1367 0014 70E0      		ldi r23,0
 1368               	.LVL176:
 1369 0016 0E94 0000 		call tap_lt
 1370               	.LVL177:
 1371               	/* epilogue start */
 177:/net/depot/qmk_firmware/keyboards/splitography/keymaps/thumbi/common/keycode_functions.c **** 
 1372               		.loc 1 177 0
 1373 001a 0F91      		pop r16
 1374 001c FF90      		pop r15
 1375 001e EF90      		pop r14
 1376 0020 0895      		ret
 1377               		.cfi_endproc
 1378               	.LFE122:
 1380               		.section	.text.space,"ax",@progbits
 1381               	.global	space
 1383               	space:
 1384               	.LFB124:
 186:/net/depot/qmk_firmware/keyboards/splitography/keymaps/thumbi/common/keycode_functions.c ****   tap_lt(state, KC_SPC, REPEATING, _RSHIFT, tap_rule, KC_ENT); // triple tap down -> space...
 1385               		.loc 1 186 0
 1386               		.cfi_startproc
 1387               	.LVL178:
 1388 0000 EF92      		push r14
 1389               	.LCFI42:
 1390               		.cfi_def_cfa_offset 3
 1391               		.cfi_offset 14, -2
 1392 0002 FF92      		push r15
 1393               	.LCFI43:
 1394               		.cfi_def_cfa_offset 4
 1395               		.cfi_offset 15, -3
 1396 0004 0F93      		push r16
 1397               	.LCFI44:
 1398               		.cfi_def_cfa_offset 5
 1399               		.cfi_offset 16, -4
 1400               	/* prologue: function */
 1401               	/* frame size = 0 */
 1402               	/* stack size = 3 */
 1403               	.L__stack_usage = 3
 187:/net/depot/qmk_firmware/keyboards/splitography/keymaps/thumbi/common/keycode_functions.c **** }
 1404               		.loc 1 187 0
 1405 0006 28E2      		ldi r18,lo8(40)
 1406 0008 E22E      		mov r14,r18
 1407 000a F12C      		mov r15,__zero_reg__
 1408 000c 0091 0000 		lds r16,tap_rule
 1409 0010 23E0      		ldi r18,lo8(3)
 1410 0012 40E0      		ldi r20,0
 1411 0014 6CE2      		ldi r22,lo8(44)
 1412 0016 70E0      		ldi r23,0
 1413               	.LVL179:
 1414 0018 0E94 0000 		call tap_lt
 1415               	.LVL180:
 1416               	/* epilogue start */
 188:/net/depot/qmk_firmware/keyboards/splitography/keymaps/thumbi/common/keycode_functions.c **** 
 1417               		.loc 1 188 0
 1418 001c 0F91      		pop r16
 1419 001e FF90      		pop r15
 1420 0020 EF90      		pop r14
 1421 0022 0895      		ret
 1422               		.cfi_endproc
 1423               	.LFE124:
 1425               		.section	.text.tap_reset,"ax",@progbits
 1426               	.global	tap_reset
 1428               	tap_reset:
 1429               	.LFB121:
 162:/net/depot/qmk_firmware/keyboards/splitography/keymaps/thumbi/common/keycode_functions.c ****   unregister_code(keycode);
 1430               		.loc 1 162 0
 1431               		.cfi_startproc
 1432               	.LVL181:
 1433 0000 CF93      		push r28
 1434               	.LCFI45:
 1435               		.cfi_def_cfa_offset 3
 1436               		.cfi_offset 28, -2
 1437               	/* prologue: function */
 1438               	/* frame size = 0 */
 1439               	/* stack size = 1 */
 1440               	.L__stack_usage = 1
 1441 0002 C62F      		mov r28,r22
 163:/net/depot/qmk_firmware/keyboards/splitography/keymaps/thumbi/common/keycode_functions.c ****   if (dt_shift) { clear_oneshot_layer_state(ONESHOT_PRESSED); }
 1442               		.loc 1 163 0
 1443 0004 0E94 0000 		call unregister_code
 1444               	.LVL182:
 164:/net/depot/qmk_firmware/keyboards/splitography/keymaps/thumbi/common/keycode_functions.c ****   else { layer_off(layer); }
 1445               		.loc 1 164 0
 1446 0008 8091 0000 		lds r24,dt_shift
 1447 000c 8823      		tst r24
 1448 000e 01F0      		breq .L107
 164:/net/depot/qmk_firmware/keyboards/splitography/keymaps/thumbi/common/keycode_functions.c ****   else { layer_off(layer); }
 1449               		.loc 1 164 0 is_stmt 0 discriminator 1
 1450 0010 81E0      		ldi r24,lo8(1)
 1451 0012 0E94 0000 		call clear_oneshot_layer_state
 1452               	.LVL183:
 1453               	.L108:
 166:/net/depot/qmk_firmware/keyboards/splitography/keymaps/thumbi/common/keycode_functions.c ****   tap_rule = 0;                                     // clear retained down_rule, see process_record
 1454               		.loc 1 166 0 is_stmt 1
 1455 0016 1092 0000 		sts dt_shift,__zero_reg__
 167:/net/depot/qmk_firmware/keyboards/splitography/keymaps/thumbi/common/keycode_functions.c **** }
 1456               		.loc 1 167 0
 1457 001a 1092 0000 		sts tap_rule,__zero_reg__
 1458               	/* epilogue start */
 168:/net/depot/qmk_firmware/keyboards/splitography/keymaps/thumbi/common/keycode_functions.c **** 
 1459               		.loc 1 168 0
 1460 001e CF91      		pop r28
 1461               	.LVL184:
 1462 0020 0895      		ret
 1463               	.LVL185:
 1464               	.L107:
 165:/net/depot/qmk_firmware/keyboards/splitography/keymaps/thumbi/common/keycode_functions.c ****   dt_shift = 0;
 1465               		.loc 1 165 0
 1466 0022 8C2F      		mov r24,r28
 1467 0024 0E94 0000 		call layer_off
 1468               	.LVL186:
 1469 0028 00C0      		rjmp .L108
 1470               		.cfi_endproc
 1471               	.LFE121:
 1473               		.section	.text.enter_reset,"ax",@progbits
 1474               	.global	enter_reset
 1476               	enter_reset:
 1477               	.LFB123:
 180:/net/depot/qmk_firmware/keyboards/splitography/keymaps/thumbi/common/keycode_functions.c ****   tap_reset(KC_ENT, _RSHIFT);
 1478               		.loc 1 180 0
 1479               		.cfi_startproc
 1480               	.LVL187:
 1481               	/* prologue: function */
 1482               	/* frame size = 0 */
 1483               	/* stack size = 0 */
 1484               	.L__stack_usage = 0
 181:/net/depot/qmk_firmware/keyboards/splitography/keymaps/thumbi/common/keycode_functions.c **** }
 1485               		.loc 1 181 0
 1486 0000 63E0      		ldi r22,lo8(3)
 1487               	.LVL188:
 1488 0002 88E2      		ldi r24,lo8(40)
 1489 0004 90E0      		ldi r25,0
 1490               	.LVL189:
 1491 0006 0C94 0000 		jmp tap_reset
 1492               	.LVL190:
 1493               		.cfi_endproc
 1494               	.LFE123:
 1496               		.section	.text.space_reset,"ax",@progbits
 1497               	.global	space_reset
 1499               	space_reset:
 1500               	.LFB125:
 191:/net/depot/qmk_firmware/keyboards/splitography/keymaps/thumbi/common/keycode_functions.c ****   tap_reset(KC_SPC, _RSHIFT);
 1501               		.loc 1 191 0
 1502               		.cfi_startproc
 1503               	.LVL191:
 1504               	/* prologue: function */
 1505               	/* frame size = 0 */
 1506               	/* stack size = 0 */
 1507               	.L__stack_usage = 0
 192:/net/depot/qmk_firmware/keyboards/splitography/keymaps/thumbi/common/keycode_functions.c **** }
 1508               		.loc 1 192 0
 1509 0000 63E0      		ldi r22,lo8(3)
 1510               	.LVL192:
 1511 0002 8CE2      		ldi r24,lo8(44)
 1512 0004 90E0      		ldi r25,0
 1513               	.LVL193:
 1514 0006 0C94 0000 		jmp tap_reset
 1515               	.LVL194:
 1516               		.cfi_endproc
 1517               	.LFE125:
 1519               		.section	.text.double_max,"ax",@progbits
 1520               	.global	double_max
 1522               	double_max:
 1523               	.LFB126:
 198:/net/depot/qmk_firmware/keyboards/splitography/keymaps/thumbi/common/keycode_functions.c ****   if (shift) {
 1524               		.loc 1 198 0
 1525               		.cfi_startproc
 1526               	.LVL195:
 1527 0000 1F93      		push r17
 1528               	.LCFI46:
 1529               		.cfi_def_cfa_offset 3
 1530               		.cfi_offset 17, -2
 1531 0002 CF93      		push r28
 1532               	.LCFI47:
 1533               		.cfi_def_cfa_offset 4
 1534               		.cfi_offset 28, -3
 1535 0004 DF93      		push r29
 1536               	.LCFI48:
 1537               		.cfi_def_cfa_offset 5
 1538               		.cfi_offset 29, -4
 1539               	/* prologue: function */
 1540               	/* frame size = 0 */
 1541               	/* stack size = 3 */
 1542               	.L__stack_usage = 3
 1543 0006 182F      		mov r17,r24
 1544 0008 EA01      		movw r28,r20
 200:/net/depot/qmk_firmware/keyboards/splitography/keymaps/thumbi/common/keycode_functions.c ****     if (count > 1) { shift_key(keycode); }
 1545               		.loc 1 200 0
 1546 000a CA01      		movw r24,r20
 1547               	.LVL196:
 199:/net/depot/qmk_firmware/keyboards/splitography/keymaps/thumbi/common/keycode_functions.c ****     shift_key(keycode);
 1548               		.loc 1 199 0
 1549 000c 6623      		tst r22
 1550 000e 01F0      		breq .L112
 200:/net/depot/qmk_firmware/keyboards/splitography/keymaps/thumbi/common/keycode_functions.c ****     if (count > 1) { shift_key(keycode); }
 1551               		.loc 1 200 0
 1552 0010 0E94 0000 		call shift_key
 1553               	.LVL197:
 201:/net/depot/qmk_firmware/keyboards/splitography/keymaps/thumbi/common/keycode_functions.c ****   }
 1554               		.loc 1 201 0
 1555 0014 1230      		cpi r17,lo8(2)
 1556 0016 00F0      		brlo .L111
 201:/net/depot/qmk_firmware/keyboards/splitography/keymaps/thumbi/common/keycode_functions.c ****   }
 1557               		.loc 1 201 0 is_stmt 0 discriminator 1
 1558 0018 CE01      		movw r24,r28
 1559               	/* epilogue start */
 207:/net/depot/qmk_firmware/keyboards/splitography/keymaps/thumbi/common/keycode_functions.c **** 
 1560               		.loc 1 207 0 is_stmt 1 discriminator 1
 1561 001a DF91      		pop r29
 1562 001c CF91      		pop r28
 1563               	.LVL198:
 1564 001e 1F91      		pop r17
 1565               	.LVL199:
 201:/net/depot/qmk_firmware/keyboards/splitography/keymaps/thumbi/common/keycode_functions.c ****   }
 1566               		.loc 1 201 0 discriminator 1
 1567 0020 0C94 0000 		jmp shift_key
 1568               	.LVL200:
 1569               	.L112:
 204:/net/depot/qmk_firmware/keyboards/splitography/keymaps/thumbi/common/keycode_functions.c ****     if (count > 1) { tap_key(keycode); }
 1570               		.loc 1 204 0
 1571 0024 0E94 0000 		call tap_key
 1572               	.LVL201:
 205:/net/depot/qmk_firmware/keyboards/splitography/keymaps/thumbi/common/keycode_functions.c ****   }
 1573               		.loc 1 205 0
 1574 0028 1230      		cpi r17,lo8(2)
 1575 002a 00F0      		brlo .L111
 205:/net/depot/qmk_firmware/keyboards/splitography/keymaps/thumbi/common/keycode_functions.c ****   }
 1576               		.loc 1 205 0 is_stmt 0 discriminator 1
 1577 002c CE01      		movw r24,r28
 1578               	/* epilogue start */
 207:/net/depot/qmk_firmware/keyboards/splitography/keymaps/thumbi/common/keycode_functions.c **** 
 1579               		.loc 1 207 0 is_stmt 1 discriminator 1
 1580 002e DF91      		pop r29
 1581 0030 CF91      		pop r28
 1582               	.LVL202:
 1583 0032 1F91      		pop r17
 1584               	.LVL203:
 205:/net/depot/qmk_firmware/keyboards/splitography/keymaps/thumbi/common/keycode_functions.c ****   }
 1585               		.loc 1 205 0 discriminator 1
 1586 0034 0C94 0000 		jmp tap_key
 1587               	.LVL204:
 1588               	.L111:
 1589               	/* epilogue start */
 207:/net/depot/qmk_firmware/keyboards/splitography/keymaps/thumbi/common/keycode_functions.c **** 
 1590               		.loc 1 207 0
 1591 0038 DF91      		pop r29
 1592 003a CF91      		pop r28
 1593               	.LVL205:
 1594 003c 1F91      		pop r17
 1595               	.LVL206:
 1596 003e 0895      		ret
 1597               		.cfi_endproc
 1598               	.LFE126:
 1600               		.section	.rodata.colon.str1.1,"aMS",@progbits,1
 1601               	.LC1:
 1602 0000 203A 3A20 		.string	" :: "
 1602      00
 1603               		.section	.text.colon,"ax",@progbits
 1604               	.global	colon
 1606               	colon:
 1607               	.LFB127:
 210:/net/depot/qmk_firmware/keyboards/splitography/keymaps/thumbi/common/keycode_functions.c ****   uint8_t i;
 1608               		.loc 1 210 0
 1609               		.cfi_startproc
 1610               	.LVL207:
 1611 0000 1F93      		push r17
 1612               	.LCFI49:
 1613               		.cfi_def_cfa_offset 3
 1614               		.cfi_offset 17, -2
 1615 0002 CF93      		push r28
 1616               	.LCFI50:
 1617               		.cfi_def_cfa_offset 4
 1618               		.cfi_offset 28, -3
 1619 0004 DF93      		push r29
 1620               	.LCFI51:
 1621               		.cfi_def_cfa_offset 5
 1622               		.cfi_offset 29, -4
 1623               	/* prologue: function */
 1624               	/* frame size = 0 */
 1625               	/* stack size = 3 */
 1626               	.L__stack_usage = 3
 1627 0006 EC01      		movw r28,r24
 212:/net/depot/qmk_firmware/keyboards/splitography/keymaps/thumbi/common/keycode_functions.c ****     if (state->pressed) { register_shift(KC_SCLN); }
 1628               		.loc 1 212 0
 1629 0008 8881      		ld r24,Y
 1630               	.LVL208:
 1631 000a 9F81      		ldd r25,Y+7
 1632 000c 8330      		cpi r24,lo8(3)
 1633 000e 00F0      		brlo .L117
 213:/net/depot/qmk_firmware/keyboards/splitography/keymaps/thumbi/common/keycode_functions.c ****     else if (state->count == 3) { send_string(" :: "); }
 1634               		.loc 1 213 0
 1635 0010 9923      		tst r25
 1636 0012 01F0      		breq .L118
 1637               	.L122:
 213:/net/depot/qmk_firmware/keyboards/splitography/keymaps/thumbi/common/keycode_functions.c ****     else if (state->count == 3) { send_string(" :: "); }
 1638               		.loc 1 213 0 is_stmt 0 discriminator 1
 1639 0014 83E3      		ldi r24,lo8(51)
 1640 0016 90E0      		ldi r25,0
 1641 0018 0E94 0000 		call register_shift
 1642               	.LVL209:
 1643               	.L119:
 219:/net/depot/qmk_firmware/keyboards/splitography/keymaps/thumbi/common/keycode_functions.c **** }
 1644               		.loc 1 219 0 is_stmt 1
 1645 001c CE01      		movw r24,r28
 1646               	/* epilogue start */
 220:/net/depot/qmk_firmware/keyboards/splitography/keymaps/thumbi/common/keycode_functions.c **** 
 1647               		.loc 1 220 0
 1648 001e DF91      		pop r29
 1649 0020 CF91      		pop r28
 1650               	.LVL210:
 1651 0022 1F91      		pop r17
 219:/net/depot/qmk_firmware/keyboards/splitography/keymaps/thumbi/common/keycode_functions.c **** }
 1652               		.loc 1 219 0
 1653 0024 0C94 0000 		jmp reset_tap_dance
 1654               	.LVL211:
 1655               	.L118:
 215:/net/depot/qmk_firmware/keyboards/splitography/keymaps/thumbi/common/keycode_functions.c ****   }
 1656               		.loc 1 215 0
 1657 0028 10E0      		ldi r17,0
 214:/net/depot/qmk_firmware/keyboards/splitography/keymaps/thumbi/common/keycode_functions.c ****     else for (i = 0; i < state->count; i++) { shift_key(KC_SCLN); }
 1658               		.loc 1 214 0
 1659 002a 8330      		cpi r24,lo8(3)
 1660 002c 01F4      		brne .L120
 214:/net/depot/qmk_firmware/keyboards/splitography/keymaps/thumbi/common/keycode_functions.c ****     else for (i = 0; i < state->count; i++) { shift_key(KC_SCLN); }
 1661               		.loc 1 214 0 is_stmt 0 discriminator 1
 1662 002e 80E0      		ldi r24,lo8(.LC1)
 1663 0030 90E0      		ldi r25,hi8(.LC1)
 1664 0032 0E94 0000 		call send_string
 1665               	.LVL212:
 1666 0036 00C0      		rjmp .L119
 1667               	.LVL213:
 1668               	.L121:
 215:/net/depot/qmk_firmware/keyboards/splitography/keymaps/thumbi/common/keycode_functions.c ****   }
 1669               		.loc 1 215 0 is_stmt 1 discriminator 3
 1670 0038 83E3      		ldi r24,lo8(51)
 1671 003a 90E0      		ldi r25,0
 1672 003c 0E94 0000 		call shift_key
 1673               	.LVL214:
 1674 0040 1F5F      		subi r17,lo8(-(1))
 1675               	.LVL215:
 1676               	.L120:
 215:/net/depot/qmk_firmware/keyboards/splitography/keymaps/thumbi/common/keycode_functions.c ****   }
 1677               		.loc 1 215 0 is_stmt 0 discriminator 1
 1678 0042 8881      		ld r24,Y
 1679 0044 1817      		cp r17,r24
 1680 0046 00F0      		brlo .L121
 1681 0048 00C0      		rjmp .L119
 1682               	.LVL216:
 1683               	.L117:
 217:/net/depot/qmk_firmware/keyboards/splitography/keymaps/thumbi/common/keycode_functions.c ****   else { double_max(state->count, SHIFT, KC_SCLN); }
 1684               		.loc 1 217 0 is_stmt 1
 1685 004a 9111      		cpse r25,__zero_reg__
 1686 004c 00C0      		rjmp .L122
 218:/net/depot/qmk_firmware/keyboards/splitography/keymaps/thumbi/common/keycode_functions.c ****   reset_tap_dance(state);
 1687               		.loc 1 218 0
 1688 004e 43E3      		ldi r20,lo8(51)
 1689 0050 50E0      		ldi r21,0
 1690 0052 61E0      		ldi r22,lo8(1)
 1691               	.LVL217:
 1692 0054 0E94 0000 		call double_max
 1693               	.LVL218:
 1694 0058 00C0      		rjmp .L119
 1695               		.cfi_endproc
 1696               	.LFE127:
 1698               		.section	.rodata.equal.str1.1,"aMS",@progbits,1
 1699               	.LC2:
 1700 0000 202F 3D20 		.string	" /= "
 1700      00
 1701               		.section	.text.equal,"ax",@progbits
 1702               	.global	equal
 1704               	equal:
 1705               	.LFB129:
 232:/net/depot/qmk_firmware/keyboards/splitography/keymaps/thumbi/common/keycode_functions.c ****   uint8_t i;
 1706               		.loc 1 232 0
 1707               		.cfi_startproc
 1708               	.LVL219:
 1709 0000 1F93      		push r17
 1710               	.LCFI52:
 1711               		.cfi_def_cfa_offset 3
 1712               		.cfi_offset 17, -2
 1713 0002 CF93      		push r28
 1714               	.LCFI53:
 1715               		.cfi_def_cfa_offset 4
 1716               		.cfi_offset 28, -3
 1717 0004 DF93      		push r29
 1718               	.LCFI54:
 1719               		.cfi_def_cfa_offset 5
 1720               		.cfi_offset 29, -4
 1721               	/* prologue: function */
 1722               	/* frame size = 0 */
 1723               	/* stack size = 3 */
 1724               	.L__stack_usage = 3
 1725 0006 EC01      		movw r28,r24
 234:/net/depot/qmk_firmware/keyboards/splitography/keymaps/thumbi/common/keycode_functions.c ****     if (state->pressed) { register_code(KC_EQL); }
 1726               		.loc 1 234 0
 1727 0008 8881      		ld r24,Y
 1728               	.LVL220:
 1729 000a 9F81      		ldd r25,Y+7
 1730 000c 8330      		cpi r24,lo8(3)
 1731 000e 00F0      		brlo .L125
 235:/net/depot/qmk_firmware/keyboards/splitography/keymaps/thumbi/common/keycode_functions.c ****     else if (state->count == 3) { send_string(" /= "); }
 1732               		.loc 1 235 0
 1733 0010 9923      		tst r25
 1734 0012 01F0      		breq .L126
 235:/net/depot/qmk_firmware/keyboards/splitography/keymaps/thumbi/common/keycode_functions.c ****     else if (state->count == 3) { send_string(" /= "); }
 1735               		.loc 1 235 0 is_stmt 0 discriminator 1
 1736 0014 8EE2      		ldi r24,lo8(46)
 1737 0016 0E94 0000 		call register_code
 1738               	.LVL221:
 1739               	.L127:
 241:/net/depot/qmk_firmware/keyboards/splitography/keymaps/thumbi/common/keycode_functions.c **** }
 1740               		.loc 1 241 0 is_stmt 1
 1741 001a CE01      		movw r24,r28
 1742               	/* epilogue start */
 242:/net/depot/qmk_firmware/keyboards/splitography/keymaps/thumbi/common/keycode_functions.c **** 
 1743               		.loc 1 242 0
 1744 001c DF91      		pop r29
 1745 001e CF91      		pop r28
 1746               	.LVL222:
 1747 0020 1F91      		pop r17
 241:/net/depot/qmk_firmware/keyboards/splitography/keymaps/thumbi/common/keycode_functions.c **** }
 1748               		.loc 1 241 0
 1749 0022 0C94 0000 		jmp reset_tap_dance
 1750               	.LVL223:
 1751               	.L126:
 237:/net/depot/qmk_firmware/keyboards/splitography/keymaps/thumbi/common/keycode_functions.c ****   }
 1752               		.loc 1 237 0
 1753 0026 10E0      		ldi r17,0
 236:/net/depot/qmk_firmware/keyboards/splitography/keymaps/thumbi/common/keycode_functions.c ****     else for (i = 0; i < state->count; i++) { tap_key(KC_EQL); }
 1754               		.loc 1 236 0
 1755 0028 8330      		cpi r24,lo8(3)
 1756 002a 01F4      		brne .L128
 236:/net/depot/qmk_firmware/keyboards/splitography/keymaps/thumbi/common/keycode_functions.c ****     else for (i = 0; i < state->count; i++) { tap_key(KC_EQL); }
 1757               		.loc 1 236 0 is_stmt 0 discriminator 1
 1758 002c 80E0      		ldi r24,lo8(.LC2)
 1759 002e 90E0      		ldi r25,hi8(.LC2)
 1760 0030 0E94 0000 		call send_string
 1761               	.LVL224:
 1762 0034 00C0      		rjmp .L127
 1763               	.LVL225:
 1764               	.L129:
 237:/net/depot/qmk_firmware/keyboards/splitography/keymaps/thumbi/common/keycode_functions.c ****   }
 1765               		.loc 1 237 0 is_stmt 1 discriminator 3
 1766 0036 8EE2      		ldi r24,lo8(46)
 1767 0038 90E0      		ldi r25,0
 1768 003a 0E94 0000 		call tap_key
 1769               	.LVL226:
 1770 003e 1F5F      		subi r17,lo8(-(1))
 1771               	.LVL227:
 1772               	.L128:
 237:/net/depot/qmk_firmware/keyboards/splitography/keymaps/thumbi/common/keycode_functions.c ****   }
 1773               		.loc 1 237 0 is_stmt 0 discriminator 1
 1774 0040 8881      		ld r24,Y
 1775 0042 1817      		cp r17,r24
 1776 0044 00F0      		brlo .L129
 1777 0046 00C0      		rjmp .L127
 1778               	.LVL228:
 1779               	.L125:
 239:/net/depot/qmk_firmware/keyboards/splitography/keymaps/thumbi/common/keycode_functions.c ****   else { double_max(state->count, NOSHIFT, KC_EQL); }
 1780               		.loc 1 239 0 is_stmt 1
 1781 0048 9923      		tst r25
 1782 004a 01F0      		breq .L130
 239:/net/depot/qmk_firmware/keyboards/splitography/keymaps/thumbi/common/keycode_functions.c ****   else { double_max(state->count, NOSHIFT, KC_EQL); }
 1783               		.loc 1 239 0 is_stmt 0 discriminator 1
 1784 004c 8AE0      		ldi r24,lo8(10)
 1785 004e 0E94 0000 		call layer_on
 1786               	.LVL229:
 1787 0052 00C0      		rjmp .L127
 1788               	.LVL230:
 1789               	.L130:
 240:/net/depot/qmk_firmware/keyboards/splitography/keymaps/thumbi/common/keycode_functions.c ****   reset_tap_dance(state);
 1790               		.loc 1 240 0 is_stmt 1
 1791 0054 4EE2      		ldi r20,lo8(46)
 1792 0056 50E0      		ldi r21,0
 1793 0058 60E0      		ldi r22,0
 1794               	.LVL231:
 1795 005a 0E94 0000 		call double_max
 1796               	.LVL232:
 1797 005e 00C0      		rjmp .L127
 1798               		.cfi_endproc
 1799               	.LFE129:
 1801               		.section	.rodata.greater.str1.1,"aMS",@progbits,1
 1802               	.LC3:
 1803 0000 202D 3E20 		.string	" -> "
 1803      00
 1804               		.section	.text.greater,"ax",@progbits
 1805               	.global	greater
 1807               	greater:
 1808               	.LFB131:
 251:/net/depot/qmk_firmware/keyboards/splitography/keymaps/thumbi/common/keycode_functions.c ****   uint8_t i;
 1809               		.loc 1 251 0
 1810               		.cfi_startproc
 1811               	.LVL233:
 1812 0000 1F93      		push r17
 1813               	.LCFI55:
 1814               		.cfi_def_cfa_offset 3
 1815               		.cfi_offset 17, -2
 1816 0002 CF93      		push r28
 1817               	.LCFI56:
 1818               		.cfi_def_cfa_offset 4
 1819               		.cfi_offset 28, -3
 1820 0004 DF93      		push r29
 1821               	.LCFI57:
 1822               		.cfi_def_cfa_offset 5
 1823               		.cfi_offset 29, -4
 1824               	/* prologue: function */
 1825               	/* frame size = 0 */
 1826               	/* stack size = 3 */
 1827               	.L__stack_usage = 3
 1828 0006 EC01      		movw r28,r24
 253:/net/depot/qmk_firmware/keyboards/splitography/keymaps/thumbi/common/keycode_functions.c ****     if (state->pressed) { register_shift(KC_DOT); }
 1829               		.loc 1 253 0
 1830 0008 8881      		ld r24,Y
 1831               	.LVL234:
 1832 000a 9F81      		ldd r25,Y+7
 1833 000c 8330      		cpi r24,lo8(3)
 1834 000e 00F0      		brlo .L133
 254:/net/depot/qmk_firmware/keyboards/splitography/keymaps/thumbi/common/keycode_functions.c ****     else if (state->count == 3) { send_string(" -> "); }
 1835               		.loc 1 254 0
 1836 0010 9923      		tst r25
 1837 0012 01F0      		breq .L134
 254:/net/depot/qmk_firmware/keyboards/splitography/keymaps/thumbi/common/keycode_functions.c ****     else if (state->count == 3) { send_string(" -> "); }
 1838               		.loc 1 254 0 is_stmt 0 discriminator 1
 1839 0014 87E3      		ldi r24,lo8(55)
 1840 0016 90E0      		ldi r25,0
 1841 0018 0E94 0000 		call register_shift
 1842               	.LVL235:
 1843               	.L135:
 260:/net/depot/qmk_firmware/keyboards/splitography/keymaps/thumbi/common/keycode_functions.c **** }
 1844               		.loc 1 260 0 is_stmt 1
 1845 001c CE01      		movw r24,r28
 1846               	/* epilogue start */
 261:/net/depot/qmk_firmware/keyboards/splitography/keymaps/thumbi/common/keycode_functions.c **** 
 1847               		.loc 1 261 0
 1848 001e DF91      		pop r29
 1849 0020 CF91      		pop r28
 1850               	.LVL236:
 1851 0022 1F91      		pop r17
 260:/net/depot/qmk_firmware/keyboards/splitography/keymaps/thumbi/common/keycode_functions.c **** }
 1852               		.loc 1 260 0
 1853 0024 0C94 0000 		jmp reset_tap_dance
 1854               	.LVL237:
 1855               	.L134:
 256:/net/depot/qmk_firmware/keyboards/splitography/keymaps/thumbi/common/keycode_functions.c ****   }
 1856               		.loc 1 256 0
 1857 0028 10E0      		ldi r17,0
 255:/net/depot/qmk_firmware/keyboards/splitography/keymaps/thumbi/common/keycode_functions.c ****     else for (i = 0; i < state->count; i++) { shift_key(KC_DOT); }
 1858               		.loc 1 255 0
 1859 002a 8330      		cpi r24,lo8(3)
 1860 002c 01F4      		brne .L136
 255:/net/depot/qmk_firmware/keyboards/splitography/keymaps/thumbi/common/keycode_functions.c ****     else for (i = 0; i < state->count; i++) { shift_key(KC_DOT); }
 1861               		.loc 1 255 0 is_stmt 0 discriminator 1
 1862 002e 80E0      		ldi r24,lo8(.LC3)
 1863 0030 90E0      		ldi r25,hi8(.LC3)
 1864 0032 0E94 0000 		call send_string
 1865               	.LVL238:
 1866 0036 00C0      		rjmp .L135
 1867               	.LVL239:
 1868               	.L137:
 256:/net/depot/qmk_firmware/keyboards/splitography/keymaps/thumbi/common/keycode_functions.c ****   }
 1869               		.loc 1 256 0 is_stmt 1 discriminator 3
 1870 0038 87E3      		ldi r24,lo8(55)
 1871 003a 90E0      		ldi r25,0
 1872 003c 0E94 0000 		call shift_key
 1873               	.LVL240:
 1874 0040 1F5F      		subi r17,lo8(-(1))
 1875               	.LVL241:
 1876               	.L136:
 256:/net/depot/qmk_firmware/keyboards/splitography/keymaps/thumbi/common/keycode_functions.c ****   }
 1877               		.loc 1 256 0 is_stmt 0 discriminator 1
 1878 0042 8881      		ld r24,Y
 1879 0044 1817      		cp r17,r24
 1880 0046 00F0      		brlo .L137
 1881 0048 00C0      		rjmp .L135
 1882               	.LVL242:
 1883               	.L133:
 258:/net/depot/qmk_firmware/keyboards/splitography/keymaps/thumbi/common/keycode_functions.c ****   else { double_max(state->count, SHIFT, KC_DOT); }
 1884               		.loc 1 258 0 is_stmt 1
 1885 004a 9923      		tst r25
 1886 004c 01F0      		breq .L138
 258:/net/depot/qmk_firmware/keyboards/splitography/keymaps/thumbi/common/keycode_functions.c ****   else { double_max(state->count, SHIFT, KC_DOT); }
 1887               		.loc 1 258 0 is_stmt 0 discriminator 1
 1888 004e 81EE      		ldi r24,lo8(-31)
 1889 0050 0E94 0000 		call register_code
 1890               	.LVL243:
 1891 0054 00C0      		rjmp .L135
 1892               	.LVL244:
 1893               	.L138:
 259:/net/depot/qmk_firmware/keyboards/splitography/keymaps/thumbi/common/keycode_functions.c ****   reset_tap_dance(state);
 1894               		.loc 1 259 0 is_stmt 1
 1895 0056 47E3      		ldi r20,lo8(55)
 1896 0058 50E0      		ldi r21,0
 1897 005a 61E0      		ldi r22,lo8(1)
 1898               	.LVL245:
 1899 005c 0E94 0000 		call double_max
 1900               	.LVL246:
 1901 0060 00C0      		rjmp .L135
 1902               		.cfi_endproc
 1903               	.LFE131:
 1905               		.section	.rodata.lesser.str1.1,"aMS",@progbits,1
 1906               	.LC4:
 1907 0000 203C 2D20 		.string	" <- "
 1907      00
 1908               		.section	.text.lesser,"ax",@progbits
 1909               	.global	lesser
 1911               	lesser:
 1912               	.LFB133:
 269:/net/depot/qmk_firmware/keyboards/splitography/keymaps/thumbi/common/keycode_functions.c ****   uint8_t i;
 1913               		.loc 1 269 0
 1914               		.cfi_startproc
 1915               	.LVL247:
 1916 0000 1F93      		push r17
 1917               	.LCFI58:
 1918               		.cfi_def_cfa_offset 3
 1919               		.cfi_offset 17, -2
 1920 0002 CF93      		push r28
 1921               	.LCFI59:
 1922               		.cfi_def_cfa_offset 4
 1923               		.cfi_offset 28, -3
 1924 0004 DF93      		push r29
 1925               	.LCFI60:
 1926               		.cfi_def_cfa_offset 5
 1927               		.cfi_offset 29, -4
 1928               	/* prologue: function */
 1929               	/* frame size = 0 */
 1930               	/* stack size = 3 */
 1931               	.L__stack_usage = 3
 1932 0006 EC01      		movw r28,r24
 271:/net/depot/qmk_firmware/keyboards/splitography/keymaps/thumbi/common/keycode_functions.c ****     if (state->pressed) { register_shift(KC_COMM); }
 1933               		.loc 1 271 0
 1934 0008 8881      		ld r24,Y
 1935               	.LVL248:
 1936 000a 9F81      		ldd r25,Y+7
 1937 000c 8330      		cpi r24,lo8(3)
 1938 000e 00F0      		brlo .L141
 272:/net/depot/qmk_firmware/keyboards/splitography/keymaps/thumbi/common/keycode_functions.c ****     else if (state->count == 3) { send_string(" <- "); }
 1939               		.loc 1 272 0
 1940 0010 9923      		tst r25
 1941 0012 01F0      		breq .L142
 272:/net/depot/qmk_firmware/keyboards/splitography/keymaps/thumbi/common/keycode_functions.c ****     else if (state->count == 3) { send_string(" <- "); }
 1942               		.loc 1 272 0 is_stmt 0 discriminator 1
 1943 0014 86E3      		ldi r24,lo8(54)
 1944 0016 90E0      		ldi r25,0
 1945 0018 0E94 0000 		call register_shift
 1946               	.LVL249:
 1947               	.L143:
 278:/net/depot/qmk_firmware/keyboards/splitography/keymaps/thumbi/common/keycode_functions.c **** }
 1948               		.loc 1 278 0 is_stmt 1
 1949 001c CE01      		movw r24,r28
 1950               	/* epilogue start */
 279:/net/depot/qmk_firmware/keyboards/splitography/keymaps/thumbi/common/keycode_functions.c **** 
 1951               		.loc 1 279 0
 1952 001e DF91      		pop r29
 1953 0020 CF91      		pop r28
 1954               	.LVL250:
 1955 0022 1F91      		pop r17
 278:/net/depot/qmk_firmware/keyboards/splitography/keymaps/thumbi/common/keycode_functions.c **** }
 1956               		.loc 1 278 0
 1957 0024 0C94 0000 		jmp reset_tap_dance
 1958               	.LVL251:
 1959               	.L142:
 274:/net/depot/qmk_firmware/keyboards/splitography/keymaps/thumbi/common/keycode_functions.c ****   }
 1960               		.loc 1 274 0
 1961 0028 10E0      		ldi r17,0
 273:/net/depot/qmk_firmware/keyboards/splitography/keymaps/thumbi/common/keycode_functions.c ****     else for (i = 0; i < state->count; i++) { shift_key(KC_COMM); }
 1962               		.loc 1 273 0
 1963 002a 8330      		cpi r24,lo8(3)
 1964 002c 01F4      		brne .L144
 273:/net/depot/qmk_firmware/keyboards/splitography/keymaps/thumbi/common/keycode_functions.c ****     else for (i = 0; i < state->count; i++) { shift_key(KC_COMM); }
 1965               		.loc 1 273 0 is_stmt 0 discriminator 1
 1966 002e 80E0      		ldi r24,lo8(.LC4)
 1967 0030 90E0      		ldi r25,hi8(.LC4)
 1968 0032 0E94 0000 		call send_string
 1969               	.LVL252:
 1970 0036 00C0      		rjmp .L143
 1971               	.LVL253:
 1972               	.L145:
 274:/net/depot/qmk_firmware/keyboards/splitography/keymaps/thumbi/common/keycode_functions.c ****   }
 1973               		.loc 1 274 0 is_stmt 1 discriminator 3
 1974 0038 86E3      		ldi r24,lo8(54)
 1975 003a 90E0      		ldi r25,0
 1976 003c 0E94 0000 		call shift_key
 1977               	.LVL254:
 1978 0040 1F5F      		subi r17,lo8(-(1))
 1979               	.LVL255:
 1980               	.L144:
 274:/net/depot/qmk_firmware/keyboards/splitography/keymaps/thumbi/common/keycode_functions.c ****   }
 1981               		.loc 1 274 0 is_stmt 0 discriminator 1
 1982 0042 8881      		ld r24,Y
 1983 0044 1817      		cp r17,r24
 1984 0046 00F0      		brlo .L145
 1985 0048 00C0      		rjmp .L143
 1986               	.LVL256:
 1987               	.L141:
 276:/net/depot/qmk_firmware/keyboards/splitography/keymaps/thumbi/common/keycode_functions.c ****   else { double_max(state->count, SHIFT, KC_COMM); }
 1988               		.loc 1 276 0 is_stmt 1
 1989 004a 9923      		tst r25
 1990 004c 01F0      		breq .L146
 276:/net/depot/qmk_firmware/keyboards/splitography/keymaps/thumbi/common/keycode_functions.c ****   else { double_max(state->count, SHIFT, KC_COMM); }
 1991               		.loc 1 276 0 is_stmt 0 discriminator 1
 1992 004e 80EE      		ldi r24,lo8(-32)
 1993 0050 0E94 0000 		call register_code
 1994               	.LVL257:
 1995 0054 00C0      		rjmp .L143
 1996               	.LVL258:
 1997               	.L146:
 277:/net/depot/qmk_firmware/keyboards/splitography/keymaps/thumbi/common/keycode_functions.c ****   reset_tap_dance(state);
 1998               		.loc 1 277 0 is_stmt 1
 1999 0056 46E3      		ldi r20,lo8(54)
 2000 0058 50E0      		ldi r21,0
 2001 005a 61E0      		ldi r22,lo8(1)
 2002               	.LVL259:
 2003 005c 0E94 0000 		call double_max
 2004               	.LVL260:
 2005 0060 00C0      		rjmp .L143
 2006               		.cfi_endproc
 2007               	.LFE133:
 2009               		.section	.text.thumb_roll,"ax",@progbits
 2010               	.global	thumb_roll
 2012               	thumb_roll:
 2013               	.LFB142:
 345:/net/depot/qmk_firmware/keyboards/splitography/keymaps/thumbi/common/keycode_functions.c **** 
 346:/net/depot/qmk_firmware/keyboards/splitography/keymaps/thumbi/common/keycode_functions.c **** // ................................................................... Tap Dance
 347:/net/depot/qmk_firmware/keyboards/splitography/keymaps/thumbi/common/keycode_functions.c **** 
 348:/net/depot/qmk_firmware/keyboards/splitography/keymaps/thumbi/common/keycode_functions.c **** qk_tap_dance_action_t tap_dance_actions[] = {
 349:/net/depot/qmk_firmware/keyboards/splitography/keymaps/thumbi/common/keycode_functions.c ****   [_ASTR] = ACTION_TAP_DANCE_FN         (asterisk)
 350:/net/depot/qmk_firmware/keyboards/splitography/keymaps/thumbi/common/keycode_functions.c ****  ,[_COLN] = ACTION_TAP_DANCE_FN_ADVANCED(NULL, colon, colon_reset)
 351:/net/depot/qmk_firmware/keyboards/splitography/keymaps/thumbi/common/keycode_functions.c ****  ,[_COMM] = ACTION_TAP_DANCE_FN         (comma)
 352:/net/depot/qmk_firmware/keyboards/splitography/keymaps/thumbi/common/keycode_functions.c ****  ,[_DOT]  = ACTION_TAP_DANCE_FN         (dot)
 353:/net/depot/qmk_firmware/keyboards/splitography/keymaps/thumbi/common/keycode_functions.c ****  ,[_ENT]  = ACTION_TAP_DANCE_FN_ADVANCED(NULL, enter, enter_reset)
 354:/net/depot/qmk_firmware/keyboards/splitography/keymaps/thumbi/common/keycode_functions.c ****  ,[_EQL]  = ACTION_TAP_DANCE_FN_ADVANCED(NULL, equal, equal_reset)
 355:/net/depot/qmk_firmware/keyboards/splitography/keymaps/thumbi/common/keycode_functions.c ****  ,[_GT]   = ACTION_TAP_DANCE_FN_ADVANCED(NULL, greater, greater_reset)
 356:/net/depot/qmk_firmware/keyboards/splitography/keymaps/thumbi/common/keycode_functions.c ****  ,[_LT]   = ACTION_TAP_DANCE_FN_ADVANCED(NULL, lesser, lesser_reset)
 357:/net/depot/qmk_firmware/keyboards/splitography/keymaps/thumbi/common/keycode_functions.c ****  ,[_PRIV] = ACTION_TAP_DANCE_FN         (private)
 358:/net/depot/qmk_firmware/keyboards/splitography/keymaps/thumbi/common/keycode_functions.c ****  ,[_SEND] = ACTION_TAP_DANCE_FN         (send)
 359:/net/depot/qmk_firmware/keyboards/splitography/keymaps/thumbi/common/keycode_functions.c ****  ,[_SPC]  = ACTION_TAP_DANCE_FN_ADVANCED(NULL, space, space_reset)
 360:/net/depot/qmk_firmware/keyboards/splitography/keymaps/thumbi/common/keycode_functions.c ****  ,[_TILD] = ACTION_TAP_DANCE_FN_ADVANCED(NULL, tilde, tilde_reset)
 361:/net/depot/qmk_firmware/keyboards/splitography/keymaps/thumbi/common/keycode_functions.c **** };
 362:/net/depot/qmk_firmware/keyboards/splitography/keymaps/thumbi/common/keycode_functions.c **** 
 363:/net/depot/qmk_firmware/keyboards/splitography/keymaps/thumbi/common/keycode_functions.c **** // .............................................................. Dynamic Layers
 364:/net/depot/qmk_firmware/keyboards/splitography/keymaps/thumbi/common/keycode_functions.c **** 
 365:/net/depot/qmk_firmware/keyboards/splitography/keymaps/thumbi/common/keycode_functions.c **** #define        LEFT    1
 366:/net/depot/qmk_firmware/keyboards/splitography/keymaps/thumbi/common/keycode_functions.c **** #define        RIGHT   2
 367:/net/depot/qmk_firmware/keyboards/splitography/keymaps/thumbi/common/keycode_functions.c **** static uint8_t thumb = 0;
 368:/net/depot/qmk_firmware/keyboards/splitography/keymaps/thumbi/common/keycode_functions.c **** 
 369:/net/depot/qmk_firmware/keyboards/splitography/keymaps/thumbi/common/keycode_functions.c **** // rolling thumb combinations, see process_record_user()
 370:/net/depot/qmk_firmware/keyboards/splitography/keymaps/thumbi/common/keycode_functions.c **** // up,   up   -> _BASE
 371:/net/depot/qmk_firmware/keyboards/splitography/keymaps/thumbi/common/keycode_functions.c **** // up,   down -> _RSYMBOL
 372:/net/depot/qmk_firmware/keyboards/splitography/keymaps/thumbi/common/keycode_functions.c **** // down, up   -> _LSYMBOL
 373:/net/depot/qmk_firmware/keyboards/splitography/keymaps/thumbi/common/keycode_functions.c **** // down, down -> _MOUSE                     // see layer keycodes that raise mouse layer
 374:/net/depot/qmk_firmware/keyboards/splitography/keymaps/thumbi/common/keycode_functions.c **** 
 375:/net/depot/qmk_firmware/keyboards/splitography/keymaps/thumbi/common/keycode_functions.c **** static uint8_t overlayer = 0;
 376:/net/depot/qmk_firmware/keyboards/splitography/keymaps/thumbi/common/keycode_functions.c **** 
 377:/net/depot/qmk_firmware/keyboards/splitography/keymaps/thumbi/common/keycode_functions.c **** // seamlessly switch left / right thumb layer combinations
 378:/net/depot/qmk_firmware/keyboards/splitography/keymaps/thumbi/common/keycode_functions.c **** void thumb_roll(keyrecord_t *record, uint8_t side, uint8_t shift, uint16_t keycode, uint8_t thumb_d
 379:/net/depot/qmk_firmware/keyboards/splitography/keymaps/thumbi/common/keycode_functions.c **** {
 2014               		.loc 1 379 0
 2015               		.cfi_startproc
 2016               	.LVL261:
 2017 0000 CF92      		push r12
 2018               	.LCFI61:
 2019               		.cfi_def_cfa_offset 3
 2020               		.cfi_offset 12, -2
 2021 0002 DF92      		push r13
 2022               	.LCFI62:
 2023               		.cfi_def_cfa_offset 4
 2024               		.cfi_offset 13, -3
 2025 0004 EF92      		push r14
 2026               	.LCFI63:
 2027               		.cfi_def_cfa_offset 5
 2028               		.cfi_offset 14, -4
 2029 0006 0F93      		push r16
 2030               	.LCFI64:
 2031               		.cfi_def_cfa_offset 6
 2032               		.cfi_offset 16, -5
 2033 0008 CF93      		push r28
 2034               	.LCFI65:
 2035               		.cfi_def_cfa_offset 7
 2036               		.cfi_offset 28, -6
 2037 000a DF93      		push r29
 2038               	.LCFI66:
 2039               		.cfi_def_cfa_offset 8
 2040               		.cfi_offset 29, -7
 2041               	/* prologue: function */
 2042               	/* frame size = 0 */
 2043               	/* stack size = 6 */
 2044               	.L__stack_usage = 6
 2045 000c C62F      		mov r28,r22
 2046 000e D42F      		mov r29,r20
 2047 0010 6901      		movw r12,r18
 380:/net/depot/qmk_firmware/keyboards/splitography/keymaps/thumbi/common/keycode_functions.c ****   if (record->event.pressed) {
 2048               		.loc 1 380 0
 2049 0012 FC01      		movw r30,r24
 2050 0014 8281      		ldd r24,Z+2
 2051               	.LVL262:
 2052 0016 8823      		tst r24
 2053 0018 01F0      		breq .L149
 381:/net/depot/qmk_firmware/keyboards/splitography/keymaps/thumbi/common/keycode_functions.c ****     layer_on(thumb_dn_layer);
 2054               		.loc 1 381 0
 2055 001a 802F      		mov r24,r16
 2056 001c 0E94 0000 		call layer_on
 2057               	.LVL263:
 382:/net/depot/qmk_firmware/keyboards/splitography/keymaps/thumbi/common/keycode_functions.c ****     key_timer  = timer_read();
 2058               		.loc 1 382 0
 2059 0020 0E94 0000 		call timer_read
 2060               	.LVL264:
 2061 0024 9093 0000 		sts key_timer+1,r25
 2062 0028 8093 0000 		sts key_timer,r24
 383:/net/depot/qmk_firmware/keyboards/splitography/keymaps/thumbi/common/keycode_functions.c ****     thumb     |= side;
 2063               		.loc 1 383 0
 2064 002c 8091 0000 		lds r24,thumb
 2065 0030 C82B      		or r28,r24
 2066               	.LVL265:
 2067 0032 C093 0000 		sts thumb,r28
 2068               	.L148:
 2069               	/* epilogue start */
 384:/net/depot/qmk_firmware/keyboards/splitography/keymaps/thumbi/common/keycode_functions.c ****   }
 385:/net/depot/qmk_firmware/keyboards/splitography/keymaps/thumbi/common/keycode_functions.c ****   else {
 386:/net/depot/qmk_firmware/keyboards/splitography/keymaps/thumbi/common/keycode_functions.c ****     if (biton32(layer_state) == _MOUSE) { layer_off(_MOUSE); }  // both thumbs needed
 387:/net/depot/qmk_firmware/keyboards/splitography/keymaps/thumbi/common/keycode_functions.c ****     else if (thumb_dn_layer != _MOUSE) { layer_off(thumb_dn_layer); }
 388:/net/depot/qmk_firmware/keyboards/splitography/keymaps/thumbi/common/keycode_functions.c ****     if (!key_press(shift, keycode)) {
 389:/net/depot/qmk_firmware/keyboards/splitography/keymaps/thumbi/common/keycode_functions.c ****       // release any opposing thumb_roll() layer
 390:/net/depot/qmk_firmware/keyboards/splitography/keymaps/thumbi/common/keycode_functions.c ****       if (overlayer) {
 391:/net/depot/qmk_firmware/keyboards/splitography/keymaps/thumbi/common/keycode_functions.c ****         layer_off(overlayer);
 392:/net/depot/qmk_firmware/keyboards/splitography/keymaps/thumbi/common/keycode_functions.c ****         overlayer = 0;
 393:/net/depot/qmk_firmware/keyboards/splitography/keymaps/thumbi/common/keycode_functions.c ****       }
 394:/net/depot/qmk_firmware/keyboards/splitography/keymaps/thumbi/common/keycode_functions.c ****       // opposite thumb down? see left right combination layer table above
 395:/net/depot/qmk_firmware/keyboards/splitography/keymaps/thumbi/common/keycode_functions.c ****       if (thumb & (side == LEFT ? RIGHT : LEFT)) {
 396:/net/depot/qmk_firmware/keyboards/splitography/keymaps/thumbi/common/keycode_functions.c ****         layer_on(thumb_up_layer);
 397:/net/depot/qmk_firmware/keyboards/splitography/keymaps/thumbi/common/keycode_functions.c ****         overlayer = thumb_up_layer;
 398:/net/depot/qmk_firmware/keyboards/splitography/keymaps/thumbi/common/keycode_functions.c ****       }
 399:/net/depot/qmk_firmware/keyboards/splitography/keymaps/thumbi/common/keycode_functions.c ****     }
 400:/net/depot/qmk_firmware/keyboards/splitography/keymaps/thumbi/common/keycode_functions.c ****     clear_mods();
 401:/net/depot/qmk_firmware/keyboards/splitography/keymaps/thumbi/common/keycode_functions.c ****     thumb     &= ~side;
 402:/net/depot/qmk_firmware/keyboards/splitography/keymaps/thumbi/common/keycode_functions.c ****     key_timer  = 0;
 403:/net/depot/qmk_firmware/keyboards/splitography/keymaps/thumbi/common/keycode_functions.c ****   }
 404:/net/depot/qmk_firmware/keyboards/splitography/keymaps/thumbi/common/keycode_functions.c **** }
 2070               		.loc 1 404 0
 2071 0036 DF91      		pop r29
 2072               	.LVL266:
 2073 0038 CF91      		pop r28
 2074 003a 0F91      		pop r16
 2075               	.LVL267:
 2076 003c EF90      		pop r14
 2077               	.LVL268:
 2078 003e DF90      		pop r13
 2079 0040 CF90      		pop r12
 2080               	.LVL269:
 2081 0042 0895      		ret
 2082               	.LVL270:
 2083               	.L149:
 386:/net/depot/qmk_firmware/keyboards/splitography/keymaps/thumbi/common/keycode_functions.c ****     else if (thumb_dn_layer != _MOUSE) { layer_off(thumb_dn_layer); }
 2084               		.loc 1 386 0
 2085 0044 6091 0000 		lds r22,layer_state
 2086 0048 7091 0000 		lds r23,layer_state+1
 2087 004c 8091 0000 		lds r24,layer_state+2
 2088 0050 9091 0000 		lds r25,layer_state+3
 2089               	.LVL271:
 2090 0054 0E94 0000 		call biton32
 2091               	.LVL272:
 2092 0058 8930      		cpi r24,lo8(9)
 2093 005a 01F4      		brne .L151
 2094               	.L168:
 387:/net/depot/qmk_firmware/keyboards/splitography/keymaps/thumbi/common/keycode_functions.c ****     if (!key_press(shift, keycode)) {
 2095               		.loc 1 387 0 discriminator 1
 2096 005c 0E94 0000 		call layer_off
 2097               	.LVL273:
 2098               	.L152:
 388:/net/depot/qmk_firmware/keyboards/splitography/keymaps/thumbi/common/keycode_functions.c ****       // release any opposing thumb_roll() layer
 2099               		.loc 1 388 0
 2100 0060 B601      		movw r22,r12
 2101 0062 8D2F      		mov r24,r29
 2102 0064 0E94 0000 		call key_press
 2103               	.LVL274:
 2104 0068 8111      		cpse r24,__zero_reg__
 2105 006a 00C0      		rjmp .L154
 390:/net/depot/qmk_firmware/keyboards/splitography/keymaps/thumbi/common/keycode_functions.c ****         layer_off(overlayer);
 2106               		.loc 1 390 0
 2107 006c 8091 0000 		lds r24,overlayer
 2108 0070 8823      		tst r24
 2109 0072 01F0      		breq .L155
 391:/net/depot/qmk_firmware/keyboards/splitography/keymaps/thumbi/common/keycode_functions.c ****         overlayer = 0;
 2110               		.loc 1 391 0
 2111 0074 0E94 0000 		call layer_off
 2112               	.LVL275:
 392:/net/depot/qmk_firmware/keyboards/splitography/keymaps/thumbi/common/keycode_functions.c ****       }
 2113               		.loc 1 392 0
 2114 0078 1092 0000 		sts overlayer,__zero_reg__
 2115               	.L155:
 395:/net/depot/qmk_firmware/keyboards/splitography/keymaps/thumbi/common/keycode_functions.c ****         layer_on(thumb_up_layer);
 2116               		.loc 1 395 0
 2117 007c 8091 0000 		lds r24,thumb
 2118 0080 90E0      		ldi r25,0
 2119 0082 21E0      		ldi r18,lo8(1)
 2120 0084 30E0      		ldi r19,0
 2121 0086 C130      		cpi r28,lo8(1)
 2122 0088 01F4      		brne .L156
 2123 008a 22E0      		ldi r18,lo8(2)
 2124 008c 30E0      		ldi r19,0
 2125               	.L156:
 395:/net/depot/qmk_firmware/keyboards/splitography/keymaps/thumbi/common/keycode_functions.c ****         layer_on(thumb_up_layer);
 2126               		.loc 1 395 0 is_stmt 0 discriminator 4
 2127 008e 8223      		and r24,r18
 2128 0090 9323      		and r25,r19
 2129 0092 892B      		or r24,r25
 2130 0094 01F0      		breq .L154
 396:/net/depot/qmk_firmware/keyboards/splitography/keymaps/thumbi/common/keycode_functions.c ****         overlayer = thumb_up_layer;
 2131               		.loc 1 396 0 is_stmt 1
 2132 0096 8E2D      		mov r24,r14
 2133 0098 0E94 0000 		call layer_on
 2134               	.LVL276:
 397:/net/depot/qmk_firmware/keyboards/splitography/keymaps/thumbi/common/keycode_functions.c ****       }
 2135               		.loc 1 397 0
 2136 009c E092 0000 		sts overlayer,r14
 2137               	.L154:
 400:/net/depot/qmk_firmware/keyboards/splitography/keymaps/thumbi/common/keycode_functions.c ****     thumb     &= ~side;
 2138               		.loc 1 400 0
 2139 00a0 0E94 0000 		call clear_mods
 2140               	.LVL277:
 401:/net/depot/qmk_firmware/keyboards/splitography/keymaps/thumbi/common/keycode_functions.c ****     key_timer  = 0;
 2141               		.loc 1 401 0
 2142 00a4 C095      		com r28
 2143               	.LVL278:
 2144 00a6 8091 0000 		lds r24,thumb
 2145 00aa C823      		and r28,r24
 2146               	.LVL279:
 2147 00ac C093 0000 		sts thumb,r28
 402:/net/depot/qmk_firmware/keyboards/splitography/keymaps/thumbi/common/keycode_functions.c ****   }
 2148               		.loc 1 402 0
 2149 00b0 1092 0000 		sts key_timer+1,__zero_reg__
 2150 00b4 1092 0000 		sts key_timer,__zero_reg__
 2151               		.loc 1 404 0
 2152 00b8 00C0      		rjmp .L148
 2153               	.LVL280:
 2154               	.L151:
 387:/net/depot/qmk_firmware/keyboards/splitography/keymaps/thumbi/common/keycode_functions.c ****     if (!key_press(shift, keycode)) {
 2155               		.loc 1 387 0
 2156 00ba 0930      		cpi r16,lo8(9)
 2157 00bc 01F0      		breq .L152
 387:/net/depot/qmk_firmware/keyboards/splitography/keymaps/thumbi/common/keycode_functions.c ****     if (!key_press(shift, keycode)) {
 2158               		.loc 1 387 0 is_stmt 0 discriminator 1
 2159 00be 802F      		mov r24,r16
 2160 00c0 00C0      		rjmp .L168
 2161               		.cfi_endproc
 2162               	.LFE142:
 2164               		.section	.text.lt,"ax",@progbits
 2165               	.global	lt
 2167               	lt:
 2168               	.LFB143:
 405:/net/depot/qmk_firmware/keyboards/splitography/keymaps/thumbi/common/keycode_functions.c **** 
 406:/net/depot/qmk_firmware/keyboards/splitography/keymaps/thumbi/common/keycode_functions.c **** // #ifdef STENO_ENABLE
 407:/net/depot/qmk_firmware/keyboards/splitography/keymaps/thumbi/common/keycode_functions.c **** // // LT for steno keycode
 408:/net/depot/qmk_firmware/keyboards/splitography/keymaps/thumbi/common/keycode_functions.c **** // void stn_layer(keyrecord_t *record, uint16_t keycode, uint8_t layer)
 409:/net/depot/qmk_firmware/keyboards/splitography/keymaps/thumbi/common/keycode_functions.c **** // {
 410:/net/depot/qmk_firmware/keyboards/splitography/keymaps/thumbi/common/keycode_functions.c **** //   if (record->event.pressed) {
 411:/net/depot/qmk_firmware/keyboards/splitography/keymaps/thumbi/common/keycode_functions.c **** //     key_timer = timer_read();
 412:/net/depot/qmk_firmware/keyboards/splitography/keymaps/thumbi/common/keycode_functions.c **** //     if (keycode) { process_steno(keycode, record); }
 413:/net/depot/qmk_firmware/keyboards/splitography/keymaps/thumbi/common/keycode_functions.c **** //     layer_on(layer);
 414:/net/depot/qmk_firmware/keyboards/splitography/keymaps/thumbi/common/keycode_functions.c **** //   }
 415:/net/depot/qmk_firmware/keyboards/splitography/keymaps/thumbi/common/keycode_functions.c **** //   else {
 416:/net/depot/qmk_firmware/keyboards/splitography/keymaps/thumbi/common/keycode_functions.c **** //     layer_off(layer);
 417:/net/depot/qmk_firmware/keyboards/splitography/keymaps/thumbi/common/keycode_functions.c **** //     if (keycode) {
 418:/net/depot/qmk_firmware/keyboards/splitography/keymaps/thumbi/common/keycode_functions.c **** //       // clear pressed state (request push of updated) process_steno.c and .h
 419:/net/depot/qmk_firmware/keyboards/splitography/keymaps/thumbi/common/keycode_functions.c **** //       if (timer_elapsed(key_timer) < TAPPING_TERM) { process_steno(keycode, record); }
 420:/net/depot/qmk_firmware/keyboards/splitography/keymaps/thumbi/common/keycode_functions.c **** //       else                                         { steno_clear_state(); }
 421:/net/depot/qmk_firmware/keyboards/splitography/keymaps/thumbi/common/keycode_functions.c **** //     }
 422:/net/depot/qmk_firmware/keyboards/splitography/keymaps/thumbi/common/keycode_functions.c **** //     key_timer = 0;
 423:/net/depot/qmk_firmware/keyboards/splitography/keymaps/thumbi/common/keycode_functions.c **** //   }
 424:/net/depot/qmk_firmware/keyboards/splitography/keymaps/thumbi/common/keycode_functions.c **** // }
 425:/net/depot/qmk_firmware/keyboards/splitography/keymaps/thumbi/common/keycode_functions.c **** // #endif
 426:/net/depot/qmk_firmware/keyboards/splitography/keymaps/thumbi/common/keycode_functions.c **** 
 427:/net/depot/qmk_firmware/keyboards/splitography/keymaps/thumbi/common/keycode_functions.c **** // extended LT macro for [shift]keycode [modifier]layer
 428:/net/depot/qmk_firmware/keyboards/splitography/keymaps/thumbi/common/keycode_functions.c **** void lt(keyrecord_t *record, uint8_t shift, uint16_t keycode, uint16_t modifier, uint8_t layer)
 429:/net/depot/qmk_firmware/keyboards/splitography/keymaps/thumbi/common/keycode_functions.c **** {
 2169               		.loc 1 429 0 is_stmt 1
 2170               		.cfi_startproc
 2171               	.LVL281:
 2172 0000 EF92      		push r14
 2173               	.LCFI67:
 2174               		.cfi_def_cfa_offset 3
 2175               		.cfi_offset 14, -2
 2176 0002 FF92      		push r15
 2177               	.LCFI68:
 2178               		.cfi_def_cfa_offset 4
 2179               		.cfi_offset 15, -3
 2180 0004 0F93      		push r16
 2181               	.LCFI69:
 2182               		.cfi_def_cfa_offset 5
 2183               		.cfi_offset 16, -4
 2184 0006 1F93      		push r17
 2185               	.LCFI70:
 2186               		.cfi_def_cfa_offset 6
 2187               		.cfi_offset 17, -5
 2188 0008 CF93      		push r28
 2189               	.LCFI71:
 2190               		.cfi_def_cfa_offset 7
 2191               		.cfi_offset 28, -6
 2192 000a DF93      		push r29
 2193               	.LCFI72:
 2194               		.cfi_def_cfa_offset 8
 2195               		.cfi_offset 29, -7
 2196               	/* prologue: function */
 2197               	/* frame size = 0 */
 2198               	/* stack size = 6 */
 2199               	.L__stack_usage = 6
 2200 000c 162F      		mov r17,r22
 2201 000e 7A01      		movw r14,r20
 2202 0010 E901      		movw r28,r18
 430:/net/depot/qmk_firmware/keyboards/splitography/keymaps/thumbi/common/keycode_functions.c ****   if (record->event.pressed) {
 2203               		.loc 1 430 0
 2204 0012 FC01      		movw r30,r24
 2205 0014 8281      		ldd r24,Z+2
 2206               	.LVL282:
 2207 0016 8823      		tst r24
 2208 0018 01F0      		breq .L170
 431:/net/depot/qmk_firmware/keyboards/splitography/keymaps/thumbi/common/keycode_functions.c ****     key_timer = timer_read();
 2209               		.loc 1 431 0
 2210 001a 0E94 0000 		call timer_read
 2211               	.LVL283:
 2212 001e 9093 0000 		sts key_timer+1,r25
 2213 0022 8093 0000 		sts key_timer,r24
 432:/net/depot/qmk_firmware/keyboards/splitography/keymaps/thumbi/common/keycode_functions.c ****     if (modifier) { register_code(modifier); }
 2214               		.loc 1 432 0
 2215 0026 2097      		sbiw r28,0
 2216 0028 01F0      		breq .L171
 2217               		.loc 1 432 0 is_stmt 0 discriminator 1
 2218 002a 8C2F      		mov r24,r28
 2219 002c 0E94 0000 		call register_code
 2220               	.LVL284:
 2221               	.L171:
 433:/net/depot/qmk_firmware/keyboards/splitography/keymaps/thumbi/common/keycode_functions.c ****     layer_on(layer);
 2222               		.loc 1 433 0 is_stmt 1
 2223 0030 802F      		mov r24,r16
 2224               	/* epilogue start */
 434:/net/depot/qmk_firmware/keyboards/splitography/keymaps/thumbi/common/keycode_functions.c ****   }
 435:/net/depot/qmk_firmware/keyboards/splitography/keymaps/thumbi/common/keycode_functions.c ****   else {
 436:/net/depot/qmk_firmware/keyboards/splitography/keymaps/thumbi/common/keycode_functions.c ****     if (modifier) { unregister_code(modifier); }
 437:/net/depot/qmk_firmware/keyboards/splitography/keymaps/thumbi/common/keycode_functions.c ****     layer_off(layer);
 438:/net/depot/qmk_firmware/keyboards/splitography/keymaps/thumbi/common/keycode_functions.c ****     // for shifted keycodes, hence, LT_SHIFT
 439:/net/depot/qmk_firmware/keyboards/splitography/keymaps/thumbi/common/keycode_functions.c ****     key_press(shift, keycode);
 440:/net/depot/qmk_firmware/keyboards/splitography/keymaps/thumbi/common/keycode_functions.c ****     clear_mods();
 441:/net/depot/qmk_firmware/keyboards/splitography/keymaps/thumbi/common/keycode_functions.c ****     key_timer = 0;
 442:/net/depot/qmk_firmware/keyboards/splitography/keymaps/thumbi/common/keycode_functions.c ****   }
 443:/net/depot/qmk_firmware/keyboards/splitography/keymaps/thumbi/common/keycode_functions.c **** }
 2225               		.loc 1 443 0
 2226 0032 DF91      		pop r29
 2227 0034 CF91      		pop r28
 2228               	.LVL285:
 2229 0036 1F91      		pop r17
 2230               	.LVL286:
 2231 0038 0F91      		pop r16
 2232               	.LVL287:
 2233 003a FF90      		pop r15
 2234 003c EF90      		pop r14
 2235               	.LVL288:
 433:/net/depot/qmk_firmware/keyboards/splitography/keymaps/thumbi/common/keycode_functions.c ****     layer_on(layer);
 2236               		.loc 1 433 0
 2237 003e 0C94 0000 		jmp layer_on
 2238               	.LVL289:
 2239               	.L170:
 436:/net/depot/qmk_firmware/keyboards/splitography/keymaps/thumbi/common/keycode_functions.c ****     layer_off(layer);
 2240               		.loc 1 436 0
 2241 0042 CD2B      		or r28,r29
 2242 0044 01F0      		breq .L172
 436:/net/depot/qmk_firmware/keyboards/splitography/keymaps/thumbi/common/keycode_functions.c ****     layer_off(layer);
 2243               		.loc 1 436 0 is_stmt 0 discriminator 1
 2244 0046 822F      		mov r24,r18
 2245 0048 0E94 0000 		call unregister_code
 2246               	.LVL290:
 2247               	.L172:
 437:/net/depot/qmk_firmware/keyboards/splitography/keymaps/thumbi/common/keycode_functions.c ****     // for shifted keycodes, hence, LT_SHIFT
 2248               		.loc 1 437 0 is_stmt 1
 2249 004c 802F      		mov r24,r16
 2250 004e 0E94 0000 		call layer_off
 2251               	.LVL291:
 439:/net/depot/qmk_firmware/keyboards/splitography/keymaps/thumbi/common/keycode_functions.c ****     clear_mods();
 2252               		.loc 1 439 0
 2253 0052 B701      		movw r22,r14
 2254 0054 812F      		mov r24,r17
 2255 0056 0E94 0000 		call key_press
 2256               	.LVL292:
 440:/net/depot/qmk_firmware/keyboards/splitography/keymaps/thumbi/common/keycode_functions.c ****     key_timer = 0;
 2257               		.loc 1 440 0
 2258 005a 0E94 0000 		call clear_mods
 2259               	.LVL293:
 441:/net/depot/qmk_firmware/keyboards/splitography/keymaps/thumbi/common/keycode_functions.c ****   }
 2260               		.loc 1 441 0
 2261 005e 1092 0000 		sts key_timer+1,__zero_reg__
 2262 0062 1092 0000 		sts key_timer,__zero_reg__
 2263               	/* epilogue start */
 2264               		.loc 1 443 0
 2265 0066 DF91      		pop r29
 2266 0068 CF91      		pop r28
 2267               	.LVL294:
 2268 006a 1F91      		pop r17
 2269               	.LVL295:
 2270 006c 0F91      		pop r16
 2271               	.LVL296:
 2272 006e FF90      		pop r15
 2273 0070 EF90      		pop r14
 2274               	.LVL297:
 2275 0072 0895      		ret
 2276               		.cfi_endproc
 2277               	.LFE143:
 2279               		.section	.text.lt_shift,"ax",@progbits
 2280               	.global	lt_shift
 2282               	lt_shift:
 2283               	.LFB144:
 444:/net/depot/qmk_firmware/keyboards/splitography/keymaps/thumbi/common/keycode_functions.c **** 
 445:/net/depot/qmk_firmware/keyboards/splitography/keymaps/thumbi/common/keycode_functions.c **** // LT for S(keycode)
 446:/net/depot/qmk_firmware/keyboards/splitography/keymaps/thumbi/common/keycode_functions.c **** void lt_shift(keyrecord_t *record, uint16_t keycode, uint8_t layer)
 447:/net/depot/qmk_firmware/keyboards/splitography/keymaps/thumbi/common/keycode_functions.c **** {
 2284               		.loc 1 447 0
 2285               		.cfi_startproc
 2286               	.LVL298:
 2287 0000 0F93      		push r16
 2288               	.LCFI73:
 2289               		.cfi_def_cfa_offset 3
 2290               		.cfi_offset 16, -2
 2291               	/* prologue: function */
 2292               	/* frame size = 0 */
 2293               	/* stack size = 1 */
 2294               	.L__stack_usage = 1
 448:/net/depot/qmk_firmware/keyboards/splitography/keymaps/thumbi/common/keycode_functions.c ****   lt(record, SHIFT, keycode, 0, layer);
 2295               		.loc 1 448 0
 2296 0002 042F      		mov r16,r20
 2297 0004 30E0      		ldi r19,0
 2298 0006 20E0      		ldi r18,0
 2299 0008 AB01      		movw r20,r22
 2300               	.LVL299:
 2301 000a 61E0      		ldi r22,lo8(1)
 2302               	.LVL300:
 2303 000c 0E94 0000 		call lt
 2304               	.LVL301:
 2305               	/* epilogue start */
 449:/net/depot/qmk_firmware/keyboards/splitography/keymaps/thumbi/common/keycode_functions.c **** }
 2306               		.loc 1 449 0
 2307 0010 0F91      		pop r16
 2308               	.LVL302:
 2309 0012 0895      		ret
 2310               		.cfi_endproc
 2311               	.LFE144:
 2313               		.section	.text.tap_layer,"ax",@progbits
 2314               	.global	tap_layer
 2316               	tap_layer:
 2317               	.LFB145:
 450:/net/depot/qmk_firmware/keyboards/splitography/keymaps/thumbi/common/keycode_functions.c **** 
 451:/net/depot/qmk_firmware/keyboards/splitography/keymaps/thumbi/common/keycode_functions.c **** // set layer asap to overcome macro latency errors, notably tap dance, LT usage and..
 452:/net/depot/qmk_firmware/keyboards/splitography/keymaps/thumbi/common/keycode_functions.c **** // inexplicably sets layer_on() faster than can be done in thumb_roll() !!
 453:/net/depot/qmk_firmware/keyboards/splitography/keymaps/thumbi/common/keycode_functions.c **** void tap_layer(keyrecord_t *record, uint8_t layer)
 454:/net/depot/qmk_firmware/keyboards/splitography/keymaps/thumbi/common/keycode_functions.c **** {
 2318               		.loc 1 454 0
 2319               		.cfi_startproc
 2320               	.LVL303:
 2321               	/* prologue: function */
 2322               	/* frame size = 0 */
 2323               	/* stack size = 0 */
 2324               	.L__stack_usage = 0
 455:/net/depot/qmk_firmware/keyboards/splitography/keymaps/thumbi/common/keycode_functions.c ****   if (record->event.pressed) { layer_on(layer); }
 2325               		.loc 1 455 0
 2326 0000 FC01      		movw r30,r24
 2327 0002 8281      		ldd r24,Z+2
 2328               	.LVL304:
 2329 0004 8823      		tst r24
 2330 0006 01F0      		breq .L181
 2331               		.loc 1 455 0 is_stmt 0 discriminator 1
 2332 0008 862F      		mov r24,r22
 2333 000a 0C94 0000 		jmp layer_on
 2334               	.LVL305:
 2335               	.L181:
 456:/net/depot/qmk_firmware/keyboards/splitography/keymaps/thumbi/common/keycode_functions.c ****   else                       { layer_off(layer); }
 2336               		.loc 1 456 0 is_stmt 1
 2337 000e 862F      		mov r24,r22
 2338 0010 0C94 0000 		jmp layer_off
 2339               	.LVL306:
 2340               		.cfi_endproc
 2341               	.LFE145:
 2343               		.section	.text.clear_layers,"ax",@progbits
 2344               	.global	clear_layers
 2346               	clear_layers:
 2347               	.LFB146:
 457:/net/depot/qmk_firmware/keyboards/splitography/keymaps/thumbi/common/keycode_functions.c **** }
 458:/net/depot/qmk_firmware/keyboards/splitography/keymaps/thumbi/common/keycode_functions.c **** 
 459:/net/depot/qmk_firmware/keyboards/splitography/keymaps/thumbi/common/keycode_functions.c **** // ..................................................................... Keymaps
 460:/net/depot/qmk_firmware/keyboards/splitography/keymaps/thumbi/common/keycode_functions.c **** 
 461:/net/depot/qmk_firmware/keyboards/splitography/keymaps/thumbi/common/keycode_functions.c **** // void persistant_default_layer_set(uint16_t default_layer)
 462:/net/depot/qmk_firmware/keyboards/splitography/keymaps/thumbi/common/keycode_functions.c **** // {
 463:/net/depot/qmk_firmware/keyboards/splitography/keymaps/thumbi/common/keycode_functions.c **** //   eeconfig_update_default_layer(default_layer);
 464:/net/depot/qmk_firmware/keyboards/splitography/keymaps/thumbi/common/keycode_functions.c **** //   default_layer_set            (default_layer);
 465:/net/depot/qmk_firmware/keyboards/splitography/keymaps/thumbi/common/keycode_functions.c **** // }
 466:/net/depot/qmk_firmware/keyboards/splitography/keymaps/thumbi/common/keycode_functions.c **** 
 467:/net/depot/qmk_firmware/keyboards/splitography/keymaps/thumbi/common/keycode_functions.c **** #ifdef CENTER_TT
 468:/net/depot/qmk_firmware/keyboards/splitography/keymaps/thumbi/common/keycode_functions.c **** static uint16_t tt_keycode = 0;             // current TT keycode
 469:/net/depot/qmk_firmware/keyboards/splitography/keymaps/thumbi/common/keycode_functions.c **** #endif
 470:/net/depot/qmk_firmware/keyboards/splitography/keymaps/thumbi/common/keycode_functions.c **** 
 471:/net/depot/qmk_firmware/keyboards/splitography/keymaps/thumbi/common/keycode_functions.c **** void clear_layers(void)
 472:/net/depot/qmk_firmware/keyboards/splitography/keymaps/thumbi/common/keycode_functions.c **** {
 2348               		.loc 1 472 0
 2349               		.cfi_startproc
 2350 0000 CF93      		push r28
 2351               	.LCFI74:
 2352               		.cfi_def_cfa_offset 3
 2353               		.cfi_offset 28, -2
 2354               	/* prologue: function */
 2355               	/* frame size = 0 */
 2356               	/* stack size = 1 */
 2357               	.L__stack_usage = 1
 2358               	.LVL307:
 473:/net/depot/qmk_firmware/keyboards/splitography/keymaps/thumbi/common/keycode_functions.c ****   uint8_t layer;
 474:/net/depot/qmk_firmware/keyboards/splitography/keymaps/thumbi/common/keycode_functions.c ****   for (layer = 0; layer < _END_LAYERS; layer++) { layer_off(layer); }
 2359               		.loc 1 474 0
 2360 0002 C0E0      		ldi r28,0
 2361               	.LVL308:
 2362               	.L183:
 2363               		.loc 1 474 0 is_stmt 0 discriminator 3
 2364 0004 8C2F      		mov r24,r28
 2365 0006 0E94 0000 		call layer_off
 2366               	.LVL309:
 2367 000a CF5F      		subi r28,lo8(-(1))
 2368               	.LVL310:
 2369 000c C131      		cpi r28,lo8(17)
 2370 000e 01F4      		brne .L183
 475:/net/depot/qmk_firmware/keyboards/splitography/keymaps/thumbi/common/keycode_functions.c ****   mods       = 0;
 2371               		.loc 1 475 0 is_stmt 1
 2372 0010 1092 0000 		sts mods,__zero_reg__
 476:/net/depot/qmk_firmware/keyboards/splitography/keymaps/thumbi/common/keycode_functions.c ****   key_timer  = 0;
 2373               		.loc 1 476 0
 2374 0014 1092 0000 		sts key_timer+1,__zero_reg__
 2375 0018 1092 0000 		sts key_timer,__zero_reg__
 477:/net/depot/qmk_firmware/keyboards/splitography/keymaps/thumbi/common/keycode_functions.c ****   dt_shift   = 0;
 2376               		.loc 1 477 0
 2377 001c 1092 0000 		sts dt_shift,__zero_reg__
 478:/net/depot/qmk_firmware/keyboards/splitography/keymaps/thumbi/common/keycode_functions.c ****   thumb      = 0;
 2378               		.loc 1 478 0
 2379 0020 1092 0000 		sts thumb,__zero_reg__
 479:/net/depot/qmk_firmware/keyboards/splitography/keymaps/thumbi/common/keycode_functions.c ****   overlayer  = 0;
 2380               		.loc 1 479 0
 2381 0024 1092 0000 		sts overlayer,__zero_reg__
 480:/net/depot/qmk_firmware/keyboards/splitography/keymaps/thumbi/common/keycode_functions.c **** #ifdef CENTER_TT
 481:/net/depot/qmk_firmware/keyboards/splitography/keymaps/thumbi/common/keycode_functions.c ****   tt_keycode = 0;
 2382               		.loc 1 481 0
 2383 0028 1092 0000 		sts tt_keycode+1,__zero_reg__
 2384 002c 1092 0000 		sts tt_keycode,__zero_reg__
 2385               	/* epilogue start */
 482:/net/depot/qmk_firmware/keyboards/splitography/keymaps/thumbi/common/keycode_functions.c **** #endif
 483:/net/depot/qmk_firmware/keyboards/splitography/keymaps/thumbi/common/keycode_functions.c **** }
 2386               		.loc 1 483 0
 2387 0030 CF91      		pop r28
 2388               	.LVL311:
 2389 0032 0895      		ret
 2390               		.cfi_endproc
 2391               	.LFE146:
 2393               		.section	.text.raise_number,"ax",@progbits
 2394               	.global	raise_number
 2396               	raise_number:
 2397               	.LFB147:
 484:/net/depot/qmk_firmware/keyboards/splitography/keymaps/thumbi/common/keycode_functions.c **** 
 485:/net/depot/qmk_firmware/keyboards/splitography/keymaps/thumbi/common/keycode_functions.c **** static uint8_t double_key = 0;
 486:/net/depot/qmk_firmware/keyboards/splitography/keymaps/thumbi/common/keycode_functions.c **** 
 487:/net/depot/qmk_firmware/keyboards/splitography/keymaps/thumbi/common/keycode_functions.c **** // dual thumb key to raise number layer
 488:/net/depot/qmk_firmware/keyboards/splitography/keymaps/thumbi/common/keycode_functions.c **** bool raise_number(keyrecord_t *record, uint8_t side)
 489:/net/depot/qmk_firmware/keyboards/splitography/keymaps/thumbi/common/keycode_functions.c **** {
 2398               		.loc 1 489 0
 2399               		.cfi_startproc
 2400               	.LVL312:
 2401 0000 CF93      		push r28
 2402               	.LCFI75:
 2403               		.cfi_def_cfa_offset 3
 2404               		.cfi_offset 28, -2
 2405               	/* prologue: function */
 2406               	/* frame size = 0 */
 2407               	/* stack size = 1 */
 2408               	.L__stack_usage = 1
 490:/net/depot/qmk_firmware/keyboards/splitography/keymaps/thumbi/common/keycode_functions.c ****   if (record->event.pressed) {
 2409               		.loc 1 490 0
 2410 0002 FC01      		movw r30,r24
 2411 0004 C281      		ldd r28,Z+2
 2412 0006 8091 0000 		lds r24,double_key
 2413               	.LVL313:
 2414 000a CC23      		tst r28
 2415 000c 01F0      		breq .L186
 491:/net/depot/qmk_firmware/keyboards/splitography/keymaps/thumbi/common/keycode_functions.c ****     double_key |= side;
 2416               		.loc 1 491 0
 2417 000e 682B      		or r22,r24
 2418               	.LVL314:
 2419 0010 6093 0000 		sts double_key,r22
 492:/net/depot/qmk_firmware/keyboards/splitography/keymaps/thumbi/common/keycode_functions.c ****     if (double_key == (LEFT | RIGHT)) {
 2420               		.loc 1 492 0
 2421 0014 6330      		cpi r22,lo8(3)
 2422 0016 01F0      		breq .L187
 2423               	.L189:
 493:/net/depot/qmk_firmware/keyboards/splitography/keymaps/thumbi/common/keycode_functions.c ****       layer_on(_NUMBER);
 494:/net/depot/qmk_firmware/keyboards/splitography/keymaps/thumbi/common/keycode_functions.c ****       return true;
 495:/net/depot/qmk_firmware/keyboards/splitography/keymaps/thumbi/common/keycode_functions.c ****     }
 496:/net/depot/qmk_firmware/keyboards/splitography/keymaps/thumbi/common/keycode_functions.c ****   }
 497:/net/depot/qmk_firmware/keyboards/splitography/keymaps/thumbi/common/keycode_functions.c ****   else {
 498:/net/depot/qmk_firmware/keyboards/splitography/keymaps/thumbi/common/keycode_functions.c ****     double_key &= ~side;
 499:/net/depot/qmk_firmware/keyboards/splitography/keymaps/thumbi/common/keycode_functions.c ****     if (!double_key) { layer_off(_NUMBER); }  // allow single key to continue on layer :-)
 500:/net/depot/qmk_firmware/keyboards/splitography/keymaps/thumbi/common/keycode_functions.c ****   }
 501:/net/depot/qmk_firmware/keyboards/splitography/keymaps/thumbi/common/keycode_functions.c ****   return false;
 2424               		.loc 1 501 0
 2425 0018 C0E0      		ldi r28,0
 2426               	.LVL315:
 2427               	.L185:
 502:/net/depot/qmk_firmware/keyboards/splitography/keymaps/thumbi/common/keycode_functions.c **** }
 2428               		.loc 1 502 0
 2429 001a 8C2F      		mov r24,r28
 2430               	/* epilogue start */
 2431 001c CF91      		pop r28
 2432 001e 0895      		ret
 2433               	.LVL316:
 2434               	.L187:
 493:/net/depot/qmk_firmware/keyboards/splitography/keymaps/thumbi/common/keycode_functions.c ****       layer_on(_NUMBER);
 2435               		.loc 1 493 0
 2436 0020 87E0      		ldi r24,lo8(7)
 2437 0022 0E94 0000 		call layer_on
 2438               	.LVL317:
 494:/net/depot/qmk_firmware/keyboards/splitography/keymaps/thumbi/common/keycode_functions.c ****     }
 2439               		.loc 1 494 0
 2440 0026 00C0      		rjmp .L185
 2441               	.LVL318:
 2442               	.L186:
 498:/net/depot/qmk_firmware/keyboards/splitography/keymaps/thumbi/common/keycode_functions.c ****     if (!double_key) { layer_off(_NUMBER); }  // allow single key to continue on layer :-)
 2443               		.loc 1 498 0
 2444 0028 6095      		com r22
 2445               	.LVL319:
 2446 002a 6823      		and r22,r24
 2447               	.LVL320:
 2448 002c 6093 0000 		sts double_key,r22
 499:/net/depot/qmk_firmware/keyboards/splitography/keymaps/thumbi/common/keycode_functions.c ****   }
 2449               		.loc 1 499 0
 2450 0030 6111      		cpse r22,__zero_reg__
 2451 0032 00C0      		rjmp .L189
 499:/net/depot/qmk_firmware/keyboards/splitography/keymaps/thumbi/common/keycode_functions.c ****   }
 2452               		.loc 1 499 0 is_stmt 0 discriminator 1
 2453 0034 87E0      		ldi r24,lo8(7)
 2454 0036 0E94 0000 		call layer_off
 2455               	.LVL321:
 2456 003a 00C0      		rjmp .L185
 2457               		.cfi_endproc
 2458               	.LFE147:
 2460               		.section	.text.tt_clear,"ax",@progbits
 2461               	.global	tt_clear
 2463               	tt_clear:
 2464               	.LFB148:
 503:/net/depot/qmk_firmware/keyboards/splitography/keymaps/thumbi/common/keycode_functions.c **** 
 504:/net/depot/qmk_firmware/keyboards/splitography/keymaps/thumbi/common/keycode_functions.c **** #ifdef CENTER_TT
 505:/net/depot/qmk_firmware/keyboards/splitography/keymaps/thumbi/common/keycode_functions.c **** void tt_clear(void)
 506:/net/depot/qmk_firmware/keyboards/splitography/keymaps/thumbi/common/keycode_functions.c **** {
 2465               		.loc 1 506 0 is_stmt 1
 2466               		.cfi_startproc
 2467               	/* prologue: function */
 2468               	/* frame size = 0 */
 2469               	/* stack size = 0 */
 2470               	.L__stack_usage = 0
 507:/net/depot/qmk_firmware/keyboards/splitography/keymaps/thumbi/common/keycode_functions.c ****   clear_layers();
 2471               		.loc 1 507 0
 2472 0000 0E94 0000 		call clear_layers
 2473               	.LVL322:
 508:/net/depot/qmk_firmware/keyboards/splitography/keymaps/thumbi/common/keycode_functions.c ****   set_single_persistent_default_layer(_BASE);
 2474               		.loc 1 508 0
 2475 0004 80E0      		ldi r24,0
 2476 0006 0C94 0000 		jmp set_single_persistent_default_layer
 2477               	.LVL323:
 2478               		.cfi_endproc
 2479               	.LFE148:
 2481               		.section	.text.tt_escape,"ax",@progbits
 2482               	.global	tt_escape
 2484               	tt_escape:
 2485               	.LFB149:
 509:/net/depot/qmk_firmware/keyboards/splitography/keymaps/thumbi/common/keycode_functions.c **** }
 510:/net/depot/qmk_firmware/keyboards/splitography/keymaps/thumbi/common/keycode_functions.c **** 
 511:/net/depot/qmk_firmware/keyboards/splitography/keymaps/thumbi/common/keycode_functions.c **** // alternate escape for TT layers, see process_record_user()
 512:/net/depot/qmk_firmware/keyboards/splitography/keymaps/thumbi/common/keycode_functions.c **** void tt_escape(keyrecord_t *record, uint16_t keycode)
 513:/net/depot/qmk_firmware/keyboards/splitography/keymaps/thumbi/common/keycode_functions.c **** {
 2486               		.loc 1 513 0
 2487               		.cfi_startproc
 2488               	.LVL324:
 2489 0000 CF93      		push r28
 2490               	.LCFI76:
 2491               		.cfi_def_cfa_offset 3
 2492               		.cfi_offset 28, -2
 2493 0002 DF93      		push r29
 2494               	.LCFI77:
 2495               		.cfi_def_cfa_offset 4
 2496               		.cfi_offset 29, -3
 2497               	/* prologue: function */
 2498               	/* frame size = 0 */
 2499               	/* stack size = 2 */
 2500               	.L__stack_usage = 2
 2501 0004 EB01      		movw r28,r22
 514:/net/depot/qmk_firmware/keyboards/splitography/keymaps/thumbi/common/keycode_functions.c ****   if (record->event.pressed) { key_timer = timer_read(); }
 2502               		.loc 1 514 0
 2503 0006 FC01      		movw r30,r24
 2504 0008 8281      		ldd r24,Z+2
 2505               	.LVL325:
 2506 000a 8823      		tst r24
 2507 000c 01F0      		breq .L192
 2508               		.loc 1 514 0 is_stmt 0 discriminator 1
 2509 000e 0E94 0000 		call timer_read
 2510               	.LVL326:
 2511 0012 9093 0000 		sts key_timer+1,r25
 2512 0016 8093 0000 		sts key_timer,r24
 2513               	.L191:
 2514               	/* epilogue start */
 515:/net/depot/qmk_firmware/keyboards/splitography/keymaps/thumbi/common/keycode_functions.c ****   else {
 516:/net/depot/qmk_firmware/keyboards/splitography/keymaps/thumbi/common/keycode_functions.c ****     if (timer_elapsed(key_timer) < TAPPING_TERM) { tt_keycode = keycode; }
 517:/net/depot/qmk_firmware/keyboards/splitography/keymaps/thumbi/common/keycode_functions.c ****     key_timer = 0;
 518:/net/depot/qmk_firmware/keyboards/splitography/keymaps/thumbi/common/keycode_functions.c ****   }
 519:/net/depot/qmk_firmware/keyboards/splitography/keymaps/thumbi/common/keycode_functions.c **** }
 2515               		.loc 1 519 0 is_stmt 1
 2516 001a DF91      		pop r29
 2517 001c CF91      		pop r28
 2518               	.LVL327:
 2519 001e 0895      		ret
 2520               	.LVL328:
 2521               	.L192:
 516:/net/depot/qmk_firmware/keyboards/splitography/keymaps/thumbi/common/keycode_functions.c ****     key_timer = 0;
 2522               		.loc 1 516 0
 2523 0020 8091 0000 		lds r24,key_timer
 2524 0024 9091 0000 		lds r25,key_timer+1
 2525 0028 0E94 0000 		call timer_elapsed
 2526               	.LVL329:
 2527 002c 8A3F      		cpi r24,-6
 2528 002e 9105      		cpc r25,__zero_reg__
 2529 0030 00F4      		brsh .L194
 516:/net/depot/qmk_firmware/keyboards/splitography/keymaps/thumbi/common/keycode_functions.c ****     key_timer = 0;
 2530               		.loc 1 516 0 is_stmt 0 discriminator 1
 2531 0032 D093 0000 		sts tt_keycode+1,r29
 2532 0036 C093 0000 		sts tt_keycode,r28
 2533               	.L194:
 517:/net/depot/qmk_firmware/keyboards/splitography/keymaps/thumbi/common/keycode_functions.c ****   }
 2534               		.loc 1 517 0 is_stmt 1
 2535 003a 1092 0000 		sts key_timer+1,__zero_reg__
 2536 003e 1092 0000 		sts key_timer,__zero_reg__
 2537               		.loc 1 519 0
 2538 0042 00C0      		rjmp .L191
 2539               		.cfi_endproc
 2540               	.LFE149:
 2542               		.section	.text.toggle_plover,"ax",@progbits
 2543               	.global	toggle_plover
 2545               	toggle_plover:
 2546               	.LFB150:
 520:/net/depot/qmk_firmware/keyboards/splitography/keymaps/thumbi/common/keycode_functions.c **** #endif
 521:/net/depot/qmk_firmware/keyboards/splitography/keymaps/thumbi/common/keycode_functions.c **** 
 522:/net/depot/qmk_firmware/keyboards/splitography/keymaps/thumbi/common/keycode_functions.c **** // txbolt plover run state
 523:/net/depot/qmk_firmware/keyboards/splitography/keymaps/thumbi/common/keycode_functions.c **** static uint8_t plover = 0;
 524:/net/depot/qmk_firmware/keyboards/splitography/keymaps/thumbi/common/keycode_functions.c **** 
 525:/net/depot/qmk_firmware/keyboards/splitography/keymaps/thumbi/common/keycode_functions.c **** void toggle_plover(uint8_t state)
 526:/net/depot/qmk_firmware/keyboards/splitography/keymaps/thumbi/common/keycode_functions.c **** {
 2547               		.loc 1 526 0
 2548               		.cfi_startproc
 2549               	.LVL330:
 2550 0000 CF93      		push r28
 2551               	.LCFI78:
 2552               		.cfi_def_cfa_offset 3
 2553               		.cfi_offset 28, -2
 2554               	/* prologue: function */
 2555               	/* frame size = 0 */
 2556               	/* stack size = 1 */
 2557               	.L__stack_usage = 1
 2558 0002 C82F      		mov r28,r24
 527:/net/depot/qmk_firmware/keyboards/splitography/keymaps/thumbi/common/keycode_functions.c ****   if (plover != state) {
 2559               		.loc 1 527 0
 2560 0004 8091 0000 		lds r24,plover
 2561               	.LVL331:
 2562 0008 8C17      		cp r24,r28
 2563 000a 01F0      		breq .L195
 2564               		.file 3 "/net/depot/qmk_firmware/keyboards/splitography/keymaps/thumbi/common/plover_keybind.h"
   1:/net/depot/qmk_firmware/keyboards/splitography/keymaps/thumbi/common/plover_keybind.h **** 
   2:/net/depot/qmk_firmware/keyboards/splitography/keymaps/thumbi/common/plover_keybind.h **** // simple window manager specific plover keybind hook
   3:/net/depot/qmk_firmware/keyboards/splitography/keymaps/thumbi/common/plover_keybind.h **** 
   4:/net/depot/qmk_firmware/keyboards/splitography/keymaps/thumbi/common/plover_keybind.h **** // toggle plover application, see herbstluftwm/config/appbinds
   5:/net/depot/qmk_firmware/keyboards/splitography/keymaps/thumbi/common/plover_keybind.h **** register_code  (KC_LGUI);
 2565               		.loc 3 5 0
 2566 000c 83EE      		ldi r24,lo8(-29)
 2567 000e 0E94 0000 		call register_code
 2568               	.LVL332:
   6:/net/depot/qmk_firmware/keyboards/splitography/keymaps/thumbi/common/plover_keybind.h **** register_code  (KC_LCTL);
 2569               		.loc 3 6 0
 2570 0012 80EE      		ldi r24,lo8(-32)
 2571 0014 0E94 0000 		call register_code
 2572               	.LVL333:
   7:/net/depot/qmk_firmware/keyboards/splitography/keymaps/thumbi/common/plover_keybind.h **** tap_key        (KC_EQL);
 2573               		.loc 3 7 0
 2574 0018 8EE2      		ldi r24,lo8(46)
 2575 001a 90E0      		ldi r25,0
 2576 001c 0E94 0000 		call tap_key
 2577               	.LVL334:
   8:/net/depot/qmk_firmware/keyboards/splitography/keymaps/thumbi/common/plover_keybind.h **** unregister_code(KC_LCTL);
 2578               		.loc 3 8 0
 2579 0020 80EE      		ldi r24,lo8(-32)
 2580 0022 0E94 0000 		call unregister_code
 2581               	.LVL335:
   9:/net/depot/qmk_firmware/keyboards/splitography/keymaps/thumbi/common/plover_keybind.h **** unregister_code(KC_LGUI);
 2582               		.loc 3 9 0
 2583 0026 83EE      		ldi r24,lo8(-29)
 2584 0028 0E94 0000 		call unregister_code
 2585               	.LVL336:
 528:/net/depot/qmk_firmware/keyboards/splitography/keymaps/thumbi/common/keycode_functions.c **** #ifdef PLOVER_KEYBIND
 529:/net/depot/qmk_firmware/keyboards/splitography/keymaps/thumbi/common/keycode_functions.c **** #include "plover_keybind.h"
 530:/net/depot/qmk_firmware/keyboards/splitography/keymaps/thumbi/common/keycode_functions.c **** #endif
 531:/net/depot/qmk_firmware/keyboards/splitography/keymaps/thumbi/common/keycode_functions.c ****     plover = state;
 2586               		.loc 1 531 0
 2587 002c C093 0000 		sts plover,r28
 2588               	.L195:
 2589               	/* epilogue start */
 532:/net/depot/qmk_firmware/keyboards/splitography/keymaps/thumbi/common/keycode_functions.c ****   }
 533:/net/depot/qmk_firmware/keyboards/splitography/keymaps/thumbi/common/keycode_functions.c **** }
 2590               		.loc 1 533 0
 2591 0030 CF91      		pop r28
 2592               	.LVL337:
 2593 0032 0895      		ret
 2594               		.cfi_endproc
 2595               	.LFE150:
 2597               		.section	.text.base_layer,"ax",@progbits
 2598               	.global	base_layer
 2600               	base_layer:
 2601               	.LFB151:
 534:/net/depot/qmk_firmware/keyboards/splitography/keymaps/thumbi/common/keycode_functions.c **** 
 535:/net/depot/qmk_firmware/keyboards/splitography/keymaps/thumbi/common/keycode_functions.c **** void base_layer(void)
 536:/net/depot/qmk_firmware/keyboards/splitography/keymaps/thumbi/common/keycode_functions.c **** {
 2602               		.loc 1 536 0
 2603               		.cfi_startproc
 2604               	/* prologue: function */
 2605               	/* frame size = 0 */
 2606               	/* stack size = 0 */
 2607               	.L__stack_usage = 0
 537:/net/depot/qmk_firmware/keyboards/splitography/keymaps/thumbi/common/keycode_functions.c **** #ifdef AUDIO_ENABLE
 538:/net/depot/qmk_firmware/keyboards/splitography/keymaps/thumbi/common/keycode_functions.c ****   if (plover) { PLAY_SONG(song_plover_gb); }
 539:/net/depot/qmk_firmware/keyboards/splitography/keymaps/thumbi/common/keycode_functions.c ****   else        { PLAY_SONG(song_qwerty); }
 540:/net/depot/qmk_firmware/keyboards/splitography/keymaps/thumbi/common/keycode_functions.c **** #endif
 541:/net/depot/qmk_firmware/keyboards/splitography/keymaps/thumbi/common/keycode_functions.c ****   clear_layers();
 2608               		.loc 1 541 0
 2609 0000 0E94 0000 		call clear_layers
 2610               	.LVL338:
 542:/net/depot/qmk_firmware/keyboards/splitography/keymaps/thumbi/common/keycode_functions.c ****   set_single_persistent_default_layer(_BASE);
 2611               		.loc 1 542 0
 2612 0004 80E0      		ldi r24,0
 2613 0006 0E94 0000 		call set_single_persistent_default_layer
 2614               	.LVL339:
 543:/net/depot/qmk_firmware/keyboards/splitography/keymaps/thumbi/common/keycode_functions.c ****   toggle_plover(0);
 2615               		.loc 1 543 0
 2616 000a 80E0      		ldi r24,0
 2617 000c 0C94 0000 		jmp toggle_plover
 2618               	.LVL340:
 2619               		.cfi_endproc
 2620               	.LFE151:
 2622               		.section	.text.steno,"ax",@progbits
 2623               	.global	steno
 2625               	steno:
 2626               	.LFB152:
 544:/net/depot/qmk_firmware/keyboards/splitography/keymaps/thumbi/common/keycode_functions.c **** }
 545:/net/depot/qmk_firmware/keyboards/splitography/keymaps/thumbi/common/keycode_functions.c **** 
 546:/net/depot/qmk_firmware/keyboards/splitography/keymaps/thumbi/common/keycode_functions.c **** void steno(keyrecord_t *record)
 547:/net/depot/qmk_firmware/keyboards/splitography/keymaps/thumbi/common/keycode_functions.c **** {
 2627               		.loc 1 547 0
 2628               		.cfi_startproc
 2629               	.LVL341:
 2630               	/* prologue: function */
 2631               	/* frame size = 0 */
 2632               	/* stack size = 0 */
 2633               	.L__stack_usage = 0
 548:/net/depot/qmk_firmware/keyboards/splitography/keymaps/thumbi/common/keycode_functions.c ****   if (record->event.pressed) {
 2634               		.loc 1 548 0
 2635 0000 FC01      		movw r30,r24
 2636 0002 8281      		ldd r24,Z+2
 2637               	.LVL342:
 2638 0004 8823      		tst r24
 2639 0006 01F0      		breq .L198
 549:/net/depot/qmk_firmware/keyboards/splitography/keymaps/thumbi/common/keycode_functions.c **** #ifdef AUDIO_ENABLE
 550:/net/depot/qmk_firmware/keyboards/splitography/keymaps/thumbi/common/keycode_functions.c ****     PLAY_SONG(song_plover);
 551:/net/depot/qmk_firmware/keyboards/splitography/keymaps/thumbi/common/keycode_functions.c **** #endif
 552:/net/depot/qmk_firmware/keyboards/splitography/keymaps/thumbi/common/keycode_functions.c ****     clear_layers();
 2640               		.loc 1 552 0
 2641 0008 0E94 0000 		call clear_layers
 2642               	.LVL343:
 553:/net/depot/qmk_firmware/keyboards/splitography/keymaps/thumbi/common/keycode_functions.c ****     layer_on(_PLOVER);
 2643               		.loc 1 553 0
 2644 000c 86E0      		ldi r24,lo8(6)
 2645 000e 0E94 0000 		call layer_on
 2646               	.LVL344:
 554:/net/depot/qmk_firmware/keyboards/splitography/keymaps/thumbi/common/keycode_functions.c ****     if (!eeconfig_is_enabled()) { eeconfig_init(); }
 2647               		.loc 1 554 0
 2648 0012 0E94 0000 		call eeconfig_is_enabled
 2649               	.LVL345:
 2650 0016 8111      		cpse r24,__zero_reg__
 2651 0018 00C0      		rjmp .L201
 2652               		.loc 1 554 0 is_stmt 0 discriminator 1
 2653 001a 0E94 0000 		call eeconfig_init
 2654               	.LVL346:
 2655               	.L201:
 555:/net/depot/qmk_firmware/keyboards/splitography/keymaps/thumbi/common/keycode_functions.c ****     keymap_config.raw  = eeconfig_read_keymap();
 2656               		.loc 1 555 0 is_stmt 1
 2657 001e 0E94 0000 		call eeconfig_read_keymap
 2658               	.LVL347:
 2659 0022 90E0      		ldi r25,0
 2660 0024 9093 0000 		sts keymap_config+1,r25
 2661 0028 8093 0000 		sts keymap_config,r24
 556:/net/depot/qmk_firmware/keyboards/splitography/keymaps/thumbi/common/keycode_functions.c ****     keymap_config.nkro = 1;
 2662               		.loc 1 556 0
 2663 002c 8068      		ori r24,lo8(1<<7)
 2664 002e 8093 0000 		sts keymap_config,r24
 557:/net/depot/qmk_firmware/keyboards/splitography/keymaps/thumbi/common/keycode_functions.c ****     eeconfig_update_keymap(keymap_config.raw);
 2665               		.loc 1 557 0
 2666 0032 0E94 0000 		call eeconfig_update_keymap
 2667               	.LVL348:
 558:/net/depot/qmk_firmware/keyboards/splitography/keymaps/thumbi/common/keycode_functions.c ****     if (!plover) { toggle_plover(1); }
 2668               		.loc 1 558 0
 2669 0036 8091 0000 		lds r24,plover
 2670 003a 8111      		cpse r24,__zero_reg__
 2671 003c 00C0      		rjmp .L198
 2672               		.loc 1 558 0 is_stmt 0 discriminator 1
 2673 003e 81E0      		ldi r24,lo8(1)
 2674 0040 0C94 0000 		jmp toggle_plover
 2675               	.LVL349:
 2676               	.L198:
 2677               	/* epilogue start */
 559:/net/depot/qmk_firmware/keyboards/splitography/keymaps/thumbi/common/keycode_functions.c ****   }
 560:/net/depot/qmk_firmware/keyboards/splitography/keymaps/thumbi/common/keycode_functions.c **** }
 2678               		.loc 1 560 0 is_stmt 1
 2679 0044 0895      		ret
 2680               		.cfi_endproc
 2681               	.LFE152:
 2683               		.section	.text.steno_exit,"ax",@progbits
 2684               	.global	steno_exit
 2686               	steno_exit:
 2687               	.LFB153:
 561:/net/depot/qmk_firmware/keyboards/splitography/keymaps/thumbi/common/keycode_functions.c **** 
 562:/net/depot/qmk_firmware/keyboards/splitography/keymaps/thumbi/common/keycode_functions.c **** void steno_exit(keyrecord_t *record)
 563:/net/depot/qmk_firmware/keyboards/splitography/keymaps/thumbi/common/keycode_functions.c **** {
 2688               		.loc 1 563 0
 2689               		.cfi_startproc
 2690               	.LVL350:
 2691               	/* prologue: function */
 2692               	/* frame size = 0 */
 2693               	/* stack size = 0 */
 2694               	.L__stack_usage = 0
 564:/net/depot/qmk_firmware/keyboards/splitography/keymaps/thumbi/common/keycode_functions.c ****   if (record->event.pressed) {
 2695               		.loc 1 564 0
 2696 0000 FC01      		movw r30,r24
 2697 0002 8281      		ldd r24,Z+2
 2698               	.LVL351:
 2699 0004 8823      		tst r24
 2700 0006 01F0      		breq .L203
 565:/net/depot/qmk_firmware/keyboards/splitography/keymaps/thumbi/common/keycode_functions.c ****     base_layer();
 2701               		.loc 1 565 0
 2702 0008 0E94 0000 		call base_layer
 2703               	.LVL352:
 566:/net/depot/qmk_firmware/keyboards/splitography/keymaps/thumbi/common/keycode_functions.c ****     toggle_plover(0);
 2704               		.loc 1 566 0
 2705 000c 80E0      		ldi r24,0
 2706 000e 0C94 0000 		jmp toggle_plover
 2707               	.LVL353:
 2708               	.L203:
 2709               	/* epilogue start */
 567:/net/depot/qmk_firmware/keyboards/splitography/keymaps/thumbi/common/keycode_functions.c ****   }
 568:/net/depot/qmk_firmware/keyboards/splitography/keymaps/thumbi/common/keycode_functions.c **** }
 2710               		.loc 1 568 0
 2711 0012 0895      		ret
 2712               		.cfi_endproc
 2713               	.LFE153:
 2715               		.section	.text.process_record_user,"ax",@progbits
 2716               	.global	process_record_user
 2718               	process_record_user:
 2719               	.LFB154:
 2720               		.file 4 "keyboards/splitography/keymaps/thumbi/keymap.c"
   1:keyboards/splitography/keymaps/thumbi/keymap.c **** // This is the canonical layout file for the Quantum project. If you want to add another keyboard,
   2:keyboards/splitography/keymaps/thumbi/keymap.c **** // this is the style you want to emulate.
   3:keyboards/splitography/keymaps/thumbi/keymap.c **** //
   4:keyboards/splitography/keymaps/thumbi/keymap.c **** // To flash splitography firmware
   5:keyboards/splitography/keymaps/thumbi/keymap.c **** // 
   6:keyboards/splitography/keymaps/thumbi/keymap.c **** //   Reset keyboard or press hw reset button on base (hole)
   7:keyboards/splitography/keymaps/thumbi/keymap.c **** //
   8:keyboards/splitography/keymaps/thumbi/keymap.c **** //   cd qmk_firmware/keyboards/splitography
   9:keyboards/splitography/keymaps/thumbi/keymap.c **** //   sudo make KEYMAP=<keymap> dfu
  10:keyboards/splitography/keymaps/thumbi/keymap.c **** //
  11:keyboards/splitography/keymaps/thumbi/keymap.c **** //   sudo make clean           (good practice before flashing)
  12:keyboards/splitography/keymaps/thumbi/keymap.c **** //   sudo make KEYMAP=<keymap> (to compile check)
  13:keyboards/splitography/keymaps/thumbi/keymap.c **** //
  14:keyboards/splitography/keymaps/thumbi/keymap.c **** // Package requirements (for arch linux)
  15:keyboards/splitography/keymaps/thumbi/keymap.c **** // 
  16:keyboards/splitography/keymaps/thumbi/keymap.c **** //   avr-gcc-atmel
  17:keyboards/splitography/keymaps/thumbi/keymap.c **** //   avr-libc-atmel
  18:keyboards/splitography/keymaps/thumbi/keymap.c **** //   dfu-programmer
  19:keyboards/splitography/keymaps/thumbi/keymap.c **** //
  20:keyboards/splitography/keymaps/thumbi/keymap.c **** // Notes
  21:keyboards/splitography/keymaps/thumbi/keymap.c **** // 
  22:keyboards/splitography/keymaps/thumbi/keymap.c **** //   ** E R G O   W I D E   S P L I T ** Layout
  23:keyboards/splitography/keymaps/thumbi/keymap.c **** //
  24:keyboards/splitography/keymaps/thumbi/keymap.c **** //   Autocompletion tap dance key pairs (),[],{} are available from the
  25:keyboards/splitography/keymaps/thumbi/keymap.c **** //   number/symbol layer, as well as, numerous (un)shift key values
  26:keyboards/splitography/keymaps/thumbi/keymap.c **** //
  27:keyboards/splitography/keymaps/thumbi/keymap.c **** //   #define PRIVATE_STRING includes private_string.h, a user defined code
  28:keyboards/splitography/keymaps/thumbi/keymap.c **** //   block for the PRIV tap dance e.g. SEND_STRING("secret messape"),
  29:keyboards/splitography/keymaps/thumbi/keymap.c **** //   see function private()
  30:keyboards/splitography/keymaps/thumbi/keymap.c **** ///
  31:keyboards/splitography/keymaps/thumbi/keymap.c **** // Code
  32:keyboards/splitography/keymaps/thumbi/keymap.c **** // 
  33:keyboards/splitography/keymaps/thumbi/keymap.c **** //   This source is shamelessly based on the "default" planck layout
  34:keyboards/splitography/keymaps/thumbi/keymap.c **** //
  35:keyboards/splitography/keymaps/thumbi/keymap.c **** //   #ifdef/#endif block structures are not indented, as syntax highlighting
  36:keyboards/splitography/keymaps/thumbi/keymap.c **** //   in vim is sufficient for identification
  37:keyboards/splitography/keymaps/thumbi/keymap.c **** //
  38:keyboards/splitography/keymaps/thumbi/keymap.c **** //   c++ commenting style is used throughout
  39:keyboards/splitography/keymaps/thumbi/keymap.c **** //
  40:keyboards/splitography/keymaps/thumbi/keymap.c **** // Change history
  41:keyboards/splitography/keymaps/thumbi/keymap.c **** // 
  42:keyboards/splitography/keymaps/thumbi/keymap.c **** //   See http://thedarnedestthing.com/colophon
  43:keyboards/splitography/keymaps/thumbi/keymap.c **** 
  44:keyboards/splitography/keymaps/thumbi/keymap.c **** 
  45:keyboards/splitography/keymaps/thumbi/keymap.c **** 
  46:keyboards/splitography/keymaps/thumbi/keymap.c **** //                === N O T E ===
  47:keyboards/splitography/keymaps/thumbi/keymap.c **** //
  48:keyboards/splitography/keymaps/thumbi/keymap.c **** // sudo CPATH=<keymap.c directory>/common make ...
  49:keyboards/splitography/keymaps/thumbi/keymap.c **** 
  50:keyboards/splitography/keymaps/thumbi/keymap.c **** 
  51:keyboards/splitography/keymaps/thumbi/keymap.c **** #include "config.h"
  52:keyboards/splitography/keymaps/thumbi/keymap.c **** #include "splitography.h"
  53:keyboards/splitography/keymaps/thumbi/keymap.c **** #include "action_layer.h"
  54:keyboards/splitography/keymaps/thumbi/keymap.c **** #ifdef STENO_ENABLE
  55:keyboards/splitography/keymaps/thumbi/keymap.c **** #include "keymap_steno.h"
  56:keyboards/splitography/keymaps/thumbi/keymap.c **** #endif
  57:keyboards/splitography/keymaps/thumbi/keymap.c **** #ifdef AUDIO_ENABLE
  58:keyboards/splitography/keymaps/thumbi/keymap.c **** #include "audio.h"
  59:keyboards/splitography/keymaps/thumbi/keymap.c **** #endif
  60:keyboards/splitography/keymaps/thumbi/keymap.c **** #include "eeconfig.h"
  61:keyboards/splitography/keymaps/thumbi/keymap.c **** 
  62:keyboards/splitography/keymaps/thumbi/keymap.c **** extern keymap_config_t keymap_config;
  63:keyboards/splitography/keymaps/thumbi/keymap.c **** 
  64:keyboards/splitography/keymaps/thumbi/keymap.c **** enum splitography_layers {
  65:keyboards/splitography/keymaps/thumbi/keymap.c ****   _BASE = 0
  66:keyboards/splitography/keymaps/thumbi/keymap.c ****  ,_SHIFT
  67:keyboards/splitography/keymaps/thumbi/keymap.c ****  ,_LSHIFT
  68:keyboards/splitography/keymaps/thumbi/keymap.c ****  ,_RSHIFT
  69:keyboards/splitography/keymaps/thumbi/keymap.c ****  ,_LSYMBOL
  70:keyboards/splitography/keymaps/thumbi/keymap.c ****  ,_RSYMBOL
  71:keyboards/splitography/keymaps/thumbi/keymap.c ****  ,_PLOVER
  72:keyboards/splitography/keymaps/thumbi/keymap.c ****  ,_NUMBER
  73:keyboards/splitography/keymaps/thumbi/keymap.c ****  ,_FNCKEY
  74:keyboards/splitography/keymaps/thumbi/keymap.c ****  ,_MOUSE
  75:keyboards/splitography/keymaps/thumbi/keymap.c ****  ,_EDIT
  76:keyboards/splitography/keymaps/thumbi/keymap.c **** #ifdef CENTER_TT
  77:keyboards/splitography/keymaps/thumbi/keymap.c ****  ,_TTFNCKEY
  78:keyboards/splitography/keymaps/thumbi/keymap.c ****  ,_TTCAPS
  79:keyboards/splitography/keymaps/thumbi/keymap.c ****  ,_TTCURSOR
  80:keyboards/splitography/keymaps/thumbi/keymap.c ****  ,_TTMOUSE
  81:keyboards/splitography/keymaps/thumbi/keymap.c ****  ,_TTNUMBER
  82:keyboards/splitography/keymaps/thumbi/keymap.c ****  ,_TTREGEX
  83:keyboards/splitography/keymaps/thumbi/keymap.c **** #endif
  84:keyboards/splitography/keymaps/thumbi/keymap.c ****  ,_END_LAYERS
  85:keyboards/splitography/keymaps/thumbi/keymap.c **** };
  86:keyboards/splitography/keymaps/thumbi/keymap.c **** 
  87:keyboards/splitography/keymaps/thumbi/keymap.c **** enum splitography_keycodes {
  88:keyboards/splitography/keymaps/thumbi/keymap.c ****   BASE = SAFE_RANGE
  89:keyboards/splitography/keymaps/thumbi/keymap.c ****  ,BASE1
  90:keyboards/splitography/keymaps/thumbi/keymap.c ****  ,BASE2
  91:keyboards/splitography/keymaps/thumbi/keymap.c ****  ,PLOVER
  92:keyboards/splitography/keymaps/thumbi/keymap.c ****  ,SM_G      // pseudo MT   (MOD_LALT | MOD_LSFT, S(KC_G)) for shifted key-codes, see process_record
  93:keyboards/splitography/keymaps/thumbi/keymap.c ****  ,SM_I      // pseudo MT   (MOD_LSFT, S(KC_I))            for shifted key-codes, see process_record
  94:keyboards/splitography/keymaps/thumbi/keymap.c ****  ,SA_PERC   // pseudo ALT_T(S(KC_5))                      for shifted key-codes, see process_record
  95:keyboards/splitography/keymaps/thumbi/keymap.c ****  ,SG_TILD   // pseudo GUI_T(S(KC_GRV))                    for shifted key-codes, see process_record
  96:keyboards/splitography/keymaps/thumbi/keymap.c ****  ,SL_DEL    // pseudo LT   (_MOUSE, KC_DEL)               for shifted key-codes, see process_record
  97:keyboards/splitography/keymaps/thumbi/keymap.c ****  ,SL_TAB    // pseudo LT   (_MOUSE, S(KC_TAB))
  98:keyboards/splitography/keymaps/thumbi/keymap.c **** #ifdef CENTER_TT
  99:keyboards/splitography/keymaps/thumbi/keymap.c ****  ,TT_ESC
 100:keyboards/splitography/keymaps/thumbi/keymap.c **** #endif
 101:keyboards/splitography/keymaps/thumbi/keymap.c **** #ifdef STENO_ENABLE
 102:keyboards/splitography/keymaps/thumbi/keymap.c ****  ,PS_STNA = STN_A
 103:keyboards/splitography/keymaps/thumbi/keymap.c ****  ,PS_STNO = STN_O
 104:keyboards/splitography/keymaps/thumbi/keymap.c ****  ,PS_STNE = STN_E
 105:keyboards/splitography/keymaps/thumbi/keymap.c ****  ,PS_STNU = STN_U
 106:keyboards/splitography/keymaps/thumbi/keymap.c **** #else
 107:keyboards/splitography/keymaps/thumbi/keymap.c ****  ,LT_C    = LT (_LSYMBOL, KC_C)
 108:keyboards/splitography/keymaps/thumbi/keymap.c ****  ,LT_V    = LT (_NUMBER,  KC_V)
 109:keyboards/splitography/keymaps/thumbi/keymap.c ****  ,LT_N    = LT (_FNCKEY,  KC_N)
 110:keyboards/splitography/keymaps/thumbi/keymap.c ****  ,LT_M    = LT (_RSYMBOL, KC_M)
 111:keyboards/splitography/keymaps/thumbi/keymap.c **** #endif
 112:keyboards/splitography/keymaps/thumbi/keymap.c **** };
 113:keyboards/splitography/keymaps/thumbi/keymap.c **** 
 114:keyboards/splitography/keymaps/thumbi/keymap.c **** // modifier keys
 115:keyboards/splitography/keymaps/thumbi/keymap.c **** #define AT_B    ALT_T(KC_B)
 116:keyboards/splitography/keymaps/thumbi/keymap.c **** #define CT_C    CTL_T(KC_C)
 117:keyboards/splitography/keymaps/thumbi/keymap.c **** #define MT_E    MT   (MOD_LCTL | MOD_LALT, KC_E)
 118:keyboards/splitography/keymaps/thumbi/keymap.c **** #define ST_A    SFT_T(KC_A)
 119:keyboards/splitography/keymaps/thumbi/keymap.c **** #define ST_SPC  SFT_T(KC_SPC)
 120:keyboards/splitography/keymaps/thumbi/keymap.c **** #ifdef HOME_MODS
 121:keyboards/splitography/keymaps/thumbi/keymap.c **** #define HOME_Q  GUI_T(KC_Q)
 122:keyboards/splitography/keymaps/thumbi/keymap.c **** #define HOME_H  CTL_T(KC_H)
 123:keyboards/splitography/keymaps/thumbi/keymap.c **** #define HOME_E  ALT_T(KC_E)
 124:keyboards/splitography/keymaps/thumbi/keymap.c **** #define HOME_A  SFT_T(KC_A)
 125:keyboards/splitography/keymaps/thumbi/keymap.c **** #define HOME_T  SFT_T(KC_T)
 126:keyboards/splitography/keymaps/thumbi/keymap.c **** #define HOME_R  ALT_T(KC_R)
 127:keyboards/splitography/keymaps/thumbi/keymap.c **** #define HOME_S  CTL_T(KC_S)
 128:keyboards/splitography/keymaps/thumbi/keymap.c **** #define HOME_W  GUI_T(KC_W)
 129:keyboards/splitography/keymaps/thumbi/keymap.c **** #else
 130:keyboards/splitography/keymaps/thumbi/keymap.c **** #define HOME_Q  KC_Q
 131:keyboards/splitography/keymaps/thumbi/keymap.c **** #define HOME_H  KC_H
 132:keyboards/splitography/keymaps/thumbi/keymap.c **** #define HOME_E  KC_E
 133:keyboards/splitography/keymaps/thumbi/keymap.c **** #define HOME_A  KC_A
 134:keyboards/splitography/keymaps/thumbi/keymap.c **** #define HOME_T  KC_T
 135:keyboards/splitography/keymaps/thumbi/keymap.c **** #define HOME_R  KC_R
 136:keyboards/splitography/keymaps/thumbi/keymap.c **** #define HOME_S  KC_S
 137:keyboards/splitography/keymaps/thumbi/keymap.c **** #define HOME_W  KC_W
 138:keyboards/splitography/keymaps/thumbi/keymap.c **** #endif
 139:keyboards/splitography/keymaps/thumbi/keymap.c **** 
 140:keyboards/splitography/keymaps/thumbi/keymap.c **** #include "tapdance.h"
 141:keyboards/splitography/keymaps/thumbi/keymap.c **** 
 142:keyboards/splitography/keymaps/thumbi/keymap.c **** // keycodes
 143:keyboards/splitography/keymaps/thumbi/keymap.c **** #define ___x___ KC_TRNS
 144:keyboards/splitography/keymaps/thumbi/keymap.c **** #define ___fn__ KC_TRNS
 145:keyboards/splitography/keymaps/thumbi/keymap.c **** #ifdef _______
 146:keyboards/splitography/keymaps/thumbi/keymap.c **** #undef _______
 147:keyboards/splitography/keymaps/thumbi/keymap.c **** #endif
 148:keyboards/splitography/keymaps/thumbi/keymap.c **** #define _______ KC_NO
 149:keyboards/splitography/keymaps/thumbi/keymap.c **** 
 150:keyboards/splitography/keymaps/thumbi/keymap.c **** #ifdef HASKELL
 151:keyboards/splitography/keymaps/thumbi/keymap.c **** #define HS_COLN TD_COLN
 152:keyboards/splitography/keymaps/thumbi/keymap.c **** #define HS_LT   TD_LT
 153:keyboards/splitography/keymaps/thumbi/keymap.c **** #define HS_GT   TD_GT
 154:keyboards/splitography/keymaps/thumbi/keymap.c **** #define HS_EQL  TD_EQL
 155:keyboards/splitography/keymaps/thumbi/keymap.c **** #else
 156:keyboards/splitography/keymaps/thumbi/keymap.c **** #define HS_COLN KC_COLN
 157:keyboards/splitography/keymaps/thumbi/keymap.c **** #define HS_LT   KC_LT
 158:keyboards/splitography/keymaps/thumbi/keymap.c **** #define HS_GT   KC_GT
 159:keyboards/splitography/keymaps/thumbi/keymap.c **** #define HS_EQL  KC_EQL
 160:keyboards/splitography/keymaps/thumbi/keymap.c **** #endif
 161:keyboards/splitography/keymaps/thumbi/keymap.c **** 
 162:keyboards/splitography/keymaps/thumbi/keymap.c **** #define COPY    LCTL(KC_C)
 163:keyboards/splitography/keymaps/thumbi/keymap.c **** #define CUT     LCTL(KC_X)
 164:keyboards/splitography/keymaps/thumbi/keymap.c **** #define EOT     LCTL(KC_D)
 165:keyboards/splitography/keymaps/thumbi/keymap.c **** #define NAK     LCTL(KC_U)
 166:keyboards/splitography/keymaps/thumbi/keymap.c **** #define PASTE   LCTL(KC_V)
 167:keyboards/splitography/keymaps/thumbi/keymap.c **** #define UNDO    LCTL(KC_Z)
 168:keyboards/splitography/keymaps/thumbi/keymap.c **** #define TMCOPY  LALT(LCTL(KC_C))
 169:keyboards/splitography/keymaps/thumbi/keymap.c **** #define TMPASTE LALT(LCTL(KC_V))
 170:keyboards/splitography/keymaps/thumbi/keymap.c **** #define LT_BSPC LT  (_RSYMBOL, KC_BSPC)     // see process_record_user() for extended handling
 171:keyboards/splitography/keymaps/thumbi/keymap.c **** #define TT_BSPC LT  (_TTCURSOR, KC_BSPC)
 172:keyboards/splitography/keymaps/thumbi/keymap.c **** #define LT_DEL  LT  (_EDIT, KC_DEL)
 173:keyboards/splitography/keymaps/thumbi/keymap.c **** #define LT_ESC  LT  (_LSYMBOL, KC_ESC)
 174:keyboards/splitography/keymaps/thumbi/keymap.c **** #define LT_I    LT  (_LSHIFT, KC_I)
 175:keyboards/splitography/keymaps/thumbi/keymap.c **** #define OS_ALT  OSM (MOD_LALT)
 176:keyboards/splitography/keymaps/thumbi/keymap.c **** #define OS_CTL  OSM (MOD_LCTL)
 177:keyboards/splitography/keymaps/thumbi/keymap.c **** #define OS_GUI  OSM (MOD_LGUI)
 178:keyboards/splitography/keymaps/thumbi/keymap.c **** #define OS_SFT  OSM (MOD_LSFT)
 179:keyboards/splitography/keymaps/thumbi/keymap.c **** 
 180:keyboards/splitography/keymaps/thumbi/keymap.c **** #ifdef CENTER_TT
 181:keyboards/splitography/keymaps/thumbi/keymap.c **** #define CNTR_TL TT  (_TTFNCKEY)
 182:keyboards/splitography/keymaps/thumbi/keymap.c **** #define CNTR_TR TT  (_TTCAPS)               // pseudo capslock to avoid TT key_timer conflicts
 183:keyboards/splitography/keymaps/thumbi/keymap.c **** #define CNTR_HL TT  (_TTCURSOR)
 184:keyboards/splitography/keymaps/thumbi/keymap.c **** #define CNTR_HR TT  (_TTMOUSE)
 185:keyboards/splitography/keymaps/thumbi/keymap.c **** #define CNTR_BL TT  (_TTNUMBER)
 186:keyboards/splitography/keymaps/thumbi/keymap.c **** #define CNTR_BR TT  (_TTREGEX)
 187:keyboards/splitography/keymaps/thumbi/keymap.c **** #else
 188:keyboards/splitography/keymaps/thumbi/keymap.c **** #define CNTR_TL OSM (MOD_LALT | MOD_LCTL)
 189:keyboards/splitography/keymaps/thumbi/keymap.c **** #define CNTR_TR OSM (MOD_LGUI | MOD_LCTL)
 190:keyboards/splitography/keymaps/thumbi/keymap.c **** #define CNTR_HL OSM (MOD_LALT | MOD_LSFT)
 191:keyboards/splitography/keymaps/thumbi/keymap.c **** #define CNTR_HR OSM (MOD_LGUI | MOD_LSFT)
 192:keyboards/splitography/keymaps/thumbi/keymap.c **** #define CNTR_BL TD  (_CAPS)
 193:keyboards/splitography/keymaps/thumbi/keymap.c **** #define CNTR_BR OSM (MOD_LSFT | MOD_LCTL)
 194:keyboards/splitography/keymaps/thumbi/keymap.c **** #endif
 195:keyboards/splitography/keymaps/thumbi/keymap.c **** 
 196:keyboards/splitography/keymaps/thumbi/keymap.c **** // ........................................................ Default Alpha Layout
 197:keyboards/splitography/keymaps/thumbi/keymap.c **** 
 198:keyboards/splitography/keymaps/thumbi/keymap.c **** const uint16_t PROGMEM keymaps[][MATRIX_ROWS][MATRIX_COLS] = {
 199:keyboards/splitography/keymaps/thumbi/keymap.c **** 
 200:keyboards/splitography/keymaps/thumbi/keymap.c **** #include "base_layout.h"
 201:keyboards/splitography/keymaps/thumbi/keymap.c **** #include "steno_layout.h"
 202:keyboards/splitography/keymaps/thumbi/keymap.c **** 
 203:keyboards/splitography/keymaps/thumbi/keymap.c **** // ...................................................... Number / Function Keys
 204:keyboards/splitography/keymaps/thumbi/keymap.c **** 
 205:keyboards/splitography/keymaps/thumbi/keymap.c **** #include "number_fkey_layout.h"
 206:keyboards/splitography/keymaps/thumbi/keymap.c **** 
 207:keyboards/splitography/keymaps/thumbi/keymap.c **** // ......................................................... Symbol / Navigation
 208:keyboards/splitography/keymaps/thumbi/keymap.c **** 
 209:keyboards/splitography/keymaps/thumbi/keymap.c **** #include "symbol_guifn_layout.h"
 210:keyboards/splitography/keymaps/thumbi/keymap.c **** 
 211:keyboards/splitography/keymaps/thumbi/keymap.c **** // ............................................................... Toggle Layers
 212:keyboards/splitography/keymaps/thumbi/keymap.c **** 
 213:keyboards/splitography/keymaps/thumbi/keymap.c **** #ifdef CENTER_TT
 214:keyboards/splitography/keymaps/thumbi/keymap.c **** #include "toggle_layout.h"
 215:keyboards/splitography/keymaps/thumbi/keymap.c **** #endif
 216:keyboards/splitography/keymaps/thumbi/keymap.c **** 
 217:keyboards/splitography/keymaps/thumbi/keymap.c **** // ......................................................... Short Cuts / Adjust
 218:keyboards/splitography/keymaps/thumbi/keymap.c **** 
 219:keyboards/splitography/keymaps/thumbi/keymap.c **** #include "chord_layout.h"
 220:keyboards/splitography/keymaps/thumbi/keymap.c **** 
 221:keyboards/splitography/keymaps/thumbi/keymap.c **** };
 222:keyboards/splitography/keymaps/thumbi/keymap.c **** 
 223:keyboards/splitography/keymaps/thumbi/keymap.c **** // ...................................................................... Sounds
 224:keyboards/splitography/keymaps/thumbi/keymap.c **** 
 225:keyboards/splitography/keymaps/thumbi/keymap.c **** #include "sounds.h"
 226:keyboards/splitography/keymaps/thumbi/keymap.c **** 
 227:keyboards/splitography/keymaps/thumbi/keymap.c **** // ........................................................... User Keycode Trap
 228:keyboards/splitography/keymaps/thumbi/keymap.c **** 
 229:keyboards/splitography/keymaps/thumbi/keymap.c **** #include "keycode_functions.c"
 230:keyboards/splitography/keymaps/thumbi/keymap.c **** 
 231:keyboards/splitography/keymaps/thumbi/keymap.c **** #define BASE_1  1
 232:keyboards/splitography/keymaps/thumbi/keymap.c **** #define BASE_2  2
 233:keyboards/splitography/keymaps/thumbi/keymap.c **** #define BASE_12 3
 234:keyboards/splitography/keymaps/thumbi/keymap.c **** static uint8_t base_n    = 0;
 235:keyboards/splitography/keymaps/thumbi/keymap.c **** static uint8_t down_rule = 0;               // (1) substitute keycode (2) keycode+shift, see tap_lt
 236:keyboards/splitography/keymaps/thumbi/keymap.c **** 
 237:keyboards/splitography/keymaps/thumbi/keymap.c **** bool process_record_user(uint16_t keycode, keyrecord_t *record)
 238:keyboards/splitography/keymaps/thumbi/keymap.c **** {
 2721               		.loc 4 238 0
 2722               		.cfi_startproc
 2723               	.LVL354:
 2724 0000 CF92      		push r12
 2725               	.LCFI79:
 2726               		.cfi_def_cfa_offset 3
 2727               		.cfi_offset 12, -2
 2728 0002 DF92      		push r13
 2729               	.LCFI80:
 2730               		.cfi_def_cfa_offset 4
 2731               		.cfi_offset 13, -3
 2732 0004 EF92      		push r14
 2733               	.LCFI81:
 2734               		.cfi_def_cfa_offset 5
 2735               		.cfi_offset 14, -4
 2736 0006 0F93      		push r16
 2737               	.LCFI82:
 2738               		.cfi_def_cfa_offset 6
 2739               		.cfi_offset 16, -5
 2740 0008 CF93      		push r28
 2741               	.LCFI83:
 2742               		.cfi_def_cfa_offset 7
 2743               		.cfi_offset 28, -6
 2744 000a DF93      		push r29
 2745               	.LCFI84:
 2746               		.cfi_def_cfa_offset 8
 2747               		.cfi_offset 29, -7
 2748               	/* prologue: function */
 2749               	/* frame size = 0 */
 2750               	/* stack size = 6 */
 2751               	.L__stack_usage = 6
 2752 000c EC01      		movw r28,r24
 2753 000e 6B01      		movw r12,r22
 239:keyboards/splitography/keymaps/thumbi/keymap.c ****   switch (keycode) {
 2754               		.loc 4 239 0
 2755 0010 CC3D      		cpi r28,-36
 2756 0012 8CE5      		ldi r24,92
 2757 0014 D807      		cpc r29,r24
 2758 0016 01F4      		brne .+2
 2759 0018 00C0      		rjmp .L207
 2760               	.LVL355:
 2761 001a 00F0      		brlo .+2
 2762 001c 00C0      		rjmp .L208
 2763 001e CA32      		cpi r28,42
 2764 0020 FDE4      		ldi r31,77
 2765 0022 DF07      		cpc r29,r31
 2766 0024 01F4      		brne .+2
 2767 0026 00C0      		rjmp .L209
 2768 0028 00F0      		brlo .+2
 2769 002a 00C0      		rjmp .L210
 2770 002c C833      		cpi r28,56
 2771 002e E2E0      		ldi r30,2
 2772 0030 DE07      		cpc r29,r30
 2773 0032 01F4      		brne .+2
 2774 0034 00C0      		rjmp .L211
 2775 0036 00F4      		brsh .L212
 2776 0038 C633      		cpi r28,54
 2777 003a D105      		cpc r29,__zero_reg__
 2778 003c 01F4      		brne .+2
 2779 003e 00C0      		rjmp .L213
 2780 0040 C733      		cpi r28,55
 2781 0042 D105      		cpc r29,__zero_reg__
 2782 0044 01F4      		brne .+2
 2783 0046 00C0      		rjmp .L214
 2784 0048 AB97      		sbiw r28,43
 2785 004a 01F0      		breq .+2
 2786 004c 00C0      		rjmp .L206
 240:keyboards/splitography/keymaps/thumbi/keymap.c ****   case BASE1:
 241:keyboards/splitography/keymaps/thumbi/keymap.c ****     if (record->event.pressed) {
 242:keyboards/splitography/keymaps/thumbi/keymap.c ****       base_n = base_n | BASE_1;
 243:keyboards/splitography/keymaps/thumbi/keymap.c ****       if (base_n == BASE_12) { base_layer(); }
 244:keyboards/splitography/keymaps/thumbi/keymap.c ****     }
 245:keyboards/splitography/keymaps/thumbi/keymap.c ****     else { base_n = base_n & ~BASE_1; }
 246:keyboards/splitography/keymaps/thumbi/keymap.c ****     return false;
 247:keyboards/splitography/keymaps/thumbi/keymap.c ****   case BASE2:
 248:keyboards/splitography/keymaps/thumbi/keymap.c ****     if (record->event.pressed) {
 249:keyboards/splitography/keymaps/thumbi/keymap.c ****       base_n = base_n | BASE_2;
 250:keyboards/splitography/keymaps/thumbi/keymap.c ****       if (base_n == BASE_12) { base_layer(); }
 251:keyboards/splitography/keymaps/thumbi/keymap.c ****     }
 252:keyboards/splitography/keymaps/thumbi/keymap.c ****     else { base_n = base_n & ~BASE_2; }
 253:keyboards/splitography/keymaps/thumbi/keymap.c ****     return false;
 254:keyboards/splitography/keymaps/thumbi/keymap.c **** #ifdef HOME_MODS
 255:keyboards/splitography/keymaps/thumbi/keymap.c ****   case HOME_Q:
 256:keyboards/splitography/keymaps/thumbi/keymap.c ****   case HOME_W:
 257:keyboards/splitography/keymaps/thumbi/keymap.c ****     tap_mods(record, KC_LGUI);
 258:keyboards/splitography/keymaps/thumbi/keymap.c ****     break;
 259:keyboards/splitography/keymaps/thumbi/keymap.c ****   case HOME_H:
 260:keyboards/splitography/keymaps/thumbi/keymap.c ****   case HOME_S:
 261:keyboards/splitography/keymaps/thumbi/keymap.c ****     tap_mods(record, KC_LCTL);
 262:keyboards/splitography/keymaps/thumbi/keymap.c ****     break;
 263:keyboards/splitography/keymaps/thumbi/keymap.c ****   case HOME_E:
 264:keyboards/splitography/keymaps/thumbi/keymap.c ****   case HOME_R:
 265:keyboards/splitography/keymaps/thumbi/keymap.c ****     tap_mods(record, KC_LALT);
 266:keyboards/splitography/keymaps/thumbi/keymap.c ****     break;
 267:keyboards/splitography/keymaps/thumbi/keymap.c ****   case ST_SPC:
 268:keyboards/splitography/keymaps/thumbi/keymap.c ****     if (map_shift(record, KC_RSFT, NOSHIFT, KC_ENT)) { unregister_code(KC_ENT); return false; }
 269:keyboards/splitography/keymaps/thumbi/keymap.c ****   case HOME_A:
 270:keyboards/splitography/keymaps/thumbi/keymap.c ****     tap_mods(record, KC_LSFT);
 271:keyboards/splitography/keymaps/thumbi/keymap.c ****     break;
 272:keyboards/splitography/keymaps/thumbi/keymap.c ****   case SM_I:
 273:keyboards/splitography/keymaps/thumbi/keymap.c ****     mt_shift(record, KC_LSFT, 0, KC_I);
 274:keyboards/splitography/keymaps/thumbi/keymap.c ****   case HOME_T:
 275:keyboards/splitography/keymaps/thumbi/keymap.c ****     tap_mods(record, KC_RSFT);
 276:keyboards/splitography/keymaps/thumbi/keymap.c ****     break;
 277:keyboards/splitography/keymaps/thumbi/keymap.c ****   // special shift layer mappings
 278:keyboards/splitography/keymaps/thumbi/keymap.c ****   case KC_DOT:
 279:keyboards/splitography/keymaps/thumbi/keymap.c ****     if (record->event.pressed) { down_rule = 2; } // dot+space/enter+shift shortcut, see tap_lt()
 280:keyboards/splitography/keymaps/thumbi/keymap.c ****     else                       { down_rule = 0; }
 281:keyboards/splitography/keymaps/thumbi/keymap.c ****     if (map_shift(record, KC_RSFT, SHIFT, KC_GRV)) { return false; }
 282:keyboards/splitography/keymaps/thumbi/keymap.c ****     if (map_shift(record, KC_LSFT, SHIFT, KC_SLSH)) { return false; }
 283:keyboards/splitography/keymaps/thumbi/keymap.c ****     break;
 284:keyboards/splitography/keymaps/thumbi/keymap.c ****   case KC_QUES:
 285:keyboards/splitography/keymaps/thumbi/keymap.c ****     down_rule = 0;                          // trap layer switching timimg issue between . and ?
 286:keyboards/splitography/keymaps/thumbi/keymap.c ****     break;
 287:keyboards/splitography/keymaps/thumbi/keymap.c ****   case KC_COMM:
 288:keyboards/splitography/keymaps/thumbi/keymap.c ****     if (map_shift(record, KC_RSFT, SHIFT, KC_1)) { return false; }
 289:keyboards/splitography/keymaps/thumbi/keymap.c ****     if (map_shift(record, KC_LSFT, SHIFT, KC_1)) { return false; }
 290:keyboards/splitography/keymaps/thumbi/keymap.c ****     break;
 291:keyboards/splitography/keymaps/thumbi/keymap.c **** #endif
 292:keyboards/splitography/keymaps/thumbi/keymap.c **** #ifdef CENTER_TT
 293:keyboards/splitography/keymaps/thumbi/keymap.c ****   case TT_ESC:
 294:keyboards/splitography/keymaps/thumbi/keymap.c ****     if (map_shift(record, KC_LSFT, NOSHIFT, KC_TAB)) { return false; }
 295:keyboards/splitography/keymaps/thumbi/keymap.c ****     tt_clear();                             // exit TT layer
 296:keyboards/splitography/keymaps/thumbi/keymap.c ****     return false;
 297:keyboards/splitography/keymaps/thumbi/keymap.c **** #endif
 298:keyboards/splitography/keymaps/thumbi/keymap.c ****   case KC_TAB:
 299:keyboards/splitography/keymaps/thumbi/keymap.c ****     if (record->event.pressed) { down_rule = 1; } // tab+enter thumb roll, see tap_lt()
 2787               		.loc 4 299 0
 2788 004e FB01      		movw r30,r22
 2789 0050 8281      		ldd r24,Z+2
 2790 0052 8823      		tst r24
 2791 0054 01F4      		brne .+2
 2792 0056 00C0      		rjmp .L250
 2793               		.loc 4 299 0 is_stmt 0 discriminator 1
 2794 0058 81E0      		ldi r24,lo8(1)
 2795 005a 8093 0000 		sts down_rule,r24
 2796               	.L251:
 300:keyboards/splitography/keymaps/thumbi/keymap.c ****     else                       { down_rule = 0; }
 301:keyboards/splitography/keymaps/thumbi/keymap.c ****     if (raise_number(record, LEFT)) { return false; }
 2797               		.loc 4 301 0 is_stmt 1
 2798 005e 61E0      		ldi r22,lo8(1)
 2799               	.LVL356:
 2800 0060 C601      		movw r24,r12
 2801 0062 0E94 0000 		call raise_number
 2802               	.LVL357:
 2803               	.L309:
 302:keyboards/splitography/keymaps/thumbi/keymap.c ****     break;
 303:keyboards/splitography/keymaps/thumbi/keymap.c ****   case OS_ALT:
 304:keyboards/splitography/keymaps/thumbi/keymap.c ****     tap_mods(record, KC_LALT);
 305:keyboards/splitography/keymaps/thumbi/keymap.c ****     break;
 306:keyboards/splitography/keymaps/thumbi/keymap.c ****   case OS_CTL:
 307:keyboards/splitography/keymaps/thumbi/keymap.c ****     tap_mods(record, KC_LCTL);
 308:keyboards/splitography/keymaps/thumbi/keymap.c ****     break;
 309:keyboards/splitography/keymaps/thumbi/keymap.c ****   case OS_GUI:
 310:keyboards/splitography/keymaps/thumbi/keymap.c ****     tap_mods(record, KC_LGUI);
 311:keyboards/splitography/keymaps/thumbi/keymap.c ****     break;
 312:keyboards/splitography/keymaps/thumbi/keymap.c ****   case SM_G:
 313:keyboards/splitography/keymaps/thumbi/keymap.c ****     mt_shift(record, KC_LALT, KC_LSFT, KC_G);
 314:keyboards/splitography/keymaps/thumbi/keymap.c ****     break;
 315:keyboards/splitography/keymaps/thumbi/keymap.c ****   case SA_PERC:
 316:keyboards/splitography/keymaps/thumbi/keymap.c ****     mt_shift(record, KC_LALT, 0, KC_5);
 317:keyboards/splitography/keymaps/thumbi/keymap.c ****     break;
 318:keyboards/splitography/keymaps/thumbi/keymap.c ****   case SG_TILD:
 319:keyboards/splitography/keymaps/thumbi/keymap.c ****     mt_shift(record, KC_LGUI, 0, KC_GRV);
 320:keyboards/splitography/keymaps/thumbi/keymap.c ****     break;
 321:keyboards/splitography/keymaps/thumbi/keymap.c ****   case LT_I:
 322:keyboards/splitography/keymaps/thumbi/keymap.c ****     if (map_shift(record, KC_LSFT, NOSHIFT, KC_SPC)) { return false; }
 323:keyboards/splitography/keymaps/thumbi/keymap.c ****     if (raise_number(record, RIGHT)) { return false; }
 324:keyboards/splitography/keymaps/thumbi/keymap.c ****     tap_layer(record, _LSHIFT);
 325:keyboards/splitography/keymaps/thumbi/keymap.c ****     break;
 326:keyboards/splitography/keymaps/thumbi/keymap.c ****   case TD_ENT:
 327:keyboards/splitography/keymaps/thumbi/keymap.c ****     if (record->event.pressed) { tap_rule = down_rule; } // down_rule persistance for tap_lt()
 328:keyboards/splitography/keymaps/thumbi/keymap.c ****     break;
 329:keyboards/splitography/keymaps/thumbi/keymap.c ****   case TD_SPC:
 330:keyboards/splitography/keymaps/thumbi/keymap.c ****     if (record->event.pressed) { tap_rule = down_rule; } // down_rule persistance for tap_lt()
 331:keyboards/splitography/keymaps/thumbi/keymap.c ****     // trap potential repeating enter caused by tap dance definition
 332:keyboards/splitography/keymaps/thumbi/keymap.c ****     if (map_shift(record, KC_RSFT, NOSHIFT, KC_ENT)) { unregister_code(KC_ENT); return false; }
 333:keyboards/splitography/keymaps/thumbi/keymap.c ****     tap_layer(record, _RSHIFT);
 334:keyboards/splitography/keymaps/thumbi/keymap.c ****     break;
 335:keyboards/splitography/keymaps/thumbi/keymap.c ****   case LT_ESC:
 336:keyboards/splitography/keymaps/thumbi/keymap.c ****     if (map_shift(record, KC_LSFT, NOSHIFT, KC_TAB)) { return false; }
 337:keyboards/splitography/keymaps/thumbi/keymap.c ****     if (raise_number(record, LEFT)) { return false; }
 338:keyboards/splitography/keymaps/thumbi/keymap.c **** #ifdef CENTER_TT
 339:keyboards/splitography/keymaps/thumbi/keymap.c ****     if (tt_keycode != 0) {
 340:keyboards/splitography/keymaps/thumbi/keymap.c ****       tt_clear();                           // exit TT layer
 341:keyboards/splitography/keymaps/thumbi/keymap.c ****       return false;
 342:keyboards/splitography/keymaps/thumbi/keymap.c ****     }
 343:keyboards/splitography/keymaps/thumbi/keymap.c **** #endif
 344:keyboards/splitography/keymaps/thumbi/keymap.c ****     tap_layer(record, _LSYMBOL);
 345:keyboards/splitography/keymaps/thumbi/keymap.c ****     thumb_roll(record, LEFT, 0, 0, _LSYMBOL, _RSYMBOL);
 346:keyboards/splitography/keymaps/thumbi/keymap.c ****     break;
 347:keyboards/splitography/keymaps/thumbi/keymap.c ****   case SL_TAB:
 348:keyboards/splitography/keymaps/thumbi/keymap.c ****     thumb_roll(record, LEFT, SHIFT, KC_TAB, _MOUSE, _RSYMBOL);
 349:keyboards/splitography/keymaps/thumbi/keymap.c ****     break;
 350:keyboards/splitography/keymaps/thumbi/keymap.c ****   case SL_DEL:
 351:keyboards/splitography/keymaps/thumbi/keymap.c ****     thumb_roll(record, RIGHT, NOSHIFT, KC_DEL, _MOUSE, _LSYMBOL);
 352:keyboards/splitography/keymaps/thumbi/keymap.c ****     break;
 353:keyboards/splitography/keymaps/thumbi/keymap.c ****   case TT_BSPC:
 354:keyboards/splitography/keymaps/thumbi/keymap.c ****     if (map_shift(record, KC_RSFT, NOSHIFT, KC_DEL)) { return false; }
 2804               		.loc 4 354 0
 2805 0066 91E0      		ldi r25,lo8(1)
 2806 0068 8927      		eor r24,r25
 2807 006a 00C0      		rjmp .L205
 2808               	.L212:
 239:keyboards/splitography/keymaps/thumbi/keymap.c ****   case BASE1:
 2809               		.loc 4 239 0
 2810 006c C932      		cpi r28,41
 2811 006e 84E4      		ldi r24,68
 2812 0070 D807      		cpc r29,r24
 2813 0072 01F4      		brne .+2
 2814 0074 00C0      		rjmp .L216
 2815 0076 CA32      		cpi r28,42
 2816 0078 E5E4      		ldi r30,69
 2817 007a DE07      		cpc r29,r30
 2818 007c 01F4      		brne .+2
 2819 007e 00C0      		rjmp .L217
 2820 0080 CC30      		cpi r28,12
 2821 0082 D244      		sbci r29,66
 2822 0084 01F4      		brne .L206
 322:keyboards/splitography/keymaps/thumbi/keymap.c ****     if (raise_number(record, RIGHT)) { return false; }
 2823               		.loc 4 322 0
 2824 0086 2CE2      		ldi r18,lo8(44)
 2825 0088 30E0      		ldi r19,0
 2826 008a 40E0      		ldi r20,0
 2827 008c 61EE      		ldi r22,lo8(-31)
 2828 008e 70E0      		ldi r23,0
 2829 0090 C601      		movw r24,r12
 2830 0092 0E94 0000 		call map_shift
 2831               	.LVL358:
 2832 0096 8111      		cpse r24,__zero_reg__
 2833 0098 00C0      		rjmp .L307
 323:keyboards/splitography/keymaps/thumbi/keymap.c ****     tap_layer(record, _LSHIFT);
 2834               		.loc 4 323 0
 2835 009a 62E0      		ldi r22,lo8(2)
 2836 009c C601      		movw r24,r12
 2837 009e 0E94 0000 		call raise_number
 2838               	.LVL359:
 324:keyboards/splitography/keymaps/thumbi/keymap.c ****     break;
 2839               		.loc 4 324 0
 2840 00a2 62E0      		ldi r22,lo8(2)
 323:keyboards/splitography/keymaps/thumbi/keymap.c ****     tap_layer(record, _LSHIFT);
 2841               		.loc 4 323 0
 2842 00a4 8111      		cpse r24,__zero_reg__
 2843 00a6 00C0      		rjmp .L307
 2844               	.L316:
 333:keyboards/splitography/keymaps/thumbi/keymap.c ****     break;
 2845               		.loc 4 333 0
 2846 00a8 C601      		movw r24,r12
 2847 00aa 0E94 0000 		call tap_layer
 2848               	.LVL360:
 2849 00ae 00C0      		rjmp .L256
 2850               	.L210:
 239:keyboards/splitography/keymaps/thumbi/keymap.c ****   case BASE1:
 2851               		.loc 4 239 0
 2852 00b0 C430      		cpi r28,4
 2853 00b2 87E5      		ldi r24,87
 2854 00b4 D807      		cpc r29,r24
 2855 00b6 01F4      		brne .+2
 2856 00b8 00C0      		rjmp .L219
 2857 00ba 00F4      		brsh .L220
 2858 00bc C430      		cpi r28,4
 2859 00be F5E5      		ldi r31,85
 2860 00c0 DF07      		cpc r29,r31
 2861 00c2 01F4      		brne .+2
 2862 00c4 00C0      		rjmp .L221
 2863 00c6 C830      		cpi r28,8
 2864 00c8 85E5      		ldi r24,85
 2865 00ca D807      		cpc r29,r24
 2866 00cc 01F4      		brne .+2
 2867 00ce 00C0      		rjmp .L222
 2868 00d0 C130      		cpi r28,1
 2869 00d2 D545      		sbci r29,85
 2870 00d4 01F4      		brne .L206
 2871               	.L223:
 261:keyboards/splitography/keymaps/thumbi/keymap.c ****     break;
 2872               		.loc 4 261 0
 2873 00d6 60EE      		ldi r22,lo8(-32)
 2874 00d8 70E0      		ldi r23,0
 2875 00da 00C0      		rjmp .L313
 2876               	.L220:
 239:keyboards/splitography/keymaps/thumbi/keymap.c ****   case BASE1:
 2877               		.loc 4 239 0
 2878 00dc C131      		cpi r28,17
 2879 00de F8E5      		ldi r31,88
 2880 00e0 DF07      		cpc r29,r31
 2881 00e2 00F4      		brsh .L224
 2882 00e4 CB30      		cpi r28,11
 2883 00e6 88E5      		ldi r24,88
 2884 00e8 D807      		cpc r29,r24
 2885 00ea 00F0      		brlo .+2
 2886 00ec 00C0      		rjmp .L225
 2887 00ee CA30      		cpi r28,10
 2888 00f0 D745      		sbci r29,87
 2889 00f2 01F4      		brne .+2
 2890 00f4 00C0      		rjmp .L226
 2891               	.L206:
 355:keyboards/splitography/keymaps/thumbi/keymap.c ****     break;
 356:keyboards/splitography/keymaps/thumbi/keymap.c ****   case LT_BSPC:
 357:keyboards/splitography/keymaps/thumbi/keymap.c ****     if (map_shift(record, KC_RSFT, NOSHIFT, KC_DEL)) { return false; }
 358:keyboards/splitography/keymaps/thumbi/keymap.c ****     tap_layer(record, _RSYMBOL);
 359:keyboards/splitography/keymaps/thumbi/keymap.c ****     thumb_roll(record, RIGHT, 0, 0, _RSYMBOL, _LSYMBOL);
 360:keyboards/splitography/keymaps/thumbi/keymap.c ****     break;
 361:keyboards/splitography/keymaps/thumbi/keymap.c **** #ifdef CENTER_TT
 362:keyboards/splitography/keymaps/thumbi/keymap.c ****   case CNTR_TL:
 363:keyboards/splitography/keymaps/thumbi/keymap.c ****   case CNTR_TR:
 364:keyboards/splitography/keymaps/thumbi/keymap.c ****   case CNTR_HL:
 365:keyboards/splitography/keymaps/thumbi/keymap.c ****   case CNTR_HR:
 366:keyboards/splitography/keymaps/thumbi/keymap.c ****   case CNTR_BL:
 367:keyboards/splitography/keymaps/thumbi/keymap.c ****   case CNTR_BR:
 368:keyboards/splitography/keymaps/thumbi/keymap.c ****     // return to base layer first if different TT layer selected
 369:keyboards/splitography/keymaps/thumbi/keymap.c ****     if (tt_keycode != keycode && tt_keycode != 0) { tt_clear(); }
 370:keyboards/splitography/keymaps/thumbi/keymap.c ****     tt_escape(record, keycode);
 371:keyboards/splitography/keymaps/thumbi/keymap.c ****     break;
 372:keyboards/splitography/keymaps/thumbi/keymap.c **** #endif
 373:keyboards/splitography/keymaps/thumbi/keymap.c **** // #ifdef STENO_ENABLE
 374:keyboards/splitography/keymaps/thumbi/keymap.c **** //   case PS_STNA:
 375:keyboards/splitography/keymaps/thumbi/keymap.c **** //     stn_layer(record, STN_A, _LSYMBOL);
 376:keyboards/splitography/keymaps/thumbi/keymap.c **** //     break;
 377:keyboards/splitography/keymaps/thumbi/keymap.c **** //   case PS_STNO:
 378:keyboards/splitography/keymaps/thumbi/keymap.c **** //     stn_layer(record, STN_O, _NUMBER);
 379:keyboards/splitography/keymaps/thumbi/keymap.c **** //     break;
 380:keyboards/splitography/keymaps/thumbi/keymap.c **** //   case PS_STNE:
 381:keyboards/splitography/keymaps/thumbi/keymap.c **** //     stn_layer(record, STN_E, _FNCKEY);
 382:keyboards/splitography/keymaps/thumbi/keymap.c **** //     break;
 383:keyboards/splitography/keymaps/thumbi/keymap.c **** //   case PS_STNU:
 384:keyboards/splitography/keymaps/thumbi/keymap.c **** //     stn_layer(record, STN_U, _RSYMBOL);
 385:keyboards/splitography/keymaps/thumbi/keymap.c **** //     break;
 386:keyboards/splitography/keymaps/thumbi/keymap.c **** // #endif
 387:keyboards/splitography/keymaps/thumbi/keymap.c ****   case PLOVER:
 388:keyboards/splitography/keymaps/thumbi/keymap.c ****     steno(record);
 389:keyboards/splitography/keymaps/thumbi/keymap.c ****     return false;
 390:keyboards/splitography/keymaps/thumbi/keymap.c ****   default:
 391:keyboards/splitography/keymaps/thumbi/keymap.c ****     key_timer = 0;                          // regular keycode, clear timer in keycode_functions.h
 2892               		.loc 4 391 0
 2893 00f6 1092 0000 		sts key_timer+1,__zero_reg__
 2894 00fa 1092 0000 		sts key_timer,__zero_reg__
 2895 00fe 00C0      		rjmp .L256
 2896               	.L224:
 239:keyboards/splitography/keymaps/thumbi/keymap.c ****   case BASE1:
 2897               		.loc 4 239 0
 2898 0100 CB3D      		cpi r28,-37
 2899 0102 DC45      		sbci r29,92
 2900 0104 01F4      		brne .L206
 241:keyboards/splitography/keymaps/thumbi/keymap.c ****       base_n = base_n | BASE_1;
 2901               		.loc 4 241 0
 2902 0106 FB01      		movw r30,r22
 2903 0108 8281      		ldd r24,Z+2
 2904 010a 9091 0000 		lds r25,base_n
 2905 010e 8823      		tst r24
 2906 0110 01F4      		brne .+2
 2907 0112 00C0      		rjmp .L243
 242:keyboards/splitography/keymaps/thumbi/keymap.c ****       if (base_n == BASE_12) { base_layer(); }
 2908               		.loc 4 242 0
 2909 0114 9160      		ori r25,lo8(1)
 2910               	.L306:
 2911 0116 9093 0000 		sts base_n,r25
 243:keyboards/splitography/keymaps/thumbi/keymap.c ****     }
 2912               		.loc 4 243 0
 2913 011a 9330      		cpi r25,lo8(3)
 2914 011c 01F4      		brne .+2
 2915 011e 00C0      		rjmp .L244
 2916               	.L307:
 389:keyboards/splitography/keymaps/thumbi/keymap.c ****   default:
 2917               		.loc 4 389 0
 2918 0120 80E0      		ldi r24,0
 2919 0122 00C0      		rjmp .L205
 2920               	.L208:
 239:keyboards/splitography/keymaps/thumbi/keymap.c ****   case BASE1:
 2921               		.loc 4 239 0
 2922 0124 CB30      		cpi r28,11
 2923 0126 81E6      		ldi r24,97
 2924 0128 D807      		cpc r29,r24
 2925 012a 01F0      		breq .L223
 2926 012c 00F4      		brsh .L228
 2927 012e C03E      		cpi r28,-32
 2928 0130 FCE5      		ldi r31,92
 2929 0132 DF07      		cpc r29,r31
 2930 0134 01F4      		brne .+2
 2931 0136 00C0      		rjmp .L229
 2932 0138 00F4      		brsh .L230
 2933 013a CE3D      		cpi r28,-34
 2934 013c ECE5      		ldi r30,92
 2935 013e DE07      		cpc r29,r30
 2936 0140 01F4      		brne .+2
 2937 0142 00C0      		rjmp .L231
 2938 0144 00F4      		brsh .+2
 2939 0146 00C0      		rjmp .L305
 273:keyboards/splitography/keymaps/thumbi/keymap.c ****   case HOME_T:
 2940               		.loc 4 273 0
 2941 0148 2CE0      		ldi r18,lo8(12)
 2942 014a 30E0      		ldi r19,0
 2943 014c 50E0      		ldi r21,0
 2944 014e 40E0      		ldi r20,0
 2945 0150 61EE      		ldi r22,lo8(-31)
 2946 0152 70E0      		ldi r23,0
 2947 0154 C601      		movw r24,r12
 2948 0156 0E94 0000 		call mt_shift
 2949               	.LVL361:
 2950               	.L241:
 275:keyboards/splitography/keymaps/thumbi/keymap.c ****     break;
 2951               		.loc 4 275 0
 2952 015a 65EE      		ldi r22,lo8(-27)
 2953 015c 70E0      		ldi r23,0
 2954 015e 00C0      		rjmp .L313
 2955               	.L230:
 239:keyboards/splitography/keymaps/thumbi/keymap.c ****   case BASE1:
 2956               		.loc 4 239 0
 2957 0160 C23E      		cpi r28,-30
 2958 0162 8CE5      		ldi r24,92
 2959 0164 D807      		cpc r29,r24
 2960 0166 01F4      		brne .+2
 2961 0168 00C0      		rjmp .L234
 2962 016a 00F4      		brsh .+2
 2963 016c 00C0      		rjmp .L235
 2964 016e C33E      		cpi r28,-29
 2965 0170 FCE5      		ldi r31,92
 2966 0172 DF07      		cpc r29,r31
 2967 0174 01F4      		brne .+2
 2968 0176 00C0      		rjmp .L236
 2969 0178 C43E      		cpi r28,-28
 2970 017a DC45      		sbci r29,92
 2971 017c 01F0      		breq .+2
 2972 017e 00C0      		rjmp .L206
 294:keyboards/splitography/keymaps/thumbi/keymap.c ****     tt_clear();                             // exit TT layer
 2973               		.loc 4 294 0
 2974 0180 2BE2      		ldi r18,lo8(43)
 2975 0182 30E0      		ldi r19,0
 2976 0184 40E0      		ldi r20,0
 2977 0186 61EE      		ldi r22,lo8(-31)
 2978 0188 70E0      		ldi r23,0
 2979 018a C601      		movw r24,r12
 2980 018c 0E94 0000 		call map_shift
 2981               	.LVL362:
 2982 0190 8111      		cpse r24,__zero_reg__
 2983 0192 00C0      		rjmp .L307
 2984               	.L254:
 295:keyboards/splitography/keymaps/thumbi/keymap.c ****     return false;
 2985               		.loc 4 295 0
 2986 0194 0E94 0000 		call tt_clear
 2987               	.LVL363:
 2988 0198 00C0      		rjmp .L307
 2989               	.L228:
 239:keyboards/splitography/keymaps/thumbi/keymap.c ****   case BASE1:
 2990               		.loc 4 239 0
 2991 019a CC32      		cpi r28,44
 2992 019c E2E6      		ldi r30,98
 2993 019e DE07      		cpc r29,r30
 2994 01a0 01F4      		brne .+2
 2995 01a2 00C0      		rjmp .L238
 2996 01a4 00F4      		brsh .L239
 2997 01a6 C430      		cpi r28,4
 2998 01a8 82E6      		ldi r24,98
 2999 01aa D807      		cpc r29,r24
 3000 01ac 01F4      		brne .+2
 3001 01ae 00C0      		rjmp .L240
 3002 01b0 C731      		cpi r28,23
 3003 01b2 E2E6      		ldi r30,98
 3004 01b4 DE07      		cpc r29,r30
 3005 01b6 01F0      		breq .L241
 3006 01b8 C631      		cpi r28,22
 3007 01ba D146      		sbci r29,97
 3008 01bc 01F0      		breq .+2
 3009 01be 00C0      		rjmp .L206
 3010 01c0 00C0      		rjmp .L223
 3011               	.L239:
 3012 01c2 C531      		cpi r28,21
 3013 01c4 84E6      		ldi r24,100
 3014 01c6 D807      		cpc r29,r24
 3015 01c8 01F0      		breq .L221
 3016 01ca 00F4      		brsh .L242
 3017 01cc C830      		cpi r28,8
 3018 01ce D446      		sbci r29,100
 3019 01d0 01F0      		breq .+2
 3020 01d2 00C0      		rjmp .L206
 3021               	.L221:
 265:keyboards/splitography/keymaps/thumbi/keymap.c ****     break;
 3022               		.loc 4 265 0
 3023 01d4 62EE      		ldi r22,lo8(-30)
 3024 01d6 70E0      		ldi r23,0
 3025 01d8 00C0      		rjmp .L313
 3026               	.L242:
 239:keyboards/splitography/keymaps/thumbi/keymap.c ****   case BASE1:
 3027               		.loc 4 239 0
 3028 01da C431      		cpi r28,20
 3029 01dc 88E6      		ldi r24,104
 3030 01de D807      		cpc r29,r24
 3031 01e0 01F0      		breq .L222
 3032 01e2 CA31      		cpi r28,26
 3033 01e4 D846      		sbci r29,104
 3034 01e6 01F0      		breq .+2
 3035 01e8 00C0      		rjmp .L206
 3036               	.L222:
 257:keyboards/splitography/keymaps/thumbi/keymap.c ****     break;
 3037               		.loc 4 257 0
 3038 01ea 63EE      		ldi r22,lo8(-29)
 3039 01ec 70E0      		ldi r23,0
 3040               	.L313:
 275:keyboards/splitography/keymaps/thumbi/keymap.c ****     break;
 3041               		.loc 4 275 0
 3042 01ee C601      		movw r24,r12
 3043 01f0 0E94 0000 		call tap_mods
 3044               	.LVL364:
 3045               	.L256:
 392:keyboards/splitography/keymaps/thumbi/keymap.c ****   }
 393:keyboards/splitography/keymaps/thumbi/keymap.c ****   return true;
 3046               		.loc 4 393 0
 3047 01f4 81E0      		ldi r24,lo8(1)
 3048 01f6 00C0      		rjmp .L205
 3049               	.L244:
 243:keyboards/splitography/keymaps/thumbi/keymap.c ****     }
 3050               		.loc 4 243 0 discriminator 1
 3051 01f8 0E94 0000 		call base_layer
 3052               	.LVL365:
 3053 01fc 00C0      		rjmp .L307
 3054               	.L243:
 245:keyboards/splitography/keymaps/thumbi/keymap.c ****     return false;
 3055               		.loc 4 245 0
 3056 01fe 9E7F      		andi r25,lo8(-2)
 3057               	.L308:
 252:keyboards/splitography/keymaps/thumbi/keymap.c ****     return false;
 3058               		.loc 4 252 0
 3059 0200 9093 0000 		sts base_n,r25
 3060               	.L205:
 3061               	/* epilogue start */
 394:keyboards/splitography/keymaps/thumbi/keymap.c **** }
 3062               		.loc 4 394 0
 3063 0204 DF91      		pop r29
 3064 0206 CF91      		pop r28
 3065               	.LVL366:
 3066 0208 0F91      		pop r16
 3067 020a EF90      		pop r14
 3068 020c DF90      		pop r13
 3069 020e CF90      		pop r12
 3070               	.LVL367:
 3071 0210 0895      		ret
 3072               	.LVL368:
 3073               	.L207:
 248:keyboards/splitography/keymaps/thumbi/keymap.c ****       base_n = base_n | BASE_2;
 3074               		.loc 4 248 0
 3075 0212 FB01      		movw r30,r22
 3076 0214 8281      		ldd r24,Z+2
 3077 0216 9091 0000 		lds r25,base_n
 3078 021a 8823      		tst r24
 3079 021c 01F0      		breq .L246
 249:keyboards/splitography/keymaps/thumbi/keymap.c ****       if (base_n == BASE_12) { base_layer(); }
 3080               		.loc 4 249 0
 3081 021e 9260      		ori r25,lo8(2)
 3082 0220 00C0      		rjmp .L306
 3083               	.L246:
 252:keyboards/splitography/keymaps/thumbi/keymap.c ****     return false;
 3084               		.loc 4 252 0
 3085 0222 9D7F      		andi r25,lo8(-3)
 3086 0224 00C0      		rjmp .L308
 3087               	.L238:
 268:keyboards/splitography/keymaps/thumbi/keymap.c ****   case HOME_A:
 3088               		.loc 4 268 0
 3089 0226 28E2      		ldi r18,lo8(40)
 3090 0228 30E0      		ldi r19,0
 3091 022a 40E0      		ldi r20,0
 3092 022c 65EE      		ldi r22,lo8(-27)
 3093 022e 70E0      		ldi r23,0
 3094 0230 C601      		movw r24,r12
 3095 0232 0E94 0000 		call map_shift
 3096               	.LVL369:
 3097 0236 8823      		tst r24
 3098 0238 01F0      		breq .L240
 3099               	.L253:
 268:keyboards/splitography/keymaps/thumbi/keymap.c ****   case HOME_A:
 3100               		.loc 4 268 0 is_stmt 0 discriminator 1
 3101 023a 88E2      		ldi r24,lo8(40)
 3102 023c 0E94 0000 		call unregister_code
 3103               	.LVL370:
 3104 0240 00C0      		rjmp .L307
 3105               	.L240:
 270:keyboards/splitography/keymaps/thumbi/keymap.c ****     break;
 3106               		.loc 4 270 0 is_stmt 1
 3107 0242 61EE      		ldi r22,lo8(-31)
 3108 0244 70E0      		ldi r23,0
 3109 0246 00C0      		rjmp .L313
 3110               	.L214:
 279:keyboards/splitography/keymaps/thumbi/keymap.c ****     else                       { down_rule = 0; }
 3111               		.loc 4 279 0
 3112 0248 FB01      		movw r30,r22
 3113 024a 8281      		ldd r24,Z+2
 3114 024c 8823      		tst r24
 3115 024e 01F0      		breq .L248
 279:keyboards/splitography/keymaps/thumbi/keymap.c ****     else                       { down_rule = 0; }
 3116               		.loc 4 279 0 is_stmt 0 discriminator 1
 3117 0250 82E0      		ldi r24,lo8(2)
 3118 0252 8093 0000 		sts down_rule,r24
 3119               	.L249:
 281:keyboards/splitography/keymaps/thumbi/keymap.c ****     if (map_shift(record, KC_LSFT, SHIFT, KC_SLSH)) { return false; }
 3120               		.loc 4 281 0 is_stmt 1
 3121 0256 25E3      		ldi r18,lo8(53)
 3122 0258 30E0      		ldi r19,0
 3123 025a 41E0      		ldi r20,lo8(1)
 3124 025c 65EE      		ldi r22,lo8(-27)
 3125 025e 70E0      		ldi r23,0
 3126 0260 C601      		movw r24,r12
 3127 0262 0E94 0000 		call map_shift
 3128               	.LVL371:
 282:keyboards/splitography/keymaps/thumbi/keymap.c ****     break;
 3129               		.loc 4 282 0
 3130 0266 28E3      		ldi r18,lo8(56)
 3131 0268 30E0      		ldi r19,0
 281:keyboards/splitography/keymaps/thumbi/keymap.c ****     if (map_shift(record, KC_LSFT, SHIFT, KC_SLSH)) { return false; }
 3132               		.loc 4 281 0
 3133 026a 8111      		cpse r24,__zero_reg__
 3134 026c 00C0      		rjmp .L307
 3135               	.L311:
 289:keyboards/splitography/keymaps/thumbi/keymap.c ****     break;
 3136               		.loc 4 289 0
 3137 026e 41E0      		ldi r20,lo8(1)
 3138 0270 61EE      		ldi r22,lo8(-31)
 3139 0272 70E0      		ldi r23,0
 3140               	.L310:
 354:keyboards/splitography/keymaps/thumbi/keymap.c ****     break;
 3141               		.loc 4 354 0
 3142 0274 C601      		movw r24,r12
 3143 0276 0E94 0000 		call map_shift
 3144               	.LVL372:
 3145 027a 00C0      		rjmp .L309
 3146               	.L248:
 280:keyboards/splitography/keymaps/thumbi/keymap.c ****     if (map_shift(record, KC_RSFT, SHIFT, KC_GRV)) { return false; }
 3147               		.loc 4 280 0
 3148 027c 1092 0000 		sts down_rule,__zero_reg__
 3149 0280 00C0      		rjmp .L249
 3150               	.L211:
 285:keyboards/splitography/keymaps/thumbi/keymap.c ****     break;
 3151               		.loc 4 285 0
 3152 0282 1092 0000 		sts down_rule,__zero_reg__
 3153 0286 00C0      		rjmp .L256
 3154               	.L213:
 288:keyboards/splitography/keymaps/thumbi/keymap.c ****     if (map_shift(record, KC_LSFT, SHIFT, KC_1)) { return false; }
 3155               		.loc 4 288 0
 3156 0288 2EE1      		ldi r18,lo8(30)
 3157 028a 30E0      		ldi r19,0
 3158 028c 41E0      		ldi r20,lo8(1)
 3159 028e 65EE      		ldi r22,lo8(-27)
 3160 0290 70E0      		ldi r23,0
 3161 0292 C601      		movw r24,r12
 3162 0294 0E94 0000 		call map_shift
 3163               	.LVL373:
 3164 0298 8111      		cpse r24,__zero_reg__
 3165 029a 00C0      		rjmp .L307
 289:keyboards/splitography/keymaps/thumbi/keymap.c ****     break;
 3166               		.loc 4 289 0
 3167 029c 2EE1      		ldi r18,lo8(30)
 3168 029e 30E0      		ldi r19,0
 3169 02a0 00C0      		rjmp .L311
 3170               	.L250:
 300:keyboards/splitography/keymaps/thumbi/keymap.c ****     if (raise_number(record, LEFT)) { return false; }
 3171               		.loc 4 300 0
 3172 02a2 1092 0000 		sts down_rule,__zero_reg__
 3173 02a6 00C0      		rjmp .L251
 3174               	.L231:
 313:keyboards/splitography/keymaps/thumbi/keymap.c ****     break;
 3175               		.loc 4 313 0
 3176 02a8 2AE0      		ldi r18,lo8(10)
 3177 02aa 30E0      		ldi r19,0
 3178 02ac 41EE      		ldi r20,lo8(-31)
 3179 02ae 50E0      		ldi r21,0
 3180               	.L317:
 316:keyboards/splitography/keymaps/thumbi/keymap.c ****     break;
 3181               		.loc 4 316 0
 3182 02b0 62EE      		ldi r22,lo8(-30)
 3183 02b2 70E0      		ldi r23,0
 3184               	.L315:
 319:keyboards/splitography/keymaps/thumbi/keymap.c ****     break;
 3185               		.loc 4 319 0
 3186 02b4 C601      		movw r24,r12
 3187 02b6 0E94 0000 		call mt_shift
 3188               	.LVL374:
 3189 02ba 00C0      		rjmp .L256
 3190               	.L229:
 316:keyboards/splitography/keymaps/thumbi/keymap.c ****     break;
 3191               		.loc 4 316 0
 3192 02bc 22E2      		ldi r18,lo8(34)
 3193 02be 30E0      		ldi r19,0
 3194 02c0 50E0      		ldi r21,0
 3195 02c2 40E0      		ldi r20,0
 3196 02c4 00C0      		rjmp .L317
 3197               	.L235:
 319:keyboards/splitography/keymaps/thumbi/keymap.c ****     break;
 3198               		.loc 4 319 0
 3199 02c6 25E3      		ldi r18,lo8(53)
 3200 02c8 30E0      		ldi r19,0
 3201 02ca 50E0      		ldi r21,0
 3202 02cc 40E0      		ldi r20,0
 3203 02ce 63EE      		ldi r22,lo8(-29)
 3204 02d0 70E0      		ldi r23,0
 3205 02d2 00C0      		rjmp .L315
 3206               	.L219:
 327:keyboards/splitography/keymaps/thumbi/keymap.c ****     break;
 3207               		.loc 4 327 0
 3208 02d4 FB01      		movw r30,r22
 3209 02d6 8281      		ldd r24,Z+2
 3210 02d8 8823      		tst r24
 3211 02da 01F4      		brne .+2
 3212 02dc 00C0      		rjmp .L256
 327:keyboards/splitography/keymaps/thumbi/keymap.c ****     break;
 3213               		.loc 4 327 0 is_stmt 0 discriminator 1
 3214 02de 9091 0000 		lds r25,down_rule
 3215 02e2 9093 0000 		sts tap_rule,r25
 3216 02e6 00C0      		rjmp .L205
 3217               	.L226:
 330:keyboards/splitography/keymaps/thumbi/keymap.c ****     // trap potential repeating enter caused by tap dance definition
 3218               		.loc 4 330 0 is_stmt 1
 3219 02e8 FB01      		movw r30,r22
 3220 02ea 8281      		ldd r24,Z+2
 3221 02ec 8823      		tst r24
 3222 02ee 01F0      		breq .L252
 330:keyboards/splitography/keymaps/thumbi/keymap.c ****     // trap potential repeating enter caused by tap dance definition
 3223               		.loc 4 330 0 is_stmt 0 discriminator 1
 3224 02f0 8091 0000 		lds r24,down_rule
 3225 02f4 8093 0000 		sts tap_rule,r24
 3226               	.L252:
 332:keyboards/splitography/keymaps/thumbi/keymap.c ****     tap_layer(record, _RSHIFT);
 3227               		.loc 4 332 0 is_stmt 1
 3228 02f8 28E2      		ldi r18,lo8(40)
 3229 02fa 30E0      		ldi r19,0
 3230 02fc 40E0      		ldi r20,0
 3231 02fe 65EE      		ldi r22,lo8(-27)
 3232 0300 70E0      		ldi r23,0
 3233 0302 C601      		movw r24,r12
 3234 0304 0E94 0000 		call map_shift
 3235               	.LVL375:
 3236 0308 8111      		cpse r24,__zero_reg__
 3237 030a 00C0      		rjmp .L253
 333:keyboards/splitography/keymaps/thumbi/keymap.c ****     break;
 3238               		.loc 4 333 0
 3239 030c 63E0      		ldi r22,lo8(3)
 3240 030e 00C0      		rjmp .L316
 3241               	.L216:
 336:keyboards/splitography/keymaps/thumbi/keymap.c ****     if (raise_number(record, LEFT)) { return false; }
 3242               		.loc 4 336 0
 3243 0310 2BE2      		ldi r18,lo8(43)
 3244 0312 30E0      		ldi r19,0
 3245 0314 40E0      		ldi r20,0
 3246 0316 61EE      		ldi r22,lo8(-31)
 3247 0318 70E0      		ldi r23,0
 3248 031a C601      		movw r24,r12
 3249 031c 0E94 0000 		call map_shift
 3250               	.LVL376:
 3251 0320 8111      		cpse r24,__zero_reg__
 3252 0322 00C0      		rjmp .L307
 337:keyboards/splitography/keymaps/thumbi/keymap.c **** #ifdef CENTER_TT
 3253               		.loc 4 337 0
 3254 0324 61E0      		ldi r22,lo8(1)
 3255 0326 C601      		movw r24,r12
 3256 0328 0E94 0000 		call raise_number
 3257               	.LVL377:
 3258 032c 8111      		cpse r24,__zero_reg__
 3259 032e 00C0      		rjmp .L307
 339:keyboards/splitography/keymaps/thumbi/keymap.c ****       tt_clear();                           // exit TT layer
 3260               		.loc 4 339 0
 3261 0330 8091 0000 		lds r24,tt_keycode
 3262 0334 9091 0000 		lds r25,tt_keycode+1
 3263 0338 892B      		or r24,r25
 3264 033a 01F0      		breq .+2
 3265 033c 00C0      		rjmp .L254
 344:keyboards/splitography/keymaps/thumbi/keymap.c ****     thumb_roll(record, LEFT, 0, 0, _LSYMBOL, _RSYMBOL);
 3266               		.loc 4 344 0
 3267 033e 64E0      		ldi r22,lo8(4)
 3268 0340 C601      		movw r24,r12
 3269 0342 0E94 0000 		call tap_layer
 3270               	.LVL378:
 345:keyboards/splitography/keymaps/thumbi/keymap.c ****     break;
 3271               		.loc 4 345 0
 3272 0346 35E0      		ldi r19,lo8(5)
 3273 0348 E32E      		mov r14,r19
 3274 034a 04E0      		ldi r16,lo8(4)
 3275 034c 30E0      		ldi r19,0
 3276 034e 20E0      		ldi r18,0
 3277 0350 40E0      		ldi r20,0
 3278               	.L318:
 348:keyboards/splitography/keymaps/thumbi/keymap.c ****     break;
 3279               		.loc 4 348 0
 3280 0352 61E0      		ldi r22,lo8(1)
 3281               	.L314:
 359:keyboards/splitography/keymaps/thumbi/keymap.c ****     break;
 3282               		.loc 4 359 0
 3283 0354 C601      		movw r24,r12
 3284 0356 0E94 0000 		call thumb_roll
 3285               	.LVL379:
 3286 035a 00C0      		rjmp .L256
 3287               	.L236:
 348:keyboards/splitography/keymaps/thumbi/keymap.c ****     break;
 3288               		.loc 4 348 0
 3289 035c 25E0      		ldi r18,lo8(5)
 3290 035e E22E      		mov r14,r18
 3291 0360 09E0      		ldi r16,lo8(9)
 3292 0362 2BE2      		ldi r18,lo8(43)
 3293 0364 30E0      		ldi r19,0
 3294 0366 41E0      		ldi r20,lo8(1)
 3295 0368 00C0      		rjmp .L318
 3296               	.L234:
 351:keyboards/splitography/keymaps/thumbi/keymap.c ****     break;
 3297               		.loc 4 351 0
 3298 036a 94E0      		ldi r25,lo8(4)
 3299 036c E92E      		mov r14,r25
 3300 036e 09E0      		ldi r16,lo8(9)
 3301 0370 2CE4      		ldi r18,lo8(76)
 3302 0372 30E0      		ldi r19,0
 3303               	.L312:
 359:keyboards/splitography/keymaps/thumbi/keymap.c ****     break;
 3304               		.loc 4 359 0
 3305 0374 40E0      		ldi r20,0
 3306 0376 62E0      		ldi r22,lo8(2)
 3307 0378 00C0      		rjmp .L314
 3308               	.L209:
 354:keyboards/splitography/keymaps/thumbi/keymap.c ****     break;
 3309               		.loc 4 354 0
 3310 037a 2CE4      		ldi r18,lo8(76)
 3311 037c 30E0      		ldi r19,0
 3312 037e 40E0      		ldi r20,0
 3313 0380 65EE      		ldi r22,lo8(-27)
 3314 0382 70E0      		ldi r23,0
 3315 0384 00C0      		rjmp .L310
 3316               	.L217:
 357:keyboards/splitography/keymaps/thumbi/keymap.c ****     tap_layer(record, _RSYMBOL);
 3317               		.loc 4 357 0
 3318 0386 2CE4      		ldi r18,lo8(76)
 3319 0388 30E0      		ldi r19,0
 3320 038a 40E0      		ldi r20,0
 3321 038c 65EE      		ldi r22,lo8(-27)
 3322 038e 70E0      		ldi r23,0
 3323 0390 C601      		movw r24,r12
 3324 0392 0E94 0000 		call map_shift
 3325               	.LVL380:
 3326 0396 8111      		cpse r24,__zero_reg__
 3327 0398 00C0      		rjmp .L307
 358:keyboards/splitography/keymaps/thumbi/keymap.c ****     thumb_roll(record, RIGHT, 0, 0, _RSYMBOL, _LSYMBOL);
 3328               		.loc 4 358 0
 3329 039a 65E0      		ldi r22,lo8(5)
 3330 039c C601      		movw r24,r12
 3331 039e 0E94 0000 		call tap_layer
 3332               	.LVL381:
 359:keyboards/splitography/keymaps/thumbi/keymap.c ****     break;
 3333               		.loc 4 359 0
 3334 03a2 84E0      		ldi r24,lo8(4)
 3335 03a4 E82E      		mov r14,r24
 3336 03a6 05E0      		ldi r16,lo8(5)
 3337 03a8 30E0      		ldi r19,0
 3338 03aa 20E0      		ldi r18,0
 3339 03ac 00C0      		rjmp .L312
 3340               	.L225:
 369:keyboards/splitography/keymaps/thumbi/keymap.c ****     tt_escape(record, keycode);
 3341               		.loc 4 369 0
 3342 03ae 8091 0000 		lds r24,tt_keycode
 3343 03b2 9091 0000 		lds r25,tt_keycode+1
 3344 03b6 8C17      		cp r24,r28
 3345 03b8 9D07      		cpc r25,r29
 3346 03ba 01F0      		breq .L255
 369:keyboards/splitography/keymaps/thumbi/keymap.c ****     tt_escape(record, keycode);
 3347               		.loc 4 369 0 is_stmt 0 discriminator 1
 3348 03bc 892B      		or r24,r25
 3349 03be 01F0      		breq .L255
 369:keyboards/splitography/keymaps/thumbi/keymap.c ****     tt_escape(record, keycode);
 3350               		.loc 4 369 0 discriminator 2
 3351 03c0 0E94 0000 		call tt_clear
 3352               	.LVL382:
 3353               	.L255:
 370:keyboards/splitography/keymaps/thumbi/keymap.c ****     break;
 3354               		.loc 4 370 0 is_stmt 1
 3355 03c4 BE01      		movw r22,r28
 3356 03c6 C601      		movw r24,r12
 3357 03c8 0E94 0000 		call tt_escape
 3358               	.LVL383:
 3359 03cc 00C0      		rjmp .L256
 3360               	.L305:
 388:keyboards/splitography/keymaps/thumbi/keymap.c ****     return false;
 3361               		.loc 4 388 0
 3362 03ce CB01      		movw r24,r22
 3363 03d0 0E94 0000 		call steno
 3364               	.LVL384:
 3365 03d4 00C0      		rjmp .L307
 3366               		.cfi_endproc
 3367               	.LFE154:
 3369               		.section	.text.matrix_init_user,"ax",@progbits
 3370               	.global	matrix_init_user
 3372               	matrix_init_user:
 3373               	.LFB155:
 3374               		.file 5 "/net/depot/qmk_firmware/keyboards/splitography/keymaps/thumbi/common/init.c"
   1:/net/depot/qmk_firmware/keyboards/splitography/keymaps/thumbi/common/init.c **** 
   2:/net/depot/qmk_firmware/keyboards/splitography/keymaps/thumbi/common/init.c **** // ....................................................................... Audio
   3:/net/depot/qmk_firmware/keyboards/splitography/keymaps/thumbi/common/init.c **** 
   4:/net/depot/qmk_firmware/keyboards/splitography/keymaps/thumbi/common/init.c **** void matrix_init_user(void)
   5:/net/depot/qmk_firmware/keyboards/splitography/keymaps/thumbi/common/init.c **** {
 3375               		.loc 5 5 0
 3376               		.cfi_startproc
 3377               	/* prologue: function */
 3378               	/* frame size = 0 */
 3379               	/* stack size = 0 */
 3380               	.L__stack_usage = 0
   6:/net/depot/qmk_firmware/keyboards/splitography/keymaps/thumbi/common/init.c **** #ifdef STENO_ENABLE
   7:/net/depot/qmk_firmware/keyboards/splitography/keymaps/thumbi/common/init.c ****   steno_set_mode(STENO_MODE_BOLT);          // or STENO_MODE_GEMINI
 3381               		.loc 5 7 0
 3382 0000 80E0      		ldi r24,0
 3383 0002 0C94 0000 		jmp steno_set_mode
 3384               	.LVL385:
 3385               		.cfi_endproc
 3386               	.LFE155:
 3388               		.section	.progmem.data.__c.5772,"a",@progbits
 3391               	__c.5772:
 3392 0000 3A25 732F 		.string	":%s/arch=(.*)/arch=('any')\n"
 3392      6172 6368 
 3392      3D28 2E2A 
 3392      292F 6172 
 3392      6368 3D28 
 3393               		.section	.progmem.data.__c.5766,"a",@progbits
 3396               	__c.5766:
 3397 0000 7468 6520 		.string	"the keys of enoch"
 3397      6B65 7973 
 3397      206F 6620 
 3397      656E 6F63 
 3397      6800 
 3398               		.section	.bss.down_rule,"aw",@nobits
 3401               	down_rule:
 3402 0000 00        		.zero	1
 3403               		.section	.bss.base_n,"aw",@nobits
 3406               	base_n:
 3407 0000 00        		.zero	1
 3408               		.section	.bss.plover,"aw",@nobits
 3411               	plover:
 3412 0000 00        		.zero	1
 3413               		.section	.bss.double_key,"aw",@nobits
 3416               	double_key:
 3417 0000 00        		.zero	1
 3418               		.section	.bss.tt_keycode,"aw",@nobits
 3421               	tt_keycode:
 3422 0000 0000      		.zero	2
 3423               		.section	.bss.overlayer,"aw",@nobits
 3426               	overlayer:
 3427 0000 00        		.zero	1
 3428               		.section	.bss.thumb,"aw",@nobits
 3431               	thumb:
 3432 0000 00        		.zero	1
 3433               	.global	tap_dance_actions
 3434               		.section	.data.tap_dance_actions,"aw",@progbits
 3437               	tap_dance_actions:
 3438 0000 0000      		.word	0
 3439 0002 0000      		.word	gs(asterisk)
 3440 0004 0000      		.word	0
 3441 0006 0000 0000 		.zero	11
 3441      0000 0000 
 3441      0000 00
 3442 0011 0000      		.word	0
 3443 0013 0000      		.word	0
 3444 0015 0000      		.word	gs(colon)
 3445 0017 0000      		.word	gs(colon_reset)
 3446 0019 0000 0000 		.zero	11
 3446      0000 0000 
 3446      0000 00
 3447 0024 0000      		.word	0
 3448 0026 0000      		.word	0
 3449 0028 0000      		.word	gs(comma)
 3450 002a 0000      		.word	0
 3451 002c 0000 0000 		.zero	11
 3451      0000 0000 
 3451      0000 00
 3452 0037 0000      		.word	0
 3453 0039 0000      		.word	0
 3454 003b 0000      		.word	gs(dot)
 3455 003d 0000      		.word	0
 3456 003f 0000 0000 		.zero	11
 3456      0000 0000 
 3456      0000 00
 3457 004a 0000      		.word	0
 3458 004c 0000      		.word	0
 3459 004e 0000      		.word	gs(enter)
 3460 0050 0000      		.word	gs(enter_reset)
 3461 0052 0000 0000 		.zero	11
 3461      0000 0000 
 3461      0000 00
 3462 005d 0000      		.word	0
 3463 005f 0000      		.word	0
 3464 0061 0000      		.word	gs(equal)
 3465 0063 0000      		.word	gs(equal_reset)
 3466 0065 0000 0000 		.zero	11
 3466      0000 0000 
 3466      0000 00
 3467 0070 0000      		.word	0
 3468 0072 0000      		.word	0
 3469 0074 0000      		.word	gs(greater)
 3470 0076 0000      		.word	gs(greater_reset)
 3471 0078 0000 0000 		.zero	11
 3471      0000 0000 
 3471      0000 00
 3472 0083 0000      		.word	0
 3473 0085 0000      		.word	0
 3474 0087 0000      		.word	gs(lesser)
 3475 0089 0000      		.word	gs(lesser_reset)
 3476 008b 0000 0000 		.zero	11
 3476      0000 0000 
 3476      0000 00
 3477 0096 0000      		.word	0
 3478 0098 0000      		.word	0
 3479 009a 0000      		.word	gs(private)
 3480 009c 0000      		.word	0
 3481 009e 0000 0000 		.zero	11
 3481      0000 0000 
 3481      0000 00
 3482 00a9 0000      		.word	0
 3483 00ab 0000      		.word	0
 3484 00ad 0000      		.word	gs(send)
 3485 00af 0000      		.word	0
 3486 00b1 0000 0000 		.zero	11
 3486      0000 0000 
 3486      0000 00
 3487 00bc 0000      		.word	0
 3488 00be 0000      		.word	0
 3489 00c0 0000      		.word	gs(space)
 3490 00c2 0000      		.word	gs(space_reset)
 3491 00c4 0000 0000 		.zero	11
 3491      0000 0000 
 3491      0000 00
 3492 00cf 0000      		.word	0
 3493 00d1 0000      		.word	0
 3494 00d3 0000      		.word	gs(tilde)
 3495 00d5 0000      		.word	gs(tilde_reset)
 3496 00d7 0000 0000 		.zero	11
 3496      0000 0000 
 3496      0000 00
 3497 00e2 0000      		.word	0
 3498               		.section	.bss.tap_rule,"aw",@nobits
 3501               	tap_rule:
 3502 0000 00        		.zero	1
 3503               		.section	.bss.dt_shift,"aw",@nobits
 3506               	dt_shift:
 3507 0000 00        		.zero	1
 3508               		.section	.bss.key_timer,"aw",@nobits
 3511               	key_timer:
 3512 0000 0000      		.zero	2
 3513               		.section	.bss.mods,"aw",@nobits
 3516               	mods:
 3517 0000 00        		.zero	1
 3518               	.global	keymaps
 3519               		.section	.progmem.data.keymaps,"a",@progbits
 3522               	keymaps:
 3523 0000 3300      		.word	51
 3524 0002 1C00      		.word	28
 3525 0004 1200      		.word	18
 3526 0006 1800      		.word	24
 3527 0008 1D00      		.word	29
 3528 000a 0B58      		.word	22539
 3529 000c 0C58      		.word	22540
 3530 000e 0A00      		.word	10
 3531 0010 0700      		.word	7
 3532 0012 1100      		.word	17
 3533 0014 1000      		.word	16
 3534 0016 1B00      		.word	27
 3535 0018 1468      		.word	26644
 3536 001a 0B61      		.word	24843
 3537 001c 0864      		.word	25608
 3538 001e 0462      		.word	25092
 3539 0020 3700      		.word	55
 3540 0022 0D58      		.word	22541
 3541 0024 0E58      		.word	22542
 3542 0026 0600      		.word	6
 3543 0028 1762      		.word	25111
 3544 002a 1564      		.word	25621
 3545 002c 1661      		.word	24854
 3546 002e 1A68      		.word	26650
 3547 0030 0D00      		.word	13
 3548 0032 2D00      		.word	45
 3549 0034 3400      		.word	52
 3550 0036 0E00      		.word	14
 3551 0038 3600      		.word	54
 3552 003a 0F58      		.word	22543
 3553 003c 1058      		.word	22544
 3554 003e 0500      		.word	5
 3555 0040 1300      		.word	19
 3556 0042 0F00      		.word	15
 3557 0044 0900      		.word	9
 3558 0046 1900      		.word	25
 3559 0048 0000      		.word	0
 3560 004a 0000      		.word	0
 3561 004c 0000      		.word	0
 3562 004e 0000      		.word	0
 3563 0050 2944      		.word	17449
 3564 0052 0C42      		.word	16908
 3565 0054 0A57      		.word	22282
 3566 0056 2A45      		.word	17706
 3567 0058 0000      		.word	0
 3568 005a 0000      		.word	0
 3569 005c 0000      		.word	0
 3570 005e 0000      		.word	0
 3571 0060 3302      		.word	563
 3572 0062 1C02      		.word	540
 3573 0064 1202      		.word	530
 3574 0066 1802      		.word	536
 3575 0068 1D02      		.word	541
 3576 006a 0B58      		.word	22539
 3577 006c 0C58      		.word	22540
 3578 006e 0A02      		.word	522
 3579 0070 0702      		.word	519
 3580 0072 1102      		.word	529
 3581 0074 1002      		.word	528
 3582 0076 1B02      		.word	539
 3583 0078 1402      		.word	532
 3584 007a 0B02      		.word	523
 3585 007c 0802      		.word	520
 3586 007e 0402      		.word	516
 3587 0080 3802      		.word	568
 3588 0082 0D58      		.word	22541
 3589 0084 0E58      		.word	22542
 3590 0086 0602      		.word	518
 3591 0088 1702      		.word	535
 3592 008a 1502      		.word	533
 3593 008c 1602      		.word	534
 3594 008e 1A02      		.word	538
 3595 0090 0D02      		.word	525
 3596 0092 2D02      		.word	557
 3597 0094 3402      		.word	564
 3598 0096 0E02      		.word	526
 3599 0098 1E02      		.word	542
 3600 009a 0F58      		.word	22543
 3601 009c 1058      		.word	22544
 3602 009e 0502      		.word	517
 3603 00a0 1302      		.word	531
 3604 00a2 0F02      		.word	527
 3605 00a4 0902      		.word	521
 3606 00a6 1902      		.word	537
 3607 00a8 0000      		.word	0
 3608 00aa 0000      		.word	0
 3609 00ac 0000      		.word	0
 3610 00ae 0000      		.word	0
 3611 00b0 2900      		.word	41
 3612 00b2 0C02      		.word	524
 3613 00b4 2C00      		.word	44
 3614 00b6 2A00      		.word	42
 3615 00b8 0000      		.word	0
 3616 00ba 0000      		.word	0
 3617 00bc 0000      		.word	0
 3618 00be 0000      		.word	0
 3619 00c0 3300      		.word	51
 3620 00c2 1C00      		.word	28
 3621 00c4 1200      		.word	18
 3622 00c6 1800      		.word	24
 3623 00c8 1D00      		.word	29
 3624 00ca 0B58      		.word	22539
 3625 00cc 0C58      		.word	22540
 3626 00ce 0A02      		.word	522
 3627 00d0 0702      		.word	519
 3628 00d2 1102      		.word	529
 3629 00d4 1002      		.word	528
 3630 00d6 1B02      		.word	539
 3631 00d8 1400      		.word	20
 3632 00da 0B00      		.word	11
 3633 00dc 0800      		.word	8
 3634 00de 0400      		.word	4
 3635 00e0 0B57      		.word	22283
 3636 00e2 0D58      		.word	22541
 3637 00e4 0E58      		.word	22542
 3638 00e6 0602      		.word	518
 3639 00e8 1702      		.word	535
 3640 00ea 1502      		.word	533
 3641 00ec 1602      		.word	534
 3642 00ee 1A02      		.word	538
 3643 00f0 0D00      		.word	13
 3644 00f2 2D00      		.word	45
 3645 00f4 3400      		.word	52
 3646 00f6 0E00      		.word	14
 3647 00f8 3500      		.word	53
 3648 00fa 0F58      		.word	22543
 3649 00fc 1058      		.word	22544
 3650 00fe 0502      		.word	517
 3651 0100 1302      		.word	531
 3652 0102 0F02      		.word	527
 3653 0104 0902      		.word	521
 3654 0106 1902      		.word	537
 3655 0108 0000      		.word	0
 3656 010a 0000      		.word	0
 3657 010c 0000      		.word	0
 3658 010e 0000      		.word	0
 3659 0110 2B00      		.word	43
 3660 0112 0100      		.word	1
 3661 0114 0457      		.word	22276
 3662 0116 4C4A      		.word	19020
 3663 0118 0000      		.word	0
 3664 011a 0000      		.word	0
 3665 011c 0000      		.word	0
 3666 011e 0000      		.word	0
 3667 0120 3302      		.word	563
 3668 0122 1C02      		.word	540
 3669 0124 1202      		.word	530
 3670 0126 1802      		.word	536
 3671 0128 1D02      		.word	541
 3672 012a 0B58      		.word	22539
 3673 012c 0C58      		.word	22540
 3674 012e 0A00      		.word	10
 3675 0130 0700      		.word	7
 3676 0132 1100      		.word	17
 3677 0134 1000      		.word	16
 3678 0136 1B00      		.word	27
 3679 0138 1402      		.word	532
 3680 013a 0B02      		.word	523
 3681 013c 0802      		.word	520
 3682 013e 0402      		.word	516
 3683 0140 3802      		.word	568
 3684 0142 0D58      		.word	22541
 3685 0144 0E58      		.word	22542
 3686 0146 0600      		.word	6
 3687 0148 1700      		.word	23
 3688 014a 1500      		.word	21
 3689 014c 1600      		.word	22
 3690 014e 1A00      		.word	26
 3691 0150 0D02      		.word	525
 3692 0152 2D02      		.word	557
 3693 0154 3402      		.word	564
 3694 0156 0E02      		.word	526
 3695 0158 3800      		.word	56
 3696 015a 0F58      		.word	22543
 3697 015c 1058      		.word	22544
 3698 015e 0500      		.word	5
 3699 0160 1300      		.word	19
 3700 0162 0F00      		.word	15
 3701 0164 0900      		.word	9
 3702 0166 1900      		.word	25
 3703 0168 0000      		.word	0
 3704 016a 0000      		.word	0
 3705 016c 0000      		.word	0
 3706 016e 0000      		.word	0
 3707 0170 2B00      		.word	43
 3708 0172 0C02      		.word	524
 3709 0174 0100      		.word	1
 3710 0176 4C00      		.word	76
 3711 0178 0000      		.word	0
 3712 017a 0000      		.word	0
 3713 017c 0000      		.word	0
 3714 017e 0000      		.word	0
 3715 0180 0000      		.word	0
 3716 0182 0000      		.word	0
 3717 0184 0000      		.word	0
 3718 0186 0000      		.word	0
 3719 0188 0000      		.word	0
 3720 018a 0100      		.word	1
 3721 018c 0100      		.word	1
 3722 018e 0057      		.word	22272
 3723 0190 2F00      		.word	47
 3724 0192 2302      		.word	547
 3725 0194 3000      		.word	48
 3726 0196 0000      		.word	0
 3727 0198 0000      		.word	0
 3728 019a 0000      		.word	0
 3729 019c 0000      		.word	0
 3730 019e 0000      		.word	0
 3731 01a0 0000      		.word	0
 3732 01a2 0100      		.word	1
 3733 01a4 0100      		.word	1
 3734 01a6 3102      		.word	561
 3735 01a8 2602      		.word	550
 3736 01aa 2102      		.word	545
 3737 01ac 2702      		.word	551
 3738 01ae 0000      		.word	0
 3739 01b0 0000      		.word	0
 3740 01b2 0000      		.word	0
 3741 01b4 0000      		.word	0
 3742 01b6 0000      		.word	0
 3743 01b8 0000      		.word	0
 3744 01ba 0100      		.word	1
 3745 01bc 0100      		.word	1
 3746 01be 3800      		.word	56
 3747 01c0 2F02      		.word	559
 3748 01c2 2002      		.word	544
 3749 01c4 3002      		.word	560
 3750 01c6 0000      		.word	0
 3751 01c8 0000      		.word	0
 3752 01ca 0000      		.word	0
 3753 01cc 0000      		.word	0
 3754 01ce 0000      		.word	0
 3755 01d0 0100      		.word	1
 3756 01d2 0100      		.word	1
 3757 01d4 3100      		.word	49
 3758 01d6 E25C      		.word	23778
 3759 01d8 0000      		.word	0
 3760 01da 0000      		.word	0
 3761 01dc 0000      		.word	0
 3762 01de 0000      		.word	0
 3763 01e0 0157      		.word	22273
 3764 01e2 3700      		.word	55
 3765 01e4 2502      		.word	549
 3766 01e6 2402      		.word	548
 3767 01e8 0000      		.word	0
 3768 01ea 0100      		.word	1
 3769 01ec 0100      		.word	1
 3770 01ee 0000      		.word	0
 3771 01f0 4A00      		.word	74
 3772 01f2 5200      		.word	82
 3773 01f4 4D00      		.word	77
 3774 01f6 4B00      		.word	75
 3775 01f8 E15C      		.word	23777
 3776 01fa 0757      		.word	22279
 3777 01fc E05C      		.word	23776
 3778 01fe 0657      		.word	22278
 3779 0200 3802      		.word	568
 3780 0202 0100      		.word	1
 3781 0204 0100      		.word	1
 3782 0206 0000      		.word	0
 3783 0208 5000      		.word	80
 3784 020a 5100      		.word	81
 3785 020c 4F00      		.word	79
 3786 020e 4E00      		.word	78
 3787 0210 0000      		.word	0
 3788 0212 2E02      		.word	558
 3789 0214 1F02      		.word	543
 3790 0216 1E02      		.word	542
 3791 0218 3800      		.word	56
 3792 021a 0100      		.word	1
 3793 021c 0100      		.word	1
 3794 021e 0000      		.word	0
 3795 0220 0000      		.word	0
 3796 0222 0000      		.word	0
 3797 0224 0000      		.word	0
 3798 0226 0000      		.word	0
 3799 0228 0000      		.word	0
 3800 022a 0000      		.word	0
 3801 022c 0000      		.word	0
 3802 022e 0000      		.word	0
 3803 0230 E35C      		.word	23779
 3804 0232 0557      		.word	22277
 3805 0234 0100      		.word	1
 3806 0236 0100      		.word	1
 3807 0238 0000      		.word	0
 3808 023a 0000      		.word	0
 3809 023c 0000      		.word	0
 3810 023e 0000      		.word	0
 3811 0240 015A      		.word	23041
 3812 0242 025A      		.word	23042
 3813 0244 035A      		.word	23043
 3814 0246 045A      		.word	23044
 3815 0248 055A      		.word	23045
 3816 024a 065A      		.word	23046
 3817 024c 235A      		.word	23075
 3818 024e 245A      		.word	23076
 3819 0250 255A      		.word	23077
 3820 0252 265A      		.word	23078
 3821 0254 275A      		.word	23079
 3822 0256 285A      		.word	23080
 3823 0258 DB5C      		.word	23771
 3824 025a 075A      		.word	23047
 3825 025c 095A      		.word	23049
 3826 025e 0B5A      		.word	23051
 3827 0260 0D5A      		.word	23053
 3828 0262 115A      		.word	23057
 3829 0264 165A      		.word	23062
 3830 0266 1A5A      		.word	23066
 3831 0268 1C5A      		.word	23068
 3832 026a 1E5A      		.word	23070
 3833 026c 205A      		.word	23072
 3834 026e 225A      		.word	23074
 3835 0270 DC5C      		.word	23772
 3836 0272 085A      		.word	23048
 3837 0274 0A5A      		.word	23050
 3838 0276 0C5A      		.word	23052
 3839 0278 0E5A      		.word	23054
 3840 027a 125A      		.word	23058
 3841 027c 175A      		.word	23063
 3842 027e 1B5A      		.word	23067
 3843 0280 1D5A      		.word	23069
 3844 0282 1F5A      		.word	23071
 3845 0284 215A      		.word	23073
 3846 0286 295A      		.word	23081
 3847 0288 0000      		.word	0
 3848 028a 0000      		.word	0
 3849 028c 0000      		.word	0
 3850 028e 0000      		.word	0
 3851 0290 0F5A      		.word	23055
 3852 0292 105A      		.word	23056
 3853 0294 185A      		.word	23064
 3854 0296 195A      		.word	23065
 3855 0298 0000      		.word	0
 3856 029a 0000      		.word	0
 3857 029c 0000      		.word	0
 3858 029e 0000      		.word	0
 3859 02a0 0000      		.word	0
 3860 02a2 0900      		.word	9
 3861 02a4 0865      		.word	25864
 3862 02a6 0700      		.word	7
 3863 02a8 0000      		.word	0
 3864 02aa 0100      		.word	1
 3865 02ac 0100      		.word	1
 3866 02ae 3800      		.word	56
 3867 02b0 2400      		.word	36
 3868 02b2 2500      		.word	37
 3869 02b4 2600      		.word	38
 3870 02b6 2502      		.word	549
 3871 02b8 0855      		.word	21768
 3872 02ba 0661      		.word	24838
 3873 02bc 0564      		.word	25605
 3874 02be 0462      		.word	25092
 3875 02c0 0000      		.word	0
 3876 02c2 0100      		.word	1
 3877 02c4 0100      		.word	1
 3878 02c6 0357      		.word	22275
 3879 02c8 2100      		.word	33
 3880 02ca 2200      		.word	34
 3881 02cc 2300      		.word	35
 3882 02ce 2D00      		.word	45
 3883 02d0 0000      		.word	0
 3884 02d2 1B00      		.word	27
 3885 02d4 DE5C      		.word	23774
 3886 02d6 3100      		.word	49
 3887 02d8 0000      		.word	0
 3888 02da 0100      		.word	1
 3889 02dc 0100      		.word	1
 3890 02de 0257      		.word	22274
 3891 02e0 1E00      		.word	30
 3892 02e2 1F00      		.word	31
 3893 02e4 2000      		.word	32
 3894 02e6 2E02      		.word	558
 3895 02e8 0000      		.word	0
 3896 02ea 0000      		.word	0
 3897 02ec 0000      		.word	0
 3898 02ee 0000      		.word	0
 3899 02f0 0100      		.word	1
 3900 02f2 0100      		.word	1
 3901 02f4 2700      		.word	39
 3902 02f6 2E00      		.word	46
 3903 02f8 0000      		.word	0
 3904 02fa 0000      		.word	0
 3905 02fc 0000      		.word	0
 3906 02fe 0000      		.word	0
 3907 0300 0000      		.word	0
 3908 0302 0000      		.word	0
 3909 0304 0000      		.word	0
 3910 0306 0000      		.word	0
 3911 0308 0000      		.word	0
 3912 030a 0100      		.word	1
 3913 030c 0100      		.word	1
 3914 030e 0000      		.word	0
 3915 0310 4000      		.word	64
 3916 0312 4100      		.word	65
 3917 0314 4200      		.word	66
 3918 0316 4500      		.word	69
 3919 0318 0855      		.word	21768
 3920 031a 0155      		.word	21761
 3921 031c 0455      		.word	21764
 3922 031e 0255      		.word	21762
 3923 0320 0000      		.word	0
 3924 0322 0100      		.word	1
 3925 0324 0100      		.word	1
 3926 0326 0000      		.word	0
 3927 0328 3D00      		.word	61
 3928 032a 3E00      		.word	62
 3929 032c 3F00      		.word	63
 3930 032e 4400      		.word	68
 3931 0330 0000      		.word	0
 3932 0332 0000      		.word	0
 3933 0334 0000      		.word	0
 3934 0336 0000      		.word	0
 3935 0338 0000      		.word	0
 3936 033a 0100      		.word	1
 3937 033c 0100      		.word	1
 3938 033e 0000      		.word	0
 3939 0340 3A00      		.word	58
 3940 0342 3B00      		.word	59
 3941 0344 3C00      		.word	60
 3942 0346 4300      		.word	67
 3943 0348 0000      		.word	0
 3944 034a 0000      		.word	0
 3945 034c 0000      		.word	0
 3946 034e 0000      		.word	0
 3947 0350 0100      		.word	1
 3948 0352 0100      		.word	1
 3949 0354 0100      		.word	1
 3950 0356 0100      		.word	1
 3951 0358 0000      		.word	0
 3952 035a 0000      		.word	0
 3953 035c 0000      		.word	0
 3954 035e 0000      		.word	0
 3955 0360 0000      		.word	0
 3956 0362 0000      		.word	0
 3957 0364 0000      		.word	0
 3958 0366 0000      		.word	0
 3959 0368 0000      		.word	0
 3960 036a 0100      		.word	1
 3961 036c 0100      		.word	1
 3962 036e 0000      		.word	0
 3963 0370 FB00      		.word	251
 3964 0372 F000      		.word	240
 3965 0374 FC00      		.word	252
 3966 0376 F900      		.word	249
 3967 0378 0000      		.word	0
 3968 037a F600      		.word	246
 3969 037c F500      		.word	245
 3970 037e F400      		.word	244
 3971 0380 0000      		.word	0
 3972 0382 0100      		.word	1
 3973 0384 0100      		.word	1
 3974 0386 0000      		.word	0
 3975 0388 F200      		.word	242
 3976 038a F100      		.word	241
 3977 038c F300      		.word	243
 3978 038e FA00      		.word	250
 3979 0390 0000      		.word	0
 3980 0392 0000      		.word	0
 3981 0394 0000      		.word	0
 3982 0396 0000      		.word	0
 3983 0398 0000      		.word	0
 3984 039a 0100      		.word	1
 3985 039c 0100      		.word	1
 3986 039e 0000      		.word	0
 3987 03a0 0000      		.word	0
 3988 03a2 0000      		.word	0
 3989 03a4 0000      		.word	0
 3990 03a6 0000      		.word	0
 3991 03a8 0000      		.word	0
 3992 03aa 0000      		.word	0
 3993 03ac 0000      		.word	0
 3994 03ae 0000      		.word	0
 3995 03b0 0100      		.word	1
 3996 03b2 0100      		.word	1
 3997 03b4 0100      		.word	1
 3998 03b6 0100      		.word	1
 3999 03b8 0000      		.word	0
 4000 03ba 0000      		.word	0
 4001 03bc 0000      		.word	0
 4002 03be 0000      		.word	0
 4003 03c0 0000      		.word	0
 4004 03c2 0000      		.word	0
 4005 03c4 0605      		.word	1286
 4006 03c6 1905      		.word	1305
 4007 03c8 0000      		.word	0
 4008 03ca 0000      		.word	0
 4009 03cc 0000      		.word	0
 4010 03ce 0000      		.word	0
 4011 03d0 0000      		.word	0
 4012 03d2 0000      		.word	0
 4013 03d4 0000      		.word	0
 4014 03d6 DD5C      		.word	23773
 4015 03d8 1D01      		.word	285
 4016 03da 1B01      		.word	283
 4017 03dc 0601      		.word	262
 4018 03de 1901      		.word	281
 4019 03e0 0000      		.word	0
 4020 03e2 0000      		.word	0
 4021 03e4 0000      		.word	0
 4022 03e6 0000      		.word	0
 4023 03e8 0857      		.word	22280
 4024 03ea 0957      		.word	22281
 4025 03ec 0000      		.word	0
 4026 03ee 0000      		.word	0
 4027 03f0 0000      		.word	0
 4028 03f2 0000      		.word	0
 4029 03f4 1801      		.word	280
 4030 03f6 0701      		.word	263
 4031 03f8 0000      		.word	0
 4032 03fa 0000      		.word	0
 4033 03fc 0000      		.word	0
 4034 03fe 0000      		.word	0
 4035 0400 0000      		.word	0
 4036 0402 0000      		.word	0
 4037 0404 0000      		.word	0
 4038 0406 0000      		.word	0
 4039 0408 0000      		.word	0
 4040 040a 0000      		.word	0
 4041 040c 0000      		.word	0
 4042 040e 0000      		.word	0
 4043 0410 0100      		.word	1
 4044 0412 0000      		.word	0
 4045 0414 0000      		.word	0
 4046 0416 0100      		.word	1
 4047 0418 0000      		.word	0
 4048 041a 0000      		.word	0
 4049 041c 0000      		.word	0
 4050 041e 0000      		.word	0
 4051 0420 0000      		.word	0
 4052 0422 0000      		.word	0
 4053 0424 0000      		.word	0
 4054 0426 0000      		.word	0
 4055 0428 0000      		.word	0
 4056 042a 0100      		.word	1
 4057 042c 0100      		.word	1
 4058 042e 0000      		.word	0
 4059 0430 4000      		.word	64
 4060 0432 4100      		.word	65
 4061 0434 4200      		.word	66
 4062 0436 4500      		.word	69
 4063 0438 0855      		.word	21768
 4064 043a 0155      		.word	21761
 4065 043c 0455      		.word	21764
 4066 043e 0255      		.word	21762
 4067 0440 0000      		.word	0
 4068 0442 0100      		.word	1
 4069 0444 0100      		.word	1
 4070 0446 0000      		.word	0
 4071 0448 3D00      		.word	61
 4072 044a 3E00      		.word	62
 4073 044c 3F00      		.word	63
 4074 044e 4400      		.word	68
 4075 0450 0000      		.word	0
 4076 0452 0000      		.word	0
 4077 0454 0000      		.word	0
 4078 0456 0000      		.word	0
 4079 0458 0000      		.word	0
 4080 045a 0100      		.word	1
 4081 045c 0100      		.word	1
 4082 045e 0000      		.word	0
 4083 0460 3A00      		.word	58
 4084 0462 3B00      		.word	59
 4085 0464 3C00      		.word	60
 4086 0466 4300      		.word	67
 4087 0468 0000      		.word	0
 4088 046a 0000      		.word	0
 4089 046c 0000      		.word	0
 4090 046e 0000      		.word	0
 4091 0470 E45C      		.word	23780
 4092 0472 0000      		.word	0
 4093 0474 2E02      		.word	558
 4094 0476 0000      		.word	0
 4095 0478 0000      		.word	0
 4096 047a 0000      		.word	0
 4097 047c 0000      		.word	0
 4098 047e 0000      		.word	0
 4099 0480 3300      		.word	51
 4100 0482 1C02      		.word	540
 4101 0484 1202      		.word	530
 4102 0486 1802      		.word	536
 4103 0488 1D02      		.word	541
 4104 048a 0B58      		.word	22539
 4105 048c 0C58      		.word	22540
 4106 048e 0A02      		.word	522
 4107 0490 0702      		.word	519
 4108 0492 1102      		.word	529
 4109 0494 1002      		.word	528
 4110 0496 1B02      		.word	539
 4111 0498 1402      		.word	532
 4112 049a 0B02      		.word	523
 4113 049c 0802      		.word	520
 4114 049e 0402      		.word	516
 4115 04a0 3700      		.word	55
 4116 04a2 0D58      		.word	22541
 4117 04a4 0E58      		.word	22542
 4118 04a6 0602      		.word	518
 4119 04a8 1702      		.word	535
 4120 04aa 1502      		.word	533
 4121 04ac 1602      		.word	534
 4122 04ae 1A02      		.word	538
 4123 04b0 0D02      		.word	525
 4124 04b2 2D00      		.word	45
 4125 04b4 3400      		.word	52
 4126 04b6 0E02      		.word	526
 4127 04b8 3600      		.word	54
 4128 04ba 0F58      		.word	22543
 4129 04bc 1058      		.word	22544
 4130 04be 0502      		.word	517
 4131 04c0 1302      		.word	531
 4132 04c2 0F02      		.word	527
 4133 04c4 0902      		.word	521
 4134 04c6 1902      		.word	537
 4135 04c8 0000      		.word	0
 4136 04ca 0000      		.word	0
 4137 04cc 0000      		.word	0
 4138 04ce 0000      		.word	0
 4139 04d0 E45C      		.word	23780
 4140 04d2 DF5C      		.word	23775
 4141 04d4 2C62      		.word	25132
 4142 04d6 2A4D      		.word	19754
 4143 04d8 0000      		.word	0
 4144 04da 0000      		.word	0
 4145 04dc 0000      		.word	0
 4146 04de 0000      		.word	0
 4147 04e0 0000      		.word	0
 4148 04e2 0000      		.word	0
 4149 04e4 0000      		.word	0
 4150 04e6 0000      		.word	0
 4151 04e8 0000      		.word	0
 4152 04ea 0100      		.word	1
 4153 04ec 0100      		.word	1
 4154 04ee 0000      		.word	0
 4155 04f0 4A00      		.word	74
 4156 04f2 5200      		.word	82
 4157 04f4 4D00      		.word	77
 4158 04f6 4B00      		.word	75
 4159 04f8 0855      		.word	21768
 4160 04fa 0155      		.word	21761
 4161 04fc 0455      		.word	21764
 4162 04fe 0255      		.word	21762
 4163 0500 0000      		.word	0
 4164 0502 0100      		.word	1
 4165 0504 0100      		.word	1
 4166 0506 0000      		.word	0
 4167 0508 5000      		.word	80
 4168 050a 5100      		.word	81
 4169 050c 4F00      		.word	79
 4170 050e 4E00      		.word	78
 4171 0510 0000      		.word	0
 4172 0512 0000      		.word	0
 4173 0514 0000      		.word	0
 4174 0516 0000      		.word	0
 4175 0518 0000      		.word	0
 4176 051a 0100      		.word	1
 4177 051c 0100      		.word	1
 4178 051e 0000      		.word	0
 4179 0520 0000      		.word	0
 4180 0522 0000      		.word	0
 4181 0524 0000      		.word	0
 4182 0526 0000      		.word	0
 4183 0528 0000      		.word	0
 4184 052a 0000      		.word	0
 4185 052c 0000      		.word	0
 4186 052e 0000      		.word	0
 4187 0530 E45C      		.word	23780
 4188 0532 0000      		.word	0
 4189 0534 0000      		.word	0
 4190 0536 0000      		.word	0
 4191 0538 0000      		.word	0
 4192 053a 0000      		.word	0
 4193 053c 0000      		.word	0
 4194 053e 0000      		.word	0
 4195 0540 0000      		.word	0
 4196 0542 0000      		.word	0
 4197 0544 0000      		.word	0
 4198 0546 0000      		.word	0
 4199 0548 0000      		.word	0
 4200 054a 0100      		.word	1
 4201 054c 0100      		.word	1
 4202 054e 0000      		.word	0
 4203 0550 FB00      		.word	251
 4204 0552 F000      		.word	240
 4205 0554 FC00      		.word	252
 4206 0556 F900      		.word	249
 4207 0558 0000      		.word	0
 4208 055a F600      		.word	246
 4209 055c F500      		.word	245
 4210 055e F400      		.word	244
 4211 0560 0000      		.word	0
 4212 0562 0100      		.word	1
 4213 0564 0100      		.word	1
 4214 0566 0000      		.word	0
 4215 0568 F200      		.word	242
 4216 056a F100      		.word	241
 4217 056c F300      		.word	243
 4218 056e FA00      		.word	250
 4219 0570 0000      		.word	0
 4220 0572 0000      		.word	0
 4221 0574 0000      		.word	0
 4222 0576 0000      		.word	0
 4223 0578 0000      		.word	0
 4224 057a 0100      		.word	1
 4225 057c 0100      		.word	1
 4226 057e 0000      		.word	0
 4227 0580 0000      		.word	0
 4228 0582 0000      		.word	0
 4229 0584 0000      		.word	0
 4230 0586 0000      		.word	0
 4231 0588 0000      		.word	0
 4232 058a 0000      		.word	0
 4233 058c 0000      		.word	0
 4234 058e 0000      		.word	0
 4235 0590 E45C      		.word	23780
 4236 0592 0000      		.word	0
 4237 0594 0000      		.word	0
 4238 0596 0000      		.word	0
 4239 0598 0000      		.word	0
 4240 059a 0000      		.word	0
 4241 059c 0000      		.word	0
 4242 059e 0000      		.word	0
 4243 05a0 0000      		.word	0
 4244 05a2 0900      		.word	9
 4245 05a4 0865      		.word	25864
 4246 05a6 0700      		.word	7
 4247 05a8 0000      		.word	0
 4248 05aa 0100      		.word	1
 4249 05ac 0100      		.word	1
 4250 05ae 3800      		.word	56
 4251 05b0 2400      		.word	36
 4252 05b2 2500      		.word	37
 4253 05b4 2600      		.word	38
 4254 05b6 2502      		.word	549
 4255 05b8 0855      		.word	21768
 4256 05ba 0661      		.word	24838
 4257 05bc 0564      		.word	25605
 4258 05be 0462      		.word	25092
 4259 05c0 0000      		.word	0
 4260 05c2 0100      		.word	1
 4261 05c4 0100      		.word	1
 4262 05c6 0357      		.word	22275
 4263 05c8 2100      		.word	33
 4264 05ca 2200      		.word	34
 4265 05cc 2300      		.word	35
 4266 05ce 2D00      		.word	45
 4267 05d0 0000      		.word	0
 4268 05d2 2002      		.word	544
 4269 05d4 DE5C      		.word	23774
 4270 05d6 3100      		.word	49
 4271 05d8 0000      		.word	0
 4272 05da 0100      		.word	1
 4273 05dc 0100      		.word	1
 4274 05de 0257      		.word	22274
 4275 05e0 1E00      		.word	30
 4276 05e2 1F00      		.word	31
 4277 05e4 2000      		.word	32
 4278 05e6 2E02      		.word	558
 4279 05e8 0000      		.word	0
 4280 05ea 0000      		.word	0
 4281 05ec 0000      		.word	0
 4282 05ee 0000      		.word	0
 4283 05f0 E45C      		.word	23780
 4284 05f2 2C00      		.word	44
 4285 05f4 2700      		.word	39
 4286 05f6 2E00      		.word	46
 4287 05f8 0000      		.word	0
 4288 05fa 0000      		.word	0
 4289 05fc 0000      		.word	0
 4290 05fe 0000      		.word	0
 4291 0600 0100      		.word	1
 4292 0602 3700      		.word	55
 4293 0604 2502      		.word	549
 4294 0606 2402      		.word	548
 4295 0608 3502      		.word	565
 4296 060a 0100      		.word	1
 4297 060c 0100      		.word	1
 4298 060e 3500      		.word	53
 4299 0610 2F00      		.word	47
 4300 0612 2302      		.word	547
 4301 0614 3000      		.word	48
 4302 0616 0100      		.word	1
 4303 0618 0100      		.word	1
 4304 061a 3602      		.word	566
 4305 061c 2202      		.word	546
 4306 061e 3702      		.word	567
 4307 0620 3802      		.word	568
 4308 0622 0100      		.word	1
 4309 0624 0100      		.word	1
 4310 0626 3102      		.word	561
 4311 0628 2602      		.word	550
 4312 062a 2102      		.word	545
 4313 062c 2702      		.word	551
 4314 062e 0100      		.word	1
 4315 0630 0100      		.word	1
 4316 0632 3302      		.word	563
 4317 0634 1F02      		.word	543
 4318 0636 1E02      		.word	542
 4319 0638 3800      		.word	56
 4320 063a 0100      		.word	1
 4321 063c 0100      		.word	1
 4322 063e 3100      		.word	49
 4323 0640 2F02      		.word	559
 4324 0642 2002      		.word	544
 4325 0644 3002      		.word	560
 4326 0646 0100      		.word	1
 4327 0648 0000      		.word	0
 4328 064a 0000      		.word	0
 4329 064c 0000      		.word	0
 4330 064e 0000      		.word	0
 4331 0650 E45C      		.word	23780
 4332 0652 2E00      		.word	46
 4333 0654 2E02      		.word	558
 4334 0656 2C00      		.word	44
 4335 0658 0000      		.word	0
 4336 065a 0000      		.word	0
 4337 065c 0000      		.word	0
 4338 065e 0000      		.word	0
 4339               		.text
 4340               	.Letext0:
 4341               		.file 6 "/usr/avr/include/stdint.h"
 4342               		.file 7 "/usr/lib/gcc/avr/7.3.0/include/stddef.h"
 4343               		.file 8 "./tmk_core/common/keyboard.h"
 4344               		.file 9 "./tmk_core/common/keycode.h"
 4345               		.file 10 "./tmk_core/common/action_code.h"
 4346               		.file 11 "./tmk_core/common/action.h"
 4347               		.file 12 "./lib/lufa/LUFA/Drivers/USB/Core/AVR8/../StdRequestType.h"
 4348               		.file 13 "./lib/lufa/LUFA/Drivers/USB/Core/AVR8/../DeviceStandardReq.h"
 4349               		.file 14 "./lib/lufa/LUFA/Drivers/USB/Core/USBTask.h"
 4350               		.file 15 "./lib/lufa/LUFA/Drivers/USB/Core/HostStandardReq.h"
 4351               		.file 16 "/usr/avr/include/stdio.h"
 4352               		.file 17 "./tmk_core/common/report.h"
 4353               		.file 18 "./tmk_core/common/host.h"
 4354               		.file 19 "./tmk_core/common/debug.h"
 4355               		.file 20 "./quantum/keycode_config.h"
 4356               		.file 21 "./quantum/quantum_keycodes.h"
 4357               		.file 22 "./quantum/keymap.h"
 4358               		.file 23 "./tmk_core/common/action_layer.h"
 4359               		.file 24 "./tmk_core/common/timer.h"
 4360               		.file 25 "./tmk_core/common/action_util.h"
 4361               		.file 26 "/usr/avr/include/stdlib.h"
 4362               		.file 27 "./quantum/process_keycode/process_steno.h"
 4363               		.file 28 "./quantum/process_keycode/process_tap_dance.h"
 4364               		.file 29 "./quantum/quantum.h"
 4365               		.file 30 "./quantum/keymap_extras/keymap_steno.h"
 4366               		.file 31 "/net/depot/qmk_firmware/keyboards/splitography/keymaps/thumbi/common/tapdance.h"
 4367               		.file 32 "./tmk_core/common/eeconfig.h"
 4368               		.file 33 "./tmk_core/common/util.h"
DEFINED SYMBOLS
                            *ABS*:0000000000000000 keymap.c
     /tmp/cc23kojF.s:2      *ABS*:000000000000003e __SP_H__
     /tmp/cc23kojF.s:3      *ABS*:000000000000003d __SP_L__
     /tmp/cc23kojF.s:4      *ABS*:000000000000003f __SREG__
     /tmp/cc23kojF.s:5      *ABS*:0000000000000000 __tmp_reg__
     /tmp/cc23kojF.s:6      *ABS*:0000000000000001 __zero_reg__
     /tmp/cc23kojF.s:13     .text.equal_reset:0000000000000000 equal_reset
     /tmp/cc23kojF.s:38     .text.private:0000000000000000 private
     /tmp/cc23kojF.s:3396   .progmem.data.__c.5766:0000000000000000 __c.5766
     /tmp/cc23kojF.s:84     .text.send:0000000000000000 send
     /tmp/cc23kojF.s:3391   .progmem.data.__c.5772:0000000000000000 __c.5772
     /tmp/cc23kojF.s:129    .text.tap_mods:0000000000000000 tap_mods
     /tmp/cc23kojF.s:3516   .bss.mods:0000000000000000 mods
     /tmp/cc23kojF.s:175    .text.modifier:0000000000000000 modifier
     /tmp/cc23kojF.s:262    .text.register_shift:0000000000000000 register_shift
     /tmp/cc23kojF.s:295    .text.unregister_shift:0000000000000000 unregister_shift
     /tmp/cc23kojF.s:317    .text.colon_reset:0000000000000000 colon_reset
     /tmp/cc23kojF.s:338    .text.greater_reset:0000000000000000 greater_reset
     /tmp/cc23kojF.s:359    .text.lesser_reset:0000000000000000 lesser_reset
     /tmp/cc23kojF.s:384    .text.tilde_reset:0000000000000000 tilde_reset
     /tmp/cc23kojF.s:405    .text.tap_key:0000000000000000 tap_key
     /tmp/cc23kojF.s:436    .text.comma:0000000000000000 comma
     /tmp/cc23kojF.s:486    .text.shift_key:0000000000000000 shift_key
     /tmp/cc23kojF.s:532    .text.tilde:0000000000000000 tilde
     /tmp/cc23kojF.s:625    .text.asterisk:0000000000000000 asterisk
     /tmp/cc23kojF.s:675    .text.dot:0000000000000000 dot
     /tmp/cc23kojF.s:727    .text.key_press:0000000000000000 key_press
     /tmp/cc23kojF.s:3511   .bss.key_timer:0000000000000000 key_timer
     /tmp/cc23kojF.s:800    .text.mt_shift:0000000000000000 mt_shift
     /tmp/cc23kojF.s:910    .text.map_shift:0000000000000000 map_shift
     /tmp/cc23kojF.s:1043   .text.double_shift:0000000000000000 double_shift
     /tmp/cc23kojF.s:3506   .bss.dt_shift:0000000000000000 dt_shift
     /tmp/cc23kojF.s:1076   .text.tap_lt:0000000000000000 tap_lt
     /tmp/cc23kojF.s:1339   .text.enter:0000000000000000 enter
     /tmp/cc23kojF.s:3501   .bss.tap_rule:0000000000000000 tap_rule
     /tmp/cc23kojF.s:1383   .text.space:0000000000000000 space
     /tmp/cc23kojF.s:1428   .text.tap_reset:0000000000000000 tap_reset
     /tmp/cc23kojF.s:1476   .text.enter_reset:0000000000000000 enter_reset
     /tmp/cc23kojF.s:1499   .text.space_reset:0000000000000000 space_reset
     /tmp/cc23kojF.s:1522   .text.double_max:0000000000000000 double_max
     /tmp/cc23kojF.s:1606   .text.colon:0000000000000000 colon
     /tmp/cc23kojF.s:1704   .text.equal:0000000000000000 equal
     /tmp/cc23kojF.s:1807   .text.greater:0000000000000000 greater
     /tmp/cc23kojF.s:1911   .text.lesser:0000000000000000 lesser
     /tmp/cc23kojF.s:2012   .text.thumb_roll:0000000000000000 thumb_roll
     /tmp/cc23kojF.s:3431   .bss.thumb:0000000000000000 thumb
     /tmp/cc23kojF.s:3426   .bss.overlayer:0000000000000000 overlayer
     /tmp/cc23kojF.s:2167   .text.lt:0000000000000000 lt
     /tmp/cc23kojF.s:2282   .text.lt_shift:0000000000000000 lt_shift
     /tmp/cc23kojF.s:2316   .text.tap_layer:0000000000000000 tap_layer
     /tmp/cc23kojF.s:2346   .text.clear_layers:0000000000000000 clear_layers
     /tmp/cc23kojF.s:3421   .bss.tt_keycode:0000000000000000 tt_keycode
     /tmp/cc23kojF.s:2396   .text.raise_number:0000000000000000 raise_number
     /tmp/cc23kojF.s:3416   .bss.double_key:0000000000000000 double_key
     /tmp/cc23kojF.s:2463   .text.tt_clear:0000000000000000 tt_clear
     /tmp/cc23kojF.s:2484   .text.tt_escape:0000000000000000 tt_escape
     /tmp/cc23kojF.s:2545   .text.toggle_plover:0000000000000000 toggle_plover
     /tmp/cc23kojF.s:3411   .bss.plover:0000000000000000 plover
     /tmp/cc23kojF.s:2600   .text.base_layer:0000000000000000 base_layer
     /tmp/cc23kojF.s:2625   .text.steno:0000000000000000 steno
     /tmp/cc23kojF.s:2686   .text.steno_exit:0000000000000000 steno_exit
     /tmp/cc23kojF.s:2718   .text.process_record_user:0000000000000000 process_record_user
     /tmp/cc23kojF.s:3401   .bss.down_rule:0000000000000000 down_rule
     /tmp/cc23kojF.s:3406   .bss.base_n:0000000000000000 base_n
     /tmp/cc23kojF.s:3372   .text.matrix_init_user:0000000000000000 matrix_init_user
     /tmp/cc23kojF.s:3437   .data.tap_dance_actions:0000000000000000 tap_dance_actions
     /tmp/cc23kojF.s:3522   .progmem.data.keymaps:0000000000000000 keymaps

UNDEFINED SYMBOLS
unregister_code
layer_off
send_string_P
reset_tap_dance
register_code
send_string
timer_elapsed
timer_read
layer_state
biton32
layer_on
set_oneshot_layer
clear_oneshot_layer_state
clear_mods
set_single_persistent_default_layer
eeconfig_is_enabled
eeconfig_init
eeconfig_read_keymap
keymap_config
eeconfig_update_keymap
steno_set_mode
__do_copy_data
__do_clear_bss
