   1               		.file	"keymap.c"
   2               	__SP_H__ = 0x3e
   3               	__SP_L__ = 0x3d
   4               	__SREG__ = 0x3f
   5               	__tmp_reg__ = 0
   6               	__zero_reg__ = 1
   7               		.text
   8               	.Ltext0:
   9               		.cfi_sections	.debug_frame
  10               		.section	.text.paste_reset,"ax",@progbits
  11               	.global	paste_reset
  13               	paste_reset:
  14               	.LFB144:
  15               		.file 1 "/home/shum/qmk_firmware/keyboards/splitography/keymaps/beaklsi/common/keycode_functions.c
   1:/home/shum/qmk_firmware/keyboards/splitography/keymaps/beaklsi/common/keycode_functions.c **** 
   2:/home/shum/qmk_firmware/keyboards/splitography/keymaps/beaklsi/common/keycode_functions.c **** #include "keycode_functions.h"
   3:/home/shum/qmk_firmware/keyboards/splitography/keymaps/beaklsi/common/keycode_functions.c **** 
   4:/home/shum/qmk_firmware/keyboards/splitography/keymaps/beaklsi/common/keycode_functions.c **** static uint8_t  i         = 0;              // inline for loop counter
   5:/home/shum/qmk_firmware/keyboards/splitography/keymaps/beaklsi/common/keycode_functions.c **** static uint16_t key_timer = 0;              // global event timer
   6:/home/shum/qmk_firmware/keyboards/splitography/keymaps/beaklsi/common/keycode_functions.c **** 
   7:/home/shum/qmk_firmware/keyboards/splitography/keymaps/beaklsi/common/keycode_functions.c **** // Keycodes
   8:/home/shum/qmk_firmware/keyboards/splitography/keymaps/beaklsi/common/keycode_functions.c **** // ▔▔▔▔▔▔▔▔▔▔▔▔▔▔▔▔▔▔▔▔▔▔▔▔▔▔▔▔▔▔▔▔
   9:/home/shum/qmk_firmware/keyboards/splitography/keymaps/beaklsi/common/keycode_functions.c **** 
  10:/home/shum/qmk_firmware/keyboards/splitography/keymaps/beaklsi/common/keycode_functions.c **** // ................................................................... Mod Masks
  11:/home/shum/qmk_firmware/keyboards/splitography/keymaps/beaklsi/common/keycode_functions.c **** 
  12:/home/shum/qmk_firmware/keyboards/splitography/keymaps/beaklsi/common/keycode_functions.c **** // tap dance persistant mods, see process_record_user()
  13:/home/shum/qmk_firmware/keyboards/splitography/keymaps/beaklsi/common/keycode_functions.c **** // keyboard_report->mods (?) appears to be cleared by tap dance
  14:/home/shum/qmk_firmware/keyboards/splitography/keymaps/beaklsi/common/keycode_functions.c **** static uint8_t mods = 0;
  15:/home/shum/qmk_firmware/keyboards/splitography/keymaps/beaklsi/common/keycode_functions.c **** 
  16:/home/shum/qmk_firmware/keyboards/splitography/keymaps/beaklsi/common/keycode_functions.c **** void tap_mods(keyrecord_t *record, uint16_t keycode)
  17:/home/shum/qmk_firmware/keyboards/splitography/keymaps/beaklsi/common/keycode_functions.c **** {
  18:/home/shum/qmk_firmware/keyboards/splitography/keymaps/beaklsi/common/keycode_functions.c ****   if (record->event.pressed) { mods |= MOD_BIT(keycode); }
  19:/home/shum/qmk_firmware/keyboards/splitography/keymaps/beaklsi/common/keycode_functions.c ****   else                       { mods &= ~(MOD_BIT(keycode)); }
  20:/home/shum/qmk_firmware/keyboards/splitography/keymaps/beaklsi/common/keycode_functions.c **** }
  21:/home/shum/qmk_firmware/keyboards/splitography/keymaps/beaklsi/common/keycode_functions.c **** 
  22:/home/shum/qmk_firmware/keyboards/splitography/keymaps/beaklsi/common/keycode_functions.c **** // (un)register modifiers
  23:/home/shum/qmk_firmware/keyboards/splitography/keymaps/beaklsi/common/keycode_functions.c **** void modifier(void (*f)(uint8_t))
  24:/home/shum/qmk_firmware/keyboards/splitography/keymaps/beaklsi/common/keycode_functions.c **** {
  25:/home/shum/qmk_firmware/keyboards/splitography/keymaps/beaklsi/common/keycode_functions.c ****   if (mods & MOD_BIT(KC_LCTL)) { f(KC_LCTL); }
  26:/home/shum/qmk_firmware/keyboards/splitography/keymaps/beaklsi/common/keycode_functions.c ****   if (mods & MOD_BIT(KC_LGUI)) { f(KC_LGUI); }
  27:/home/shum/qmk_firmware/keyboards/splitography/keymaps/beaklsi/common/keycode_functions.c ****   if (mods & MOD_BIT(KC_LALT)) { f(KC_LALT); }
  28:/home/shum/qmk_firmware/keyboards/splitography/keymaps/beaklsi/common/keycode_functions.c ****   if (mods & MOD_BIT(KC_LSFT)) { f(KC_LSFT); }
  29:/home/shum/qmk_firmware/keyboards/splitography/keymaps/beaklsi/common/keycode_functions.c ****   if (mods & MOD_BIT(KC_RSFT)) { f(KC_RSFT); }  // note: qmk macros all use left modifiers
  30:/home/shum/qmk_firmware/keyboards/splitography/keymaps/beaklsi/common/keycode_functions.c **** }
  31:/home/shum/qmk_firmware/keyboards/splitography/keymaps/beaklsi/common/keycode_functions.c **** 
  32:/home/shum/qmk_firmware/keyboards/splitography/keymaps/beaklsi/common/keycode_functions.c **** // base layer modifier and only shift modifier KC_LSFT or KC_RSFT
  33:/home/shum/qmk_firmware/keyboards/splitography/keymaps/beaklsi/common/keycode_functions.c **** bool on_shift(uint16_t shift_key)
  34:/home/shum/qmk_firmware/keyboards/splitography/keymaps/beaklsi/common/keycode_functions.c **** {
  35:/home/shum/qmk_firmware/keyboards/splitography/keymaps/beaklsi/common/keycode_functions.c ****   // return (mods && ((mods & MOD_BIT(shift_key)) == mods) && (biton32(layer_state) == _BASE || bit
  36:/home/shum/qmk_firmware/keyboards/splitography/keymaps/beaklsi/common/keycode_functions.c ****   // return (mods && ((mods & MOD_BIT(shift_key)) == mods));
  37:/home/shum/qmk_firmware/keyboards/splitography/keymaps/beaklsi/common/keycode_functions.c ****   return mods & MOD_BIT(shift_key);
  38:/home/shum/qmk_firmware/keyboards/splitography/keymaps/beaklsi/common/keycode_functions.c **** }
  39:/home/shum/qmk_firmware/keyboards/splitography/keymaps/beaklsi/common/keycode_functions.c **** 
  40:/home/shum/qmk_firmware/keyboards/splitography/keymaps/beaklsi/common/keycode_functions.c **** // .................................................................. Key event
  41:/home/shum/qmk_firmware/keyboards/splitography/keymaps/beaklsi/common/keycode_functions.c **** 
  42:/home/shum/qmk_firmware/keyboards/splitography/keymaps/beaklsi/common/keycode_functions.c **** static uint16_t tt_keycode = 0;             // current TT keycode
  43:/home/shum/qmk_firmware/keyboards/splitography/keymaps/beaklsi/common/keycode_functions.c **** 
  44:/home/shum/qmk_firmware/keyboards/splitography/keymaps/beaklsi/common/keycode_functions.c **** // alternate escape for TT layers, see process_record_user()
  45:/home/shum/qmk_firmware/keyboards/splitography/keymaps/beaklsi/common/keycode_functions.c **** void tt_escape(keyrecord_t *record, uint16_t keycode)
  46:/home/shum/qmk_firmware/keyboards/splitography/keymaps/beaklsi/common/keycode_functions.c **** {
  47:/home/shum/qmk_firmware/keyboards/splitography/keymaps/beaklsi/common/keycode_functions.c ****   if (tt_keycode != keycode && tt_keycode) { base_layer(0); } // if different TT layer selected
  48:/home/shum/qmk_firmware/keyboards/splitography/keymaps/beaklsi/common/keycode_functions.c ****   if (record->event.pressed)               { key_timer = timer_read(); }
  49:/home/shum/qmk_firmware/keyboards/splitography/keymaps/beaklsi/common/keycode_functions.c ****   else {
  50:/home/shum/qmk_firmware/keyboards/splitography/keymaps/beaklsi/common/keycode_functions.c ****     if (timer_elapsed(key_timer) < TAPPING_TERM) { tt_keycode = keycode; }
  51:/home/shum/qmk_firmware/keyboards/splitography/keymaps/beaklsi/common/keycode_functions.c ****     key_timer = 0;
  52:/home/shum/qmk_firmware/keyboards/splitography/keymaps/beaklsi/common/keycode_functions.c ****   }
  53:/home/shum/qmk_firmware/keyboards/splitography/keymaps/beaklsi/common/keycode_functions.c **** }
  54:/home/shum/qmk_firmware/keyboards/splitography/keymaps/beaklsi/common/keycode_functions.c **** 
  55:/home/shum/qmk_firmware/keyboards/splitography/keymaps/beaklsi/common/keycode_functions.c **** // .......................................................... Keycode Primitives
  56:/home/shum/qmk_firmware/keyboards/splitography/keymaps/beaklsi/common/keycode_functions.c **** 
  57:/home/shum/qmk_firmware/keyboards/splitography/keymaps/beaklsi/common/keycode_functions.c **** // register shift keycode
  58:/home/shum/qmk_firmware/keyboards/splitography/keymaps/beaklsi/common/keycode_functions.c **** void register_shift(uint16_t keycode)
  59:/home/shum/qmk_firmware/keyboards/splitography/keymaps/beaklsi/common/keycode_functions.c **** {
  60:/home/shum/qmk_firmware/keyboards/splitography/keymaps/beaklsi/common/keycode_functions.c ****   register_code(KC_LSFT);
  61:/home/shum/qmk_firmware/keyboards/splitography/keymaps/beaklsi/common/keycode_functions.c ****   register_code(keycode);
  62:/home/shum/qmk_firmware/keyboards/splitography/keymaps/beaklsi/common/keycode_functions.c **** }
  63:/home/shum/qmk_firmware/keyboards/splitography/keymaps/beaklsi/common/keycode_functions.c **** 
  64:/home/shum/qmk_firmware/keyboards/splitography/keymaps/beaklsi/common/keycode_functions.c **** // unregister shift keycode
  65:/home/shum/qmk_firmware/keyboards/splitography/keymaps/beaklsi/common/keycode_functions.c **** void unregister_shift(uint16_t keycode)
  66:/home/shum/qmk_firmware/keyboards/splitography/keymaps/beaklsi/common/keycode_functions.c **** {
  67:/home/shum/qmk_firmware/keyboards/splitography/keymaps/beaklsi/common/keycode_functions.c ****   unregister_code(keycode);
  68:/home/shum/qmk_firmware/keyboards/splitography/keymaps/beaklsi/common/keycode_functions.c ****   unregister_code(KC_LSFT);
  69:/home/shum/qmk_firmware/keyboards/splitography/keymaps/beaklsi/common/keycode_functions.c **** }
  70:/home/shum/qmk_firmware/keyboards/splitography/keymaps/beaklsi/common/keycode_functions.c **** 
  71:/home/shum/qmk_firmware/keyboards/splitography/keymaps/beaklsi/common/keycode_functions.c **** // register simple key press
  72:/home/shum/qmk_firmware/keyboards/splitography/keymaps/beaklsi/common/keycode_functions.c **** void tap_key(uint16_t keycode)
  73:/home/shum/qmk_firmware/keyboards/splitography/keymaps/beaklsi/common/keycode_functions.c **** {
  74:/home/shum/qmk_firmware/keyboards/splitography/keymaps/beaklsi/common/keycode_functions.c ****   register_code  (keycode);
  75:/home/shum/qmk_firmware/keyboards/splitography/keymaps/beaklsi/common/keycode_functions.c ****   unregister_code(keycode);
  76:/home/shum/qmk_firmware/keyboards/splitography/keymaps/beaklsi/common/keycode_functions.c **** }
  77:/home/shum/qmk_firmware/keyboards/splitography/keymaps/beaklsi/common/keycode_functions.c **** 
  78:/home/shum/qmk_firmware/keyboards/splitography/keymaps/beaklsi/common/keycode_functions.c **** void tap_shift(uint16_t keycode)
  79:/home/shum/qmk_firmware/keyboards/splitography/keymaps/beaklsi/common/keycode_functions.c **** {
  80:/home/shum/qmk_firmware/keyboards/splitography/keymaps/beaklsi/common/keycode_functions.c ****   register_code  (KC_LSFT);
  81:/home/shum/qmk_firmware/keyboards/splitography/keymaps/beaklsi/common/keycode_functions.c ****   tap_key        (keycode);
  82:/home/shum/qmk_firmware/keyboards/splitography/keymaps/beaklsi/common/keycode_functions.c ****   unregister_code(KC_LSFT);
  83:/home/shum/qmk_firmware/keyboards/splitography/keymaps/beaklsi/common/keycode_functions.c **** }
  84:/home/shum/qmk_firmware/keyboards/splitography/keymaps/beaklsi/common/keycode_functions.c **** 
  85:/home/shum/qmk_firmware/keyboards/splitography/keymaps/beaklsi/common/keycode_functions.c **** void double_tap(uint8_t count, uint8_t shift, uint16_t keycode)
  86:/home/shum/qmk_firmware/keyboards/splitography/keymaps/beaklsi/common/keycode_functions.c **** {
  87:/home/shum/qmk_firmware/keyboards/splitography/keymaps/beaklsi/common/keycode_functions.c ****   shift ? tap_shift(keycode) : tap_key(keycode);
  88:/home/shum/qmk_firmware/keyboards/splitography/keymaps/beaklsi/common/keycode_functions.c ****   if (count > 1) { shift ? tap_shift(keycode) : tap_key(keycode); }
  89:/home/shum/qmk_firmware/keyboards/splitography/keymaps/beaklsi/common/keycode_functions.c **** }
  90:/home/shum/qmk_firmware/keyboards/splitography/keymaps/beaklsi/common/keycode_functions.c **** 
  91:/home/shum/qmk_firmware/keyboards/splitography/keymaps/beaklsi/common/keycode_functions.c **** // key press for rolling_layer() and lt_shift() macros
  92:/home/shum/qmk_firmware/keyboards/splitography/keymaps/beaklsi/common/keycode_functions.c **** void on_tap(uint8_t shift, uint16_t keycode)
  93:/home/shum/qmk_firmware/keyboards/splitography/keymaps/beaklsi/common/keycode_functions.c **** {
  94:/home/shum/qmk_firmware/keyboards/splitography/keymaps/beaklsi/common/keycode_functions.c ****   if (keycode && (timer_elapsed(key_timer) < TAPPING_TERM)) { tap_mod(shift, keycode); }
  95:/home/shum/qmk_firmware/keyboards/splitography/keymaps/beaklsi/common/keycode_functions.c **** }
  96:/home/shum/qmk_firmware/keyboards/splitography/keymaps/beaklsi/common/keycode_functions.c **** 
  97:/home/shum/qmk_firmware/keyboards/splitography/keymaps/beaklsi/common/keycode_functions.c **** // ............................................................ Keycode Modifier
  98:/home/shum/qmk_firmware/keyboards/splitography/keymaps/beaklsi/common/keycode_functions.c **** 
  99:/home/shum/qmk_firmware/keyboards/splitography/keymaps/beaklsi/common/keycode_functions.c **** #define SHIFT   1
 100:/home/shum/qmk_firmware/keyboards/splitography/keymaps/beaklsi/common/keycode_functions.c **** #define NOSHIFT 0
 101:/home/shum/qmk_firmware/keyboards/splitography/keymaps/beaklsi/common/keycode_functions.c **** 
 102:/home/shum/qmk_firmware/keyboards/splitography/keymaps/beaklsi/common/keycode_functions.c **** void tap_mod(uint16_t modifier, uint16_t keycode)
 103:/home/shum/qmk_firmware/keyboards/splitography/keymaps/beaklsi/common/keycode_functions.c **** {
 104:/home/shum/qmk_firmware/keyboards/splitography/keymaps/beaklsi/common/keycode_functions.c ****   switch (modifier) {
 105:/home/shum/qmk_firmware/keyboards/splitography/keymaps/beaklsi/common/keycode_functions.c ****   case NOSHIFT:
 106:/home/shum/qmk_firmware/keyboards/splitography/keymaps/beaklsi/common/keycode_functions.c ****     tap_key(keycode);
 107:/home/shum/qmk_firmware/keyboards/splitography/keymaps/beaklsi/common/keycode_functions.c ****     break;
 108:/home/shum/qmk_firmware/keyboards/splitography/keymaps/beaklsi/common/keycode_functions.c ****   case SHIFT:
 109:/home/shum/qmk_firmware/keyboards/splitography/keymaps/beaklsi/common/keycode_functions.c ****     tap_shift(keycode);
 110:/home/shum/qmk_firmware/keyboards/splitography/keymaps/beaklsi/common/keycode_functions.c ****     break;
 111:/home/shum/qmk_firmware/keyboards/splitography/keymaps/beaklsi/common/keycode_functions.c ****   default:
 112:/home/shum/qmk_firmware/keyboards/splitography/keymaps/beaklsi/common/keycode_functions.c ****     register_code  (modifier);
 113:/home/shum/qmk_firmware/keyboards/splitography/keymaps/beaklsi/common/keycode_functions.c ****     tap_key        (keycode);
 114:/home/shum/qmk_firmware/keyboards/splitography/keymaps/beaklsi/common/keycode_functions.c ****     unregister_code(modifier);
 115:/home/shum/qmk_firmware/keyboards/splitography/keymaps/beaklsi/common/keycode_functions.c ****   }
 116:/home/shum/qmk_firmware/keyboards/splitography/keymaps/beaklsi/common/keycode_functions.c **** }
 117:/home/shum/qmk_firmware/keyboards/splitography/keymaps/beaklsi/common/keycode_functions.c **** 
 118:/home/shum/qmk_firmware/keyboards/splitography/keymaps/beaklsi/common/keycode_functions.c **** // ALT_T, CTL_T, GUI_T, SFT_T for shifted keycodes
 119:/home/shum/qmk_firmware/keyboards/splitography/keymaps/beaklsi/common/keycode_functions.c **** void mt_shift(keyrecord_t *record, uint16_t modifier, uint16_t modifier2, uint16_t keycode)
 120:/home/shum/qmk_firmware/keyboards/splitography/keymaps/beaklsi/common/keycode_functions.c **** {
 121:/home/shum/qmk_firmware/keyboards/splitography/keymaps/beaklsi/common/keycode_functions.c ****   if (record->event.pressed) {
 122:/home/shum/qmk_firmware/keyboards/splitography/keymaps/beaklsi/common/keycode_functions.c ****     key_timer = timer_read();
 123:/home/shum/qmk_firmware/keyboards/splitography/keymaps/beaklsi/common/keycode_functions.c ****     if (modifier2) { register_code(modifier2); }
 124:/home/shum/qmk_firmware/keyboards/splitography/keymaps/beaklsi/common/keycode_functions.c ****     register_code(modifier);
 125:/home/shum/qmk_firmware/keyboards/splitography/keymaps/beaklsi/common/keycode_functions.c ****   }
 126:/home/shum/qmk_firmware/keyboards/splitography/keymaps/beaklsi/common/keycode_functions.c ****   else {
 127:/home/shum/qmk_firmware/keyboards/splitography/keymaps/beaklsi/common/keycode_functions.c ****     unregister_code(modifier);
 128:/home/shum/qmk_firmware/keyboards/splitography/keymaps/beaklsi/common/keycode_functions.c ****     if (modifier2)                               { unregister_code(modifier2); }
 129:/home/shum/qmk_firmware/keyboards/splitography/keymaps/beaklsi/common/keycode_functions.c ****     if (timer_elapsed(key_timer) < TAPPING_TERM) { tap_shift(keycode); }
 130:/home/shum/qmk_firmware/keyboards/splitography/keymaps/beaklsi/common/keycode_functions.c ****     key_timer = 0;
 131:/home/shum/qmk_firmware/keyboards/splitography/keymaps/beaklsi/common/keycode_functions.c ****   }
 132:/home/shum/qmk_firmware/keyboards/splitography/keymaps/beaklsi/common/keycode_functions.c **** }
 133:/home/shum/qmk_firmware/keyboards/splitography/keymaps/beaklsi/common/keycode_functions.c **** 
 134:/home/shum/qmk_firmware/keyboards/splitography/keymaps/beaklsi/common/keycode_functions.c **** // ................................................................. Map Keycode
 135:/home/shum/qmk_firmware/keyboards/splitography/keymaps/beaklsi/common/keycode_functions.c **** 
 136:/home/shum/qmk_firmware/keyboards/splitography/keymaps/beaklsi/common/keycode_functions.c **** // remap keycode via shift for base and caps layers, see process_record_user()
 137:/home/shum/qmk_firmware/keyboards/splitography/keymaps/beaklsi/common/keycode_functions.c **** bool map_shift(keyrecord_t *record, uint16_t shift_key, uint8_t shift, uint16_t keycode)
 138:/home/shum/qmk_firmware/keyboards/splitography/keymaps/beaklsi/common/keycode_functions.c **** {
 139:/home/shum/qmk_firmware/keyboards/splitography/keymaps/beaklsi/common/keycode_functions.c ****   // if modifier and only shift modifier and base layer..
 140:/home/shum/qmk_firmware/keyboards/splitography/keymaps/beaklsi/common/keycode_functions.c ****   if (on_shift(shift_key)) {
 141:/home/shum/qmk_firmware/keyboards/splitography/keymaps/beaklsi/common/keycode_functions.c ****     if (record->event.pressed) {
 142:/home/shum/qmk_firmware/keyboards/splitography/keymaps/beaklsi/common/keycode_functions.c ****       if (!shift) { unregister_code(KC_LSFT); } // in event of unshifted keycode
 143:/home/shum/qmk_firmware/keyboards/splitography/keymaps/beaklsi/common/keycode_functions.c ****       register_code(keycode);
 144:/home/shum/qmk_firmware/keyboards/splitography/keymaps/beaklsi/common/keycode_functions.c ****     }
 145:/home/shum/qmk_firmware/keyboards/splitography/keymaps/beaklsi/common/keycode_functions.c ****     else {
 146:/home/shum/qmk_firmware/keyboards/splitography/keymaps/beaklsi/common/keycode_functions.c ****       unregister_code(keycode);
 147:/home/shum/qmk_firmware/keyboards/splitography/keymaps/beaklsi/common/keycode_functions.c ****       if (!shift) { register_code(KC_LSFT); }   // restore SFT_T
 148:/home/shum/qmk_firmware/keyboards/splitography/keymaps/beaklsi/common/keycode_functions.c ****     }
 149:/home/shum/qmk_firmware/keyboards/splitography/keymaps/beaklsi/common/keycode_functions.c ****     return true;                                // remap complete, see process_record_user()
 150:/home/shum/qmk_firmware/keyboards/splitography/keymaps/beaklsi/common/keycode_functions.c ****   }
 151:/home/shum/qmk_firmware/keyboards/splitography/keymaps/beaklsi/common/keycode_functions.c ****   return false;
 152:/home/shum/qmk_firmware/keyboards/splitography/keymaps/beaklsi/common/keycode_functions.c **** }
 153:/home/shum/qmk_firmware/keyboards/splitography/keymaps/beaklsi/common/keycode_functions.c **** 
 154:/home/shum/qmk_firmware/keyboards/splitography/keymaps/beaklsi/common/keycode_functions.c **** // Tap Dance
 155:/home/shum/qmk_firmware/keyboards/splitography/keymaps/beaklsi/common/keycode_functions.c **** // ▔▔▔▔▔▔▔▔▔▔▔▔▔▔▔▔▔▔▔▔▔▔▔▔▔▔▔▔▔▔▔▔
 156:/home/shum/qmk_firmware/keyboards/splitography/keymaps/beaklsi/common/keycode_functions.c **** 
 157:/home/shum/qmk_firmware/keyboards/splitography/keymaps/beaklsi/common/keycode_functions.c **** // .......................................................... Tap Dance Keycodes
 158:/home/shum/qmk_firmware/keyboards/splitography/keymaps/beaklsi/common/keycode_functions.c **** 
 159:/home/shum/qmk_firmware/keyboards/splitography/keymaps/beaklsi/common/keycode_functions.c **** qk_tap_dance_action_t tap_dance_actions[] = {
 160:/home/shum/qmk_firmware/keyboards/splitography/keymaps/beaklsi/common/keycode_functions.c ****   [_ASTR]   = ACTION_TAP_DANCE_FN         (asterisk)
 161:/home/shum/qmk_firmware/keyboards/splitography/keymaps/beaklsi/common/keycode_functions.c ****  ,[_BSPC]   = ACTION_TAP_DANCE_FN_ADVANCED(NULL, backspace, backspace_reset)
 162:/home/shum/qmk_firmware/keyboards/splitography/keymaps/beaklsi/common/keycode_functions.c ****  ,[_EMOJ]   = ACTION_TAP_DANCE_FN_ADVANCED(NULL, emoji, emoji_reset)
 163:/home/shum/qmk_firmware/keyboards/splitography/keymaps/beaklsi/common/keycode_functions.c ****  ,[_COMM]   = ACTION_TAP_DANCE_FN         (comma)
 164:/home/shum/qmk_firmware/keyboards/splitography/keymaps/beaklsi/common/keycode_functions.c ****  ,[_DOT]    = ACTION_TAP_DANCE_FN         (dot)
 165:/home/shum/qmk_firmware/keyboards/splitography/keymaps/beaklsi/common/keycode_functions.c ****  ,[_PASTE]  = ACTION_TAP_DANCE_FN_ADVANCED(NULL, paste, paste_reset)
 166:/home/shum/qmk_firmware/keyboards/splitography/keymaps/beaklsi/common/keycode_functions.c ****  ,[_PERC]   = ACTION_TAP_DANCE_FN_ADVANCED(NULL, percent, percent_reset)
 167:/home/shum/qmk_firmware/keyboards/splitography/keymaps/beaklsi/common/keycode_functions.c ****  ,[_PRIV]   = ACTION_TAP_DANCE_FN         (private)
 168:/home/shum/qmk_firmware/keyboards/splitography/keymaps/beaklsi/common/keycode_functions.c ****  ,[_SEND]   = ACTION_TAP_DANCE_FN         (send)
 169:/home/shum/qmk_firmware/keyboards/splitography/keymaps/beaklsi/common/keycode_functions.c ****  ,[_SPC]    = ACTION_TAP_DANCE_FN_ADVANCED(NULL, space, space_reset)
 170:/home/shum/qmk_firmware/keyboards/splitography/keymaps/beaklsi/common/keycode_functions.c ****  ,[_TILD]   = ACTION_TAP_DANCE_FN_ADVANCED(NULL, tilde, tilde_reset)
 171:/home/shum/qmk_firmware/keyboards/splitography/keymaps/beaklsi/common/keycode_functions.c ****  ,[_XPASTE] = ACTION_TAP_DANCE_FN_ADVANCED(NULL, xpaste, xpaste_reset)
 172:/home/shum/qmk_firmware/keyboards/splitography/keymaps/beaklsi/common/keycode_functions.c **** #ifdef HASKELL
 173:/home/shum/qmk_firmware/keyboards/splitography/keymaps/beaklsi/common/keycode_functions.c ****  ,[_COLN]   = ACTION_TAP_DANCE_FN_ADVANCED(NULL, colon, colon_reset)
 174:/home/shum/qmk_firmware/keyboards/splitography/keymaps/beaklsi/common/keycode_functions.c ****  ,[_LT]     = ACTION_TAP_DANCE_FN_ADVANCED(NULL, lesser, lesser_reset)
 175:/home/shum/qmk_firmware/keyboards/splitography/keymaps/beaklsi/common/keycode_functions.c ****  ,[_GT]     = ACTION_TAP_DANCE_FN_ADVANCED(NULL, greater, greater_reset)
 176:/home/shum/qmk_firmware/keyboards/splitography/keymaps/beaklsi/common/keycode_functions.c **** #endif
 177:/home/shum/qmk_firmware/keyboards/splitography/keymaps/beaklsi/common/keycode_functions.c **** };
 178:/home/shum/qmk_firmware/keyboards/splitography/keymaps/beaklsi/common/keycode_functions.c **** 
 179:/home/shum/qmk_firmware/keyboards/splitography/keymaps/beaklsi/common/keycode_functions.c **** // ...................................................... Double Tap Shift/Layer
 180:/home/shum/qmk_firmware/keyboards/splitography/keymaps/beaklsi/common/keycode_functions.c **** 
 181:/home/shum/qmk_firmware/keyboards/splitography/keymaps/beaklsi/common/keycode_functions.c **** static uint8_t dt_shift = 0;
 182:/home/shum/qmk_firmware/keyboards/splitography/keymaps/beaklsi/common/keycode_functions.c **** 
 183:/home/shum/qmk_firmware/keyboards/splitography/keymaps/beaklsi/common/keycode_functions.c **** void double_shift(uint16_t keycode, uint8_t layer)
 184:/home/shum/qmk_firmware/keyboards/splitography/keymaps/beaklsi/common/keycode_functions.c **** {
 185:/home/shum/qmk_firmware/keyboards/splitography/keymaps/beaklsi/common/keycode_functions.c ****   tap_key (keycode);
 186:/home/shum/qmk_firmware/keyboards/splitography/keymaps/beaklsi/common/keycode_functions.c ****   if (DT_SHIFT) {
 187:/home/shum/qmk_firmware/keyboards/splitography/keymaps/beaklsi/common/keycode_functions.c ****     // set_oneshot_mods(MOD_LSFT);
 188:/home/shum/qmk_firmware/keyboards/splitography/keymaps/beaklsi/common/keycode_functions.c ****     // layer_on(layer);
 189:/home/shum/qmk_firmware/keyboards/splitography/keymaps/beaklsi/common/keycode_functions.c ****     layer_on         (_SHIFT);
 190:/home/shum/qmk_firmware/keyboards/splitography/keymaps/beaklsi/common/keycode_functions.c ****     set_oneshot_layer(_SHIFT, ONESHOT_START);
 191:/home/shum/qmk_firmware/keyboards/splitography/keymaps/beaklsi/common/keycode_functions.c ****     dt_shift = 1;
 192:/home/shum/qmk_firmware/keyboards/splitography/keymaps/beaklsi/common/keycode_functions.c ****   }
 193:/home/shum/qmk_firmware/keyboards/splitography/keymaps/beaklsi/common/keycode_functions.c ****   else { layer_on(layer); }
 194:/home/shum/qmk_firmware/keyboards/splitography/keymaps/beaklsi/common/keycode_functions.c **** }
 195:/home/shum/qmk_firmware/keyboards/splitography/keymaps/beaklsi/common/keycode_functions.c **** 
 196:/home/shum/qmk_firmware/keyboards/splitography/keymaps/beaklsi/common/keycode_functions.c **** static uint8_t auto_cap = 0;                // down_punc chord, see process_record_user() TD_TILD, 
 197:/home/shum/qmk_firmware/keyboards/splitography/keymaps/beaklsi/common/keycode_functions.c **** 
 198:/home/shum/qmk_firmware/keyboards/splitography/keymaps/beaklsi/common/keycode_functions.c **** // tap dance LT (LAYER, KEY) emulation with <KEY><DOWN> -> <KEY><SHIFT> and auto-repeat extensions!
 199:/home/shum/qmk_firmware/keyboards/splitography/keymaps/beaklsi/common/keycode_functions.c **** void cap_lt(qk_tap_dance_state_t *state, uint16_t keycode, uint8_t layer, uint8_t paragraph, uint16
 200:/home/shum/qmk_firmware/keyboards/splitography/keymaps/beaklsi/common/keycode_functions.c **** {
 201:/home/shum/qmk_firmware/keyboards/splitography/keymaps/beaklsi/common/keycode_functions.c ****   if (auto_cap) {                           // sentence/paragraph capitalization
 202:/home/shum/qmk_firmware/keyboards/splitography/keymaps/beaklsi/common/keycode_functions.c ****     if (state->pressed)                                    { return; }
 203:/home/shum/qmk_firmware/keyboards/splitography/keymaps/beaklsi/common/keycode_functions.c ****     if ((state->count > 1) && (state->count == paragraph)) { tap_key(leader); }
 204:/home/shum/qmk_firmware/keyboards/splitography/keymaps/beaklsi/common/keycode_functions.c ****     double_shift(leader, layer);            // discard excess taps!
 205:/home/shum/qmk_firmware/keyboards/splitography/keymaps/beaklsi/common/keycode_functions.c ****   }
 206:/home/shum/qmk_firmware/keyboards/splitography/keymaps/beaklsi/common/keycode_functions.c ****   else if (state->pressed)                { (state->count == 1) ? layer_on(layer) : register_code(k
 207:/home/shum/qmk_firmware/keyboards/splitography/keymaps/beaklsi/common/keycode_functions.c ****   else for (i = 0; i < state->count; i++) { tap_key(keycode); }
 208:/home/shum/qmk_firmware/keyboards/splitography/keymaps/beaklsi/common/keycode_functions.c **** }
 209:/home/shum/qmk_firmware/keyboards/splitography/keymaps/beaklsi/common/keycode_functions.c **** 
 210:/home/shum/qmk_firmware/keyboards/splitography/keymaps/beaklsi/common/keycode_functions.c **** void tap_reset(uint16_t keycode, uint8_t layer)
 211:/home/shum/qmk_firmware/keyboards/splitography/keymaps/beaklsi/common/keycode_functions.c **** {
 212:/home/shum/qmk_firmware/keyboards/splitography/keymaps/beaklsi/common/keycode_functions.c ****   unregister_code(keycode);
 213:/home/shum/qmk_firmware/keyboards/splitography/keymaps/beaklsi/common/keycode_functions.c ****   dt_shift ? clear_oneshot_layer_state(ONESHOT_PRESSED) : layer_off(layer);
 214:/home/shum/qmk_firmware/keyboards/splitography/keymaps/beaklsi/common/keycode_functions.c ****   dt_shift = 0;
 215:/home/shum/qmk_firmware/keyboards/splitography/keymaps/beaklsi/common/keycode_functions.c ****   auto_cap = 0;                             // clear retained down_rule, see process_record_user()
 216:/home/shum/qmk_firmware/keyboards/splitography/keymaps/beaklsi/common/keycode_functions.c **** }
 217:/home/shum/qmk_firmware/keyboards/splitography/keymaps/beaklsi/common/keycode_functions.c **** 
 218:/home/shum/qmk_firmware/keyboards/splitography/keymaps/beaklsi/common/keycode_functions.c **** #define SENTENCE  0                         // capitalization method
 219:/home/shum/qmk_firmware/keyboards/splitography/keymaps/beaklsi/common/keycode_functions.c **** #define PARAGRAPH 2
 220:/home/shum/qmk_firmware/keyboards/splitography/keymaps/beaklsi/common/keycode_functions.c **** 
 221:/home/shum/qmk_firmware/keyboards/splitography/keymaps/beaklsi/common/keycode_functions.c **** // augment pseudo LT (_RSHIFT, KC_ENT) handling below for rapid <ENTER><SHIFT> sequences
 222:/home/shum/qmk_firmware/keyboards/splitography/keymaps/beaklsi/common/keycode_functions.c **** void backspace(qk_tap_dance_state_t *state, void *user_data)
 223:/home/shum/qmk_firmware/keyboards/splitography/keymaps/beaklsi/common/keycode_functions.c **** {
 224:/home/shum/qmk_firmware/keyboards/splitography/keymaps/beaklsi/common/keycode_functions.c ****   cap_lt(state, KC_BSPC, _EDIT, PARAGRAPH, KC_ENT); // double tap -> double enter + shift, down -> 
 225:/home/shum/qmk_firmware/keyboards/splitography/keymaps/beaklsi/common/keycode_functions.c **** }
 226:/home/shum/qmk_firmware/keyboards/splitography/keymaps/beaklsi/common/keycode_functions.c **** 
 227:/home/shum/qmk_firmware/keyboards/splitography/keymaps/beaklsi/common/keycode_functions.c **** void backspace_reset(qk_tap_dance_state_t *state, void *user_data)
 228:/home/shum/qmk_firmware/keyboards/splitography/keymaps/beaklsi/common/keycode_functions.c **** {
 229:/home/shum/qmk_firmware/keyboards/splitography/keymaps/beaklsi/common/keycode_functions.c ****   tap_reset(KC_BSPC, _EDIT);
 230:/home/shum/qmk_firmware/keyboards/splitography/keymaps/beaklsi/common/keycode_functions.c **** }
 231:/home/shum/qmk_firmware/keyboards/splitography/keymaps/beaklsi/common/keycode_functions.c **** 
 232:/home/shum/qmk_firmware/keyboards/splitography/keymaps/beaklsi/common/keycode_functions.c **** // augment pseudo LT (_LSHIFT, KC_SPC) handling below for rapid <SPACE><SHIFT> sequences
 233:/home/shum/qmk_firmware/keyboards/splitography/keymaps/beaklsi/common/keycode_functions.c **** void space(qk_tap_dance_state_t *state, void *user_data)
 234:/home/shum/qmk_firmware/keyboards/splitography/keymaps/beaklsi/common/keycode_functions.c **** {
 235:/home/shum/qmk_firmware/keyboards/splitography/keymaps/beaklsi/common/keycode_functions.c ****   cap_lt(state, KC_SPC, _GUIFN, SENTENCE, KC_SPC); // double tap down -> space...
 236:/home/shum/qmk_firmware/keyboards/splitography/keymaps/beaklsi/common/keycode_functions.c **** }
 237:/home/shum/qmk_firmware/keyboards/splitography/keymaps/beaklsi/common/keycode_functions.c **** 
 238:/home/shum/qmk_firmware/keyboards/splitography/keymaps/beaklsi/common/keycode_functions.c **** void space_reset(qk_tap_dance_state_t *state, void *user_data)
 239:/home/shum/qmk_firmware/keyboards/splitography/keymaps/beaklsi/common/keycode_functions.c **** {
 240:/home/shum/qmk_firmware/keyboards/splitography/keymaps/beaklsi/common/keycode_functions.c ****   tap_reset(KC_SPC, _GUIFN);
 241:/home/shum/qmk_firmware/keyboards/splitography/keymaps/beaklsi/common/keycode_functions.c **** }
 242:/home/shum/qmk_firmware/keyboards/splitography/keymaps/beaklsi/common/keycode_functions.c **** 
 243:/home/shum/qmk_firmware/keyboards/splitography/keymaps/beaklsi/common/keycode_functions.c **** // ........................................................... Triple Tap Insert
 244:/home/shum/qmk_firmware/keyboards/splitography/keymaps/beaklsi/common/keycode_functions.c **** 
 245:/home/shum/qmk_firmware/keyboards/splitography/keymaps/beaklsi/common/keycode_functions.c **** #ifdef HASKELL
 246:/home/shum/qmk_firmware/keyboards/splitography/keymaps/beaklsi/common/keycode_functions.c **** void colon(qk_tap_dance_state_t *state, void *user_data)
 247:/home/shum/qmk_firmware/keyboards/splitography/keymaps/beaklsi/common/keycode_functions.c **** {
 248:/home/shum/qmk_firmware/keyboards/splitography/keymaps/beaklsi/common/keycode_functions.c ****   if (state->count > 2) {
 249:/home/shum/qmk_firmware/keyboards/splitography/keymaps/beaklsi/common/keycode_functions.c ****     if (state->pressed)                     { register_shift(KC_SCLN); }
 250:/home/shum/qmk_firmware/keyboards/splitography/keymaps/beaklsi/common/keycode_functions.c ****     else if (state->count == 3)             { send_string(" :: "); }
 251:/home/shum/qmk_firmware/keyboards/splitography/keymaps/beaklsi/common/keycode_functions.c ****     else for (i = 0; i < state->count; i++) { tap_shift(KC_SCLN); }
 252:/home/shum/qmk_firmware/keyboards/splitography/keymaps/beaklsi/common/keycode_functions.c ****   }
 253:/home/shum/qmk_firmware/keyboards/splitography/keymaps/beaklsi/common/keycode_functions.c ****   else { state->pressed ? register_shift(KC_SCLN) : double_tap(state->count, SHIFT, KC_SCLN); }
 254:/home/shum/qmk_firmware/keyboards/splitography/keymaps/beaklsi/common/keycode_functions.c ****   reset_tap_dance(state);
 255:/home/shum/qmk_firmware/keyboards/splitography/keymaps/beaklsi/common/keycode_functions.c **** }
 256:/home/shum/qmk_firmware/keyboards/splitography/keymaps/beaklsi/common/keycode_functions.c **** 
 257:/home/shum/qmk_firmware/keyboards/splitography/keymaps/beaklsi/common/keycode_functions.c **** void colon_reset(qk_tap_dance_state_t *state, void *user_data)
 258:/home/shum/qmk_firmware/keyboards/splitography/keymaps/beaklsi/common/keycode_functions.c **** {
 259:/home/shum/qmk_firmware/keyboards/splitography/keymaps/beaklsi/common/keycode_functions.c ****   unregister_shift(KC_SCLN);
 260:/home/shum/qmk_firmware/keyboards/splitography/keymaps/beaklsi/common/keycode_functions.c **** }
 261:/home/shum/qmk_firmware/keyboards/splitography/keymaps/beaklsi/common/keycode_functions.c **** 
 262:/home/shum/qmk_firmware/keyboards/splitography/keymaps/beaklsi/common/keycode_functions.c **** void lesser(qk_tap_dance_state_t *state, void *user_data)
 263:/home/shum/qmk_firmware/keyboards/splitography/keymaps/beaklsi/common/keycode_functions.c **** {
 264:/home/shum/qmk_firmware/keyboards/splitography/keymaps/beaklsi/common/keycode_functions.c ****   if (state->count > 2) {
 265:/home/shum/qmk_firmware/keyboards/splitography/keymaps/beaklsi/common/keycode_functions.c ****     if (state->pressed)                     { register_shift(KC_COMM); }
 266:/home/shum/qmk_firmware/keyboards/splitography/keymaps/beaklsi/common/keycode_functions.c ****     else if (state->count == 3)             { send_string(" <- "); }
 267:/home/shum/qmk_firmware/keyboards/splitography/keymaps/beaklsi/common/keycode_functions.c ****     else for (i = 0; i < state->count; i++) { tap_shift(KC_COMM); }
 268:/home/shum/qmk_firmware/keyboards/splitography/keymaps/beaklsi/common/keycode_functions.c ****   }
 269:/home/shum/qmk_firmware/keyboards/splitography/keymaps/beaklsi/common/keycode_functions.c ****   else if ((state->count == 2) && state->pressed) { register_shift(KC_COMM); }
 270:/home/shum/qmk_firmware/keyboards/splitography/keymaps/beaklsi/common/keycode_functions.c ****   else                                            { state->pressed ? register_code(KC_LCTL) : doubl
 271:/home/shum/qmk_firmware/keyboards/splitography/keymaps/beaklsi/common/keycode_functions.c ****   reset_tap_dance(state);
 272:/home/shum/qmk_firmware/keyboards/splitography/keymaps/beaklsi/common/keycode_functions.c **** }
 273:/home/shum/qmk_firmware/keyboards/splitography/keymaps/beaklsi/common/keycode_functions.c **** 
 274:/home/shum/qmk_firmware/keyboards/splitography/keymaps/beaklsi/common/keycode_functions.c **** void lesser_reset(qk_tap_dance_state_t *state, void *user_data)
 275:/home/shum/qmk_firmware/keyboards/splitography/keymaps/beaklsi/common/keycode_functions.c **** {
 276:/home/shum/qmk_firmware/keyboards/splitography/keymaps/beaklsi/common/keycode_functions.c ****   unregister_shift(KC_COMM);
 277:/home/shum/qmk_firmware/keyboards/splitography/keymaps/beaklsi/common/keycode_functions.c ****   unregister_code(KC_LCTL);
 278:/home/shum/qmk_firmware/keyboards/splitography/keymaps/beaklsi/common/keycode_functions.c **** }
 279:/home/shum/qmk_firmware/keyboards/splitography/keymaps/beaklsi/common/keycode_functions.c **** 
 280:/home/shum/qmk_firmware/keyboards/splitography/keymaps/beaklsi/common/keycode_functions.c **** void greater(qk_tap_dance_state_t *state, void *user_data)
 281:/home/shum/qmk_firmware/keyboards/splitography/keymaps/beaklsi/common/keycode_functions.c **** {
 282:/home/shum/qmk_firmware/keyboards/splitography/keymaps/beaklsi/common/keycode_functions.c ****   if (state->count > 2) {
 283:/home/shum/qmk_firmware/keyboards/splitography/keymaps/beaklsi/common/keycode_functions.c ****     if (state->pressed)                     { register_shift(KC_DOT); }
 284:/home/shum/qmk_firmware/keyboards/splitography/keymaps/beaklsi/common/keycode_functions.c ****     else if (state->count == 3)             { send_string(" -> "); }
 285:/home/shum/qmk_firmware/keyboards/splitography/keymaps/beaklsi/common/keycode_functions.c ****     else for (i = 0; i < state->count; i++) { tap_shift(KC_DOT); }
 286:/home/shum/qmk_firmware/keyboards/splitography/keymaps/beaklsi/common/keycode_functions.c ****   }
 287:/home/shum/qmk_firmware/keyboards/splitography/keymaps/beaklsi/common/keycode_functions.c ****   else if ((state->count == 2) && state->pressed) { register_shift(KC_DOT); }
 288:/home/shum/qmk_firmware/keyboards/splitography/keymaps/beaklsi/common/keycode_functions.c ****   else                                            { state->pressed ? register_code(KC_LSFT) : doubl
 289:/home/shum/qmk_firmware/keyboards/splitography/keymaps/beaklsi/common/keycode_functions.c ****   reset_tap_dance(state);
 290:/home/shum/qmk_firmware/keyboards/splitography/keymaps/beaklsi/common/keycode_functions.c **** }
 291:/home/shum/qmk_firmware/keyboards/splitography/keymaps/beaklsi/common/keycode_functions.c **** 
 292:/home/shum/qmk_firmware/keyboards/splitography/keymaps/beaklsi/common/keycode_functions.c **** void greater_reset(qk_tap_dance_state_t *state, void *user_data)
 293:/home/shum/qmk_firmware/keyboards/splitography/keymaps/beaklsi/common/keycode_functions.c **** {
 294:/home/shum/qmk_firmware/keyboards/splitography/keymaps/beaklsi/common/keycode_functions.c ****   unregister_shift(KC_DOT);
 295:/home/shum/qmk_firmware/keyboards/splitography/keymaps/beaklsi/common/keycode_functions.c ****   unregister_code (KC_LSFT);
 296:/home/shum/qmk_firmware/keyboards/splitography/keymaps/beaklsi/common/keycode_functions.c **** }
 297:/home/shum/qmk_firmware/keyboards/splitography/keymaps/beaklsi/common/keycode_functions.c **** #endif
 298:/home/shum/qmk_firmware/keyboards/splitography/keymaps/beaklsi/common/keycode_functions.c **** 
 299:/home/shum/qmk_firmware/keyboards/splitography/keymaps/beaklsi/common/keycode_functions.c **** void tilde(qk_tap_dance_state_t *state, void *user_data)
 300:/home/shum/qmk_firmware/keyboards/splitography/keymaps/beaklsi/common/keycode_functions.c **** {
 301:/home/shum/qmk_firmware/keyboards/splitography/keymaps/beaklsi/common/keycode_functions.c ****   if (on_shift(KC_RSFT)) {                  // dot, shift -> tilde, see process_record_user() TD_TI
 302:/home/shum/qmk_firmware/keyboards/splitography/keymaps/beaklsi/common/keycode_functions.c ****     if (state->count > 1) {
 303:/home/shum/qmk_firmware/keyboards/splitography/keymaps/beaklsi/common/keycode_functions.c ****       if (state->pressed)                     { register_shift(KC_GRV); }
 304:/home/shum/qmk_firmware/keyboards/splitography/keymaps/beaklsi/common/keycode_functions.c ****       else if (state->count == 2)             { send_string("~/"); } 
 305:/home/shum/qmk_firmware/keyboards/splitography/keymaps/beaklsi/common/keycode_functions.c ****       else for (i = 0; i < state->count; i++) { tap_shift(KC_GRV); }
 306:/home/shum/qmk_firmware/keyboards/splitography/keymaps/beaklsi/common/keycode_functions.c ****     }
 307:/home/shum/qmk_firmware/keyboards/splitography/keymaps/beaklsi/common/keycode_functions.c ****     else { state->pressed ? register_shift(KC_GRV) : tap_shift(KC_GRV); }
 308:/home/shum/qmk_firmware/keyboards/splitography/keymaps/beaklsi/common/keycode_functions.c ****   }
 309:/home/shum/qmk_firmware/keyboards/splitography/keymaps/beaklsi/common/keycode_functions.c ****   else { state->pressed ? register_code(KC_DOT) : tap_key(KC_DOT); }
 310:/home/shum/qmk_firmware/keyboards/splitography/keymaps/beaklsi/common/keycode_functions.c ****   reset_tap_dance(state);
 311:/home/shum/qmk_firmware/keyboards/splitography/keymaps/beaklsi/common/keycode_functions.c **** }
 312:/home/shum/qmk_firmware/keyboards/splitography/keymaps/beaklsi/common/keycode_functions.c **** 
 313:/home/shum/qmk_firmware/keyboards/splitography/keymaps/beaklsi/common/keycode_functions.c **** void tilde_reset(qk_tap_dance_state_t *state, void *user_data)
 314:/home/shum/qmk_firmware/keyboards/splitography/keymaps/beaklsi/common/keycode_functions.c **** {
 315:/home/shum/qmk_firmware/keyboards/splitography/keymaps/beaklsi/common/keycode_functions.c ****   unregister_shift(KC_GRV);
 316:/home/shum/qmk_firmware/keyboards/splitography/keymaps/beaklsi/common/keycode_functions.c ****   unregister_code (KC_DOT);
 317:/home/shum/qmk_firmware/keyboards/splitography/keymaps/beaklsi/common/keycode_functions.c ****   if (on_shift(KC_RSFT)) { register_code(KC_LSFT); } // restore HOME_T, see process_record_user() T
 318:/home/shum/qmk_firmware/keyboards/splitography/keymaps/beaklsi/common/keycode_functions.c **** }
 319:/home/shum/qmk_firmware/keyboards/splitography/keymaps/beaklsi/common/keycode_functions.c **** 
 320:/home/shum/qmk_firmware/keyboards/splitography/keymaps/beaklsi/common/keycode_functions.c **** // ........................................................... Double Tap Insert
 321:/home/shum/qmk_firmware/keyboards/splitography/keymaps/beaklsi/common/keycode_functions.c **** 
 322:/home/shum/qmk_firmware/keyboards/splitography/keymaps/beaklsi/common/keycode_functions.c **** void asterisk(qk_tap_dance_state_t *state, void *user_data)
 323:/home/shum/qmk_firmware/keyboards/splitography/keymaps/beaklsi/common/keycode_functions.c **** {
 324:/home/shum/qmk_firmware/keyboards/splitography/keymaps/beaklsi/common/keycode_functions.c ****   if (state->count > 1) { tap_key(KC_DOT); }
 325:/home/shum/qmk_firmware/keyboards/splitography/keymaps/beaklsi/common/keycode_functions.c ****   tap_shift(KC_8);
 326:/home/shum/qmk_firmware/keyboards/splitography/keymaps/beaklsi/common/keycode_functions.c ****   reset_tap_dance(state);
 327:/home/shum/qmk_firmware/keyboards/splitography/keymaps/beaklsi/common/keycode_functions.c **** }
 328:/home/shum/qmk_firmware/keyboards/splitography/keymaps/beaklsi/common/keycode_functions.c **** 
 329:/home/shum/qmk_firmware/keyboards/splitography/keymaps/beaklsi/common/keycode_functions.c **** void comma(qk_tap_dance_state_t *state, void *user_data)
 330:/home/shum/qmk_firmware/keyboards/splitography/keymaps/beaklsi/common/keycode_functions.c **** {
 331:/home/shum/qmk_firmware/keyboards/splitography/keymaps/beaklsi/common/keycode_functions.c ****   tap_key(KC_COMM);
 332:/home/shum/qmk_firmware/keyboards/splitography/keymaps/beaklsi/common/keycode_functions.c ****   if (state->count > 1) { tap_key(KC_SPC); }
 333:/home/shum/qmk_firmware/keyboards/splitography/keymaps/beaklsi/common/keycode_functions.c ****   reset_tap_dance(state);
 334:/home/shum/qmk_firmware/keyboards/splitography/keymaps/beaklsi/common/keycode_functions.c **** }
 335:/home/shum/qmk_firmware/keyboards/splitography/keymaps/beaklsi/common/keycode_functions.c **** 
 336:/home/shum/qmk_firmware/keyboards/splitography/keymaps/beaklsi/common/keycode_functions.c **** void dot(qk_tap_dance_state_t *state, void *user_data)
 337:/home/shum/qmk_firmware/keyboards/splitography/keymaps/beaklsi/common/keycode_functions.c **** {
 338:/home/shum/qmk_firmware/keyboards/splitography/keymaps/beaklsi/common/keycode_functions.c ****   state->count > 1 ? tap_shift(KC_COLN) : tap_key(KC_DOT);
 339:/home/shum/qmk_firmware/keyboards/splitography/keymaps/beaklsi/common/keycode_functions.c ****   reset_tap_dance(state);
 340:/home/shum/qmk_firmware/keyboards/splitography/keymaps/beaklsi/common/keycode_functions.c **** }
 341:/home/shum/qmk_firmware/keyboards/splitography/keymaps/beaklsi/common/keycode_functions.c **** 
 342:/home/shum/qmk_firmware/keyboards/splitography/keymaps/beaklsi/common/keycode_functions.c **** void emoji(qk_tap_dance_state_t *state, void *user_data)
 343:/home/shum/qmk_firmware/keyboards/splitography/keymaps/beaklsi/common/keycode_functions.c **** {
 344:/home/shum/qmk_firmware/keyboards/splitography/keymaps/beaklsi/common/keycode_functions.c ****   if (state->count > 1) {
 345:/home/shum/qmk_firmware/keyboards/splitography/keymaps/beaklsi/common/keycode_functions.c ****     if (state->pressed)                     { register_shift(KC_SCLN); }
 346:/home/shum/qmk_firmware/keyboards/splitography/keymaps/beaklsi/common/keycode_functions.c ****     else if (state->count == 2)             { tap_shift(KC_SCLN); tap_key(KC_MINUS); }
 347:/home/shum/qmk_firmware/keyboards/splitography/keymaps/beaklsi/common/keycode_functions.c ****     else for (i = 0; i < state->count; i++) { tap_shift(KC_SCLN); }
 348:/home/shum/qmk_firmware/keyboards/splitography/keymaps/beaklsi/common/keycode_functions.c ****   }
 349:/home/shum/qmk_firmware/keyboards/splitography/keymaps/beaklsi/common/keycode_functions.c ****   else { state->pressed ? register_shift(KC_SCLN) : double_tap(state->count, SHIFT, KC_SCLN); }
 350:/home/shum/qmk_firmware/keyboards/splitography/keymaps/beaklsi/common/keycode_functions.c ****   reset_tap_dance(state);
 351:/home/shum/qmk_firmware/keyboards/splitography/keymaps/beaklsi/common/keycode_functions.c **** }
 352:/home/shum/qmk_firmware/keyboards/splitography/keymaps/beaklsi/common/keycode_functions.c **** 
 353:/home/shum/qmk_firmware/keyboards/splitography/keymaps/beaklsi/common/keycode_functions.c **** void emoji_reset(qk_tap_dance_state_t *state, void *user_data)
 354:/home/shum/qmk_firmware/keyboards/splitography/keymaps/beaklsi/common/keycode_functions.c **** {
 355:/home/shum/qmk_firmware/keyboards/splitography/keymaps/beaklsi/common/keycode_functions.c ****   unregister_shift(KC_SCLN);
 356:/home/shum/qmk_firmware/keyboards/splitography/keymaps/beaklsi/common/keycode_functions.c **** }
 357:/home/shum/qmk_firmware/keyboards/splitography/keymaps/beaklsi/common/keycode_functions.c **** 
 358:/home/shum/qmk_firmware/keyboards/splitography/keymaps/beaklsi/common/keycode_functions.c **** #define IRC_ENTER _delay_ms(10); tap_key(KC_ENT);
 359:/home/shum/qmk_firmware/keyboards/splitography/keymaps/beaklsi/common/keycode_functions.c **** 
 360:/home/shum/qmk_firmware/keyboards/splitography/keymaps/beaklsi/common/keycode_functions.c **** void paste(qk_tap_dance_state_t *state, void *user_data)
 361:/home/shum/qmk_firmware/keyboards/splitography/keymaps/beaklsi/common/keycode_functions.c **** {
 362:/home/shum/qmk_firmware/keyboards/splitography/keymaps/beaklsi/common/keycode_functions.c ****   if (state->count > 1)    { tap_mod(KC_LCTL, KC_V); IRC_ENTER; }
 363:/home/shum/qmk_firmware/keyboards/splitography/keymaps/beaklsi/common/keycode_functions.c ****   else if (state->pressed) { register_code(KC_LCTL); register_code(KC_V); }
 364:/home/shum/qmk_firmware/keyboards/splitography/keymaps/beaklsi/common/keycode_functions.c ****   else                     { tap_mod(KC_LCTL, KC_V); }
 365:/home/shum/qmk_firmware/keyboards/splitography/keymaps/beaklsi/common/keycode_functions.c ****   reset_tap_dance(state);
 366:/home/shum/qmk_firmware/keyboards/splitography/keymaps/beaklsi/common/keycode_functions.c **** }
 367:/home/shum/qmk_firmware/keyboards/splitography/keymaps/beaklsi/common/keycode_functions.c **** 
 368:/home/shum/qmk_firmware/keyboards/splitography/keymaps/beaklsi/common/keycode_functions.c **** void paste_reset(qk_tap_dance_state_t *state, void *user_data)
 369:/home/shum/qmk_firmware/keyboards/splitography/keymaps/beaklsi/common/keycode_functions.c **** {
  16               		.loc 1 369 0
  17               		.cfi_startproc
  18               	.LVL0:
  19               	/* prologue: function */
  20               	/* frame size = 0 */
  21               	/* stack size = 0 */
  22               	.L__stack_usage = 0
 370:/home/shum/qmk_firmware/keyboards/splitography/keymaps/beaklsi/common/keycode_functions.c ****   unregister_code(KC_V);
  23               		.loc 1 370 0
  24 0000 89E1      		ldi r24,lo8(25)
  25               	.LVL1:
  26 0002 0E94 0000 		call unregister_code
  27               	.LVL2:
 371:/home/shum/qmk_firmware/keyboards/splitography/keymaps/beaklsi/common/keycode_functions.c ****   unregister_code(KC_LCTL);
  28               		.loc 1 371 0
  29 0006 80EE      		ldi r24,lo8(-32)
  30 0008 0C94 0000 		jmp unregister_code
  31               	.LVL3:
  32               		.cfi_endproc
  33               	.LFE144:
  35               		.section	.text.private,"ax",@progbits
  36               	.global	private
  38               	private:
  39               	.LFB149:
 372:/home/shum/qmk_firmware/keyboards/splitography/keymaps/beaklsi/common/keycode_functions.c **** }
 373:/home/shum/qmk_firmware/keyboards/splitography/keymaps/beaklsi/common/keycode_functions.c **** 
 374:/home/shum/qmk_firmware/keyboards/splitography/keymaps/beaklsi/common/keycode_functions.c **** void percent(qk_tap_dance_state_t *state, void *user_data)
 375:/home/shum/qmk_firmware/keyboards/splitography/keymaps/beaklsi/common/keycode_functions.c **** {
 376:/home/shum/qmk_firmware/keyboards/splitography/keymaps/beaklsi/common/keycode_functions.c ****   if ((state->count > 1) && state->pressed) { register_shift(KC_5); }
 377:/home/shum/qmk_firmware/keyboards/splitography/keymaps/beaklsi/common/keycode_functions.c ****   else                                      { state->pressed ? register_code(KC_LALT) : double_tap(
 378:/home/shum/qmk_firmware/keyboards/splitography/keymaps/beaklsi/common/keycode_functions.c ****   reset_tap_dance(state);
 379:/home/shum/qmk_firmware/keyboards/splitography/keymaps/beaklsi/common/keycode_functions.c **** }
 380:/home/shum/qmk_firmware/keyboards/splitography/keymaps/beaklsi/common/keycode_functions.c **** 
 381:/home/shum/qmk_firmware/keyboards/splitography/keymaps/beaklsi/common/keycode_functions.c **** void percent_reset(qk_tap_dance_state_t *state, void *user_data)
 382:/home/shum/qmk_firmware/keyboards/splitography/keymaps/beaklsi/common/keycode_functions.c **** {
 383:/home/shum/qmk_firmware/keyboards/splitography/keymaps/beaklsi/common/keycode_functions.c ****   unregister_shift(KC_5);
 384:/home/shum/qmk_firmware/keyboards/splitography/keymaps/beaklsi/common/keycode_functions.c ****   unregister_code (KC_LALT);
 385:/home/shum/qmk_firmware/keyboards/splitography/keymaps/beaklsi/common/keycode_functions.c **** }
 386:/home/shum/qmk_firmware/keyboards/splitography/keymaps/beaklsi/common/keycode_functions.c **** 
 387:/home/shum/qmk_firmware/keyboards/splitography/keymaps/beaklsi/common/keycode_functions.c **** #define CTL_SFT_V register_code(KC_LCTL); tap_shift(KC_V); unregister_code(KC_LCTL) 
 388:/home/shum/qmk_firmware/keyboards/splitography/keymaps/beaklsi/common/keycode_functions.c **** 
 389:/home/shum/qmk_firmware/keyboards/splitography/keymaps/beaklsi/common/keycode_functions.c **** void xpaste(qk_tap_dance_state_t *state, void *user_data)
 390:/home/shum/qmk_firmware/keyboards/splitography/keymaps/beaklsi/common/keycode_functions.c **** {
 391:/home/shum/qmk_firmware/keyboards/splitography/keymaps/beaklsi/common/keycode_functions.c ****   if (state->count > 1)    { CTL_SFT_V; IRC_ENTER; }
 392:/home/shum/qmk_firmware/keyboards/splitography/keymaps/beaklsi/common/keycode_functions.c ****   else if (state->pressed) { register_code(KC_LCTL); register_shift(KC_V); }
 393:/home/shum/qmk_firmware/keyboards/splitography/keymaps/beaklsi/common/keycode_functions.c ****   else                     { CTL_SFT_V; }
 394:/home/shum/qmk_firmware/keyboards/splitography/keymaps/beaklsi/common/keycode_functions.c ****   reset_tap_dance(state);
 395:/home/shum/qmk_firmware/keyboards/splitography/keymaps/beaklsi/common/keycode_functions.c **** }
 396:/home/shum/qmk_firmware/keyboards/splitography/keymaps/beaklsi/common/keycode_functions.c **** 
 397:/home/shum/qmk_firmware/keyboards/splitography/keymaps/beaklsi/common/keycode_functions.c **** void xpaste_reset(qk_tap_dance_state_t *state, void *user_data)
 398:/home/shum/qmk_firmware/keyboards/splitography/keymaps/beaklsi/common/keycode_functions.c **** {
 399:/home/shum/qmk_firmware/keyboards/splitography/keymaps/beaklsi/common/keycode_functions.c ****   unregister_shift(KC_V);
 400:/home/shum/qmk_firmware/keyboards/splitography/keymaps/beaklsi/common/keycode_functions.c ****   unregister_code (KC_LCTL);
 401:/home/shum/qmk_firmware/keyboards/splitography/keymaps/beaklsi/common/keycode_functions.c **** }
 402:/home/shum/qmk_firmware/keyboards/splitography/keymaps/beaklsi/common/keycode_functions.c **** 
 403:/home/shum/qmk_firmware/keyboards/splitography/keymaps/beaklsi/common/keycode_functions.c **** // compile time macro string, see functions/hardware planck script
 404:/home/shum/qmk_firmware/keyboards/splitography/keymaps/beaklsi/common/keycode_functions.c **** void private(qk_tap_dance_state_t *state, void *user_data)
 405:/home/shum/qmk_firmware/keyboards/splitography/keymaps/beaklsi/common/keycode_functions.c **** {
  40               		.loc 1 405 0
  41               		.cfi_startproc
  42               	.LVL4:
  43 0000 CF93      		push r28
  44               	.LCFI0:
  45               		.cfi_def_cfa_offset 3
  46               		.cfi_offset 28, -2
  47 0002 DF93      		push r29
  48               	.LCFI1:
  49               		.cfi_def_cfa_offset 4
  50               		.cfi_offset 29, -3
  51               	/* prologue: function */
  52               	/* frame size = 0 */
  53               	/* stack size = 2 */
  54               	.L__stack_usage = 2
  55 0004 EC01      		movw r28,r24
 406:/home/shum/qmk_firmware/keyboards/splitography/keymaps/beaklsi/common/keycode_functions.c **** #ifdef PRIVATE_STRING
 407:/home/shum/qmk_firmware/keyboards/splitography/keymaps/beaklsi/common/keycode_functions.c ****   if (state->count > 1) {
  56               		.loc 1 407 0
  57 0006 8881      		ld r24,Y
  58               	.LVL5:
  59 0008 8230      		cpi r24,lo8(2)
  60 000a 00F0      		brlo .L3
  61               		.file 2 "keyboards/splitography/keymaps/beaklsi/private_string.h"
   1:keyboards/splitography/keymaps/beaklsi/private_string.h **** SEND_STRING("the keys of enoch");
  62               		.loc 2 1 0
  63 000c 80E0      		ldi r24,lo8(__c.5954)
  64 000e 90E0      		ldi r25,hi8(__c.5954)
  65 0010 0E94 0000 		call send_string_P
  66               	.LVL6:
  67               	.L3:
 408:/home/shum/qmk_firmware/keyboards/splitography/keymaps/beaklsi/common/keycode_functions.c **** #include "private_string.h"
 409:/home/shum/qmk_firmware/keyboards/splitography/keymaps/beaklsi/common/keycode_functions.c ****   }
 410:/home/shum/qmk_firmware/keyboards/splitography/keymaps/beaklsi/common/keycode_functions.c **** #endif
 411:/home/shum/qmk_firmware/keyboards/splitography/keymaps/beaklsi/common/keycode_functions.c ****   reset_tap_dance(state);
  68               		.loc 1 411 0
  69 0014 CE01      		movw r24,r28
  70               	/* epilogue start */
 412:/home/shum/qmk_firmware/keyboards/splitography/keymaps/beaklsi/common/keycode_functions.c **** }
  71               		.loc 1 412 0
  72 0016 DF91      		pop r29
  73 0018 CF91      		pop r28
  74               	.LVL7:
 411:/home/shum/qmk_firmware/keyboards/splitography/keymaps/beaklsi/common/keycode_functions.c **** }
  75               		.loc 1 411 0
  76 001a 0C94 0000 		jmp reset_tap_dance
  77               	.LVL8:
  78               		.cfi_endproc
  79               	.LFE149:
  81               		.section	.text.send,"ax",@progbits
  82               	.global	send
  84               	send:
  85               	.LFB150:
 413:/home/shum/qmk_firmware/keyboards/splitography/keymaps/beaklsi/common/keycode_functions.c **** 
 414:/home/shum/qmk_firmware/keyboards/splitography/keymaps/beaklsi/common/keycode_functions.c **** // config.h defined string
 415:/home/shum/qmk_firmware/keyboards/splitography/keymaps/beaklsi/common/keycode_functions.c **** void send(qk_tap_dance_state_t *state, void *user_data)
 416:/home/shum/qmk_firmware/keyboards/splitography/keymaps/beaklsi/common/keycode_functions.c **** {
  86               		.loc 1 416 0
  87               		.cfi_startproc
  88               	.LVL9:
  89 0000 CF93      		push r28
  90               	.LCFI2:
  91               		.cfi_def_cfa_offset 3
  92               		.cfi_offset 28, -2
  93 0002 DF93      		push r29
  94               	.LCFI3:
  95               		.cfi_def_cfa_offset 4
  96               		.cfi_offset 29, -3
  97               	/* prologue: function */
  98               	/* frame size = 0 */
  99               	/* stack size = 2 */
 100               	.L__stack_usage = 2
 101 0004 EC01      		movw r28,r24
 417:/home/shum/qmk_firmware/keyboards/splitography/keymaps/beaklsi/common/keycode_functions.c ****   if (state->count > 1) { SEND_STRING(PUBLIC_STRING); }
 102               		.loc 1 417 0
 103 0006 8881      		ld r24,Y
 104               	.LVL10:
 105 0008 8230      		cpi r24,lo8(2)
 106 000a 00F0      		brlo .L5
 107               		.loc 1 417 0 is_stmt 0 discriminator 1
 108 000c 80E0      		ldi r24,lo8(__c.5960)
 109 000e 90E0      		ldi r25,hi8(__c.5960)
 110 0010 0E94 0000 		call send_string_P
 111               	.LVL11:
 112               	.L5:
 418:/home/shum/qmk_firmware/keyboards/splitography/keymaps/beaklsi/common/keycode_functions.c ****   reset_tap_dance(state);
 113               		.loc 1 418 0 is_stmt 1
 114 0014 CE01      		movw r24,r28
 115               	/* epilogue start */
 419:/home/shum/qmk_firmware/keyboards/splitography/keymaps/beaklsi/common/keycode_functions.c **** }
 116               		.loc 1 419 0
 117 0016 DF91      		pop r29
 118 0018 CF91      		pop r28
 119               	.LVL12:
 418:/home/shum/qmk_firmware/keyboards/splitography/keymaps/beaklsi/common/keycode_functions.c ****   reset_tap_dance(state);
 120               		.loc 1 418 0
 121 001a 0C94 0000 		jmp reset_tap_dance
 122               	.LVL13:
 123               		.cfi_endproc
 124               	.LFE150:
 126               		.section	.text.tap_mods,"ax",@progbits
 127               	.global	tap_mods
 129               	tap_mods:
 130               	.LFB110:
  17:/home/shum/qmk_firmware/keyboards/splitography/keymaps/beaklsi/common/keycode_functions.c ****   if (record->event.pressed) { mods |= MOD_BIT(keycode); }
 131               		.loc 1 17 0
 132               		.cfi_startproc
 133               	.LVL14:
 134               	/* prologue: function */
 135               	/* frame size = 0 */
 136               	/* stack size = 0 */
 137               	.L__stack_usage = 0
 138 0000 6770      		andi r22,7
 139 0002 7727      		clr r23
 140               	.LVL15:
 141 0004 21E0      		ldi r18,lo8(1)
 142 0006 30E0      		ldi r19,0
 143 0008 00C0      		rjmp 2f
 144               		1:
 145 000a 220F      		lsl r18
 146               		2:
 147 000c 6A95      		dec r22
 148 000e 02F4      		brpl 1b
 149 0010 4091 0000 		lds r20,mods
  18:/home/shum/qmk_firmware/keyboards/splitography/keymaps/beaklsi/common/keycode_functions.c ****   else                       { mods &= ~(MOD_BIT(keycode)); }
 150               		.loc 1 18 0
 151 0014 FC01      		movw r30,r24
 152 0016 8281      		ldd r24,Z+2
 153               	.LVL16:
 154 0018 8823      		tst r24
 155 001a 01F0      		breq .L7
  18:/home/shum/qmk_firmware/keyboards/splitography/keymaps/beaklsi/common/keycode_functions.c ****   else                       { mods &= ~(MOD_BIT(keycode)); }
 156               		.loc 1 18 0 is_stmt 0 discriminator 1
 157 001c 242B      		or r18,r20
 158               	.L9:
  19:/home/shum/qmk_firmware/keyboards/splitography/keymaps/beaklsi/common/keycode_functions.c **** }
 159               		.loc 1 19 0 is_stmt 1
 160 001e 2093 0000 		sts mods,r18
 161               	/* epilogue start */
  20:/home/shum/qmk_firmware/keyboards/splitography/keymaps/beaklsi/common/keycode_functions.c **** 
 162               		.loc 1 20 0
 163 0022 0895      		ret
 164               	.L7:
  19:/home/shum/qmk_firmware/keyboards/splitography/keymaps/beaklsi/common/keycode_functions.c **** }
 165               		.loc 1 19 0
 166 0024 2095      		com r18
 167 0026 2423      		and r18,r20
 168 0028 00C0      		rjmp .L9
 169               		.cfi_endproc
 170               	.LFE110:
 172               		.section	.text.modifier,"ax",@progbits
 173               	.global	modifier
 175               	modifier:
 176               	.LFB111:
  24:/home/shum/qmk_firmware/keyboards/splitography/keymaps/beaklsi/common/keycode_functions.c ****   if (mods & MOD_BIT(KC_LCTL)) { f(KC_LCTL); }
 177               		.loc 1 24 0
 178               		.cfi_startproc
 179               	.LVL17:
 180 0000 CF93      		push r28
 181               	.LCFI4:
 182               		.cfi_def_cfa_offset 3
 183               		.cfi_offset 28, -2
 184 0002 DF93      		push r29
 185               	.LCFI5:
 186               		.cfi_def_cfa_offset 4
 187               		.cfi_offset 29, -3
 188               	/* prologue: function */
 189               	/* frame size = 0 */
 190               	/* stack size = 2 */
 191               	.L__stack_usage = 2
 192 0004 EC01      		movw r28,r24
  25:/home/shum/qmk_firmware/keyboards/splitography/keymaps/beaklsi/common/keycode_functions.c ****   if (mods & MOD_BIT(KC_LGUI)) { f(KC_LGUI); }
 193               		.loc 1 25 0
 194 0006 8091 0000 		lds r24,mods
 195               	.LVL18:
 196 000a 80FF      		sbrs r24,0
 197 000c 00C0      		rjmp .L11
  25:/home/shum/qmk_firmware/keyboards/splitography/keymaps/beaklsi/common/keycode_functions.c ****   if (mods & MOD_BIT(KC_LGUI)) { f(KC_LGUI); }
 198               		.loc 1 25 0 is_stmt 0 discriminator 1
 199 000e 80EE      		ldi r24,lo8(-32)
 200 0010 FE01      		movw r30,r28
 201 0012 0995      		icall
 202               	.LVL19:
 203               	.L11:
  26:/home/shum/qmk_firmware/keyboards/splitography/keymaps/beaklsi/common/keycode_functions.c ****   if (mods & MOD_BIT(KC_LALT)) { f(KC_LALT); }
 204               		.loc 1 26 0 is_stmt 1
 205 0014 8091 0000 		lds r24,mods
 206 0018 83FF      		sbrs r24,3
 207 001a 00C0      		rjmp .L12
  26:/home/shum/qmk_firmware/keyboards/splitography/keymaps/beaklsi/common/keycode_functions.c ****   if (mods & MOD_BIT(KC_LALT)) { f(KC_LALT); }
 208               		.loc 1 26 0 is_stmt 0 discriminator 1
 209 001c 83EE      		ldi r24,lo8(-29)
 210 001e FE01      		movw r30,r28
 211 0020 0995      		icall
 212               	.LVL20:
 213               	.L12:
  27:/home/shum/qmk_firmware/keyboards/splitography/keymaps/beaklsi/common/keycode_functions.c ****   if (mods & MOD_BIT(KC_LSFT)) { f(KC_LSFT); }
 214               		.loc 1 27 0 is_stmt 1
 215 0022 8091 0000 		lds r24,mods
 216 0026 82FF      		sbrs r24,2
 217 0028 00C0      		rjmp .L13
  27:/home/shum/qmk_firmware/keyboards/splitography/keymaps/beaklsi/common/keycode_functions.c ****   if (mods & MOD_BIT(KC_LSFT)) { f(KC_LSFT); }
 218               		.loc 1 27 0 is_stmt 0 discriminator 1
 219 002a 82EE      		ldi r24,lo8(-30)
 220 002c FE01      		movw r30,r28
 221 002e 0995      		icall
 222               	.LVL21:
 223               	.L13:
  28:/home/shum/qmk_firmware/keyboards/splitography/keymaps/beaklsi/common/keycode_functions.c ****   if (mods & MOD_BIT(KC_RSFT)) { f(KC_RSFT); }  // note: qmk macros all use left modifiers
 224               		.loc 1 28 0 is_stmt 1
 225 0030 8091 0000 		lds r24,mods
 226 0034 81FF      		sbrs r24,1
 227 0036 00C0      		rjmp .L14
  28:/home/shum/qmk_firmware/keyboards/splitography/keymaps/beaklsi/common/keycode_functions.c ****   if (mods & MOD_BIT(KC_RSFT)) { f(KC_RSFT); }  // note: qmk macros all use left modifiers
 228               		.loc 1 28 0 is_stmt 0 discriminator 1
 229 0038 81EE      		ldi r24,lo8(-31)
 230 003a FE01      		movw r30,r28
 231 003c 0995      		icall
 232               	.LVL22:
 233               	.L14:
  29:/home/shum/qmk_firmware/keyboards/splitography/keymaps/beaklsi/common/keycode_functions.c **** }
 234               		.loc 1 29 0 is_stmt 1
 235 003e 8091 0000 		lds r24,mods
 236 0042 85FF      		sbrs r24,5
 237 0044 00C0      		rjmp .L10
  29:/home/shum/qmk_firmware/keyboards/splitography/keymaps/beaklsi/common/keycode_functions.c **** }
 238               		.loc 1 29 0 is_stmt 0 discriminator 1
 239 0046 85EE      		ldi r24,lo8(-27)
 240 0048 FE01      		movw r30,r28
 241               	/* epilogue start */
  30:/home/shum/qmk_firmware/keyboards/splitography/keymaps/beaklsi/common/keycode_functions.c **** 
 242               		.loc 1 30 0 is_stmt 1 discriminator 1
 243 004a DF91      		pop r29
 244 004c CF91      		pop r28
 245               	.LVL23:
  29:/home/shum/qmk_firmware/keyboards/splitography/keymaps/beaklsi/common/keycode_functions.c **** }
 246               		.loc 1 29 0 discriminator 1
 247 004e 0994      		ijmp
 248               	.LVL24:
 249               	.L10:
 250               	/* epilogue start */
  30:/home/shum/qmk_firmware/keyboards/splitography/keymaps/beaklsi/common/keycode_functions.c **** 
 251               		.loc 1 30 0
 252 0050 DF91      		pop r29
 253 0052 CF91      		pop r28
 254               	.LVL25:
 255 0054 0895      		ret
 256               		.cfi_endproc
 257               	.LFE111:
 259               		.section	.text.on_shift,"ax",@progbits
 260               	.global	on_shift
 262               	on_shift:
 263               	.LFB112:
  34:/home/shum/qmk_firmware/keyboards/splitography/keymaps/beaklsi/common/keycode_functions.c ****   // return (mods && ((mods & MOD_BIT(shift_key)) == mods) && (biton32(layer_state) == _BASE || bit
 264               		.loc 1 34 0
 265               		.cfi_startproc
 266               	.LVL26:
 267               	/* prologue: function */
 268               	/* frame size = 0 */
 269               	/* stack size = 0 */
 270               	.L__stack_usage = 0
  37:/home/shum/qmk_firmware/keyboards/splitography/keymaps/beaklsi/common/keycode_functions.c **** }
 271               		.loc 1 37 0
 272 0000 8770      		andi r24,7
 273 0002 9927      		clr r25
 274               	.LVL27:
 275 0004 21E0      		ldi r18,lo8(1)
 276 0006 30E0      		ldi r19,0
 277 0008 00C0      		rjmp 2f
 278               		1:
 279 000a 220F      		lsl r18
 280 000c 331F      		rol r19
 281               		2:
 282 000e 8A95      		dec r24
 283 0010 02F4      		brpl 1b
 284 0012 8091 0000 		lds r24,mods
 285 0016 90E0      		ldi r25,0
 286 0018 2823      		and r18,r24
 287 001a 3923      		and r19,r25
 288 001c 81E0      		ldi r24,lo8(1)
 289 001e 232B      		or r18,r19
 290 0020 01F4      		brne .L29
 291 0022 80E0      		ldi r24,0
 292               	.L29:
 293               	/* epilogue start */
  38:/home/shum/qmk_firmware/keyboards/splitography/keymaps/beaklsi/common/keycode_functions.c **** 
 294               		.loc 1 38 0
 295 0024 0895      		ret
 296               		.cfi_endproc
 297               	.LFE112:
 299               		.section	.text.register_shift,"ax",@progbits
 300               	.global	register_shift
 302               	register_shift:
 303               	.LFB114:
  59:/home/shum/qmk_firmware/keyboards/splitography/keymaps/beaklsi/common/keycode_functions.c ****   register_code(KC_LSFT);
 304               		.loc 1 59 0
 305               		.cfi_startproc
 306               	.LVL28:
 307 0000 CF93      		push r28
 308               	.LCFI6:
 309               		.cfi_def_cfa_offset 3
 310               		.cfi_offset 28, -2
 311               	/* prologue: function */
 312               	/* frame size = 0 */
 313               	/* stack size = 1 */
 314               	.L__stack_usage = 1
 315 0002 C82F      		mov r28,r24
  60:/home/shum/qmk_firmware/keyboards/splitography/keymaps/beaklsi/common/keycode_functions.c ****   register_code(keycode);
 316               		.loc 1 60 0
 317 0004 81EE      		ldi r24,lo8(-31)
 318               	.LVL29:
 319 0006 0E94 0000 		call register_code
 320               	.LVL30:
  61:/home/shum/qmk_firmware/keyboards/splitography/keymaps/beaklsi/common/keycode_functions.c **** }
 321               		.loc 1 61 0
 322 000a 8C2F      		mov r24,r28
 323               	/* epilogue start */
  62:/home/shum/qmk_firmware/keyboards/splitography/keymaps/beaklsi/common/keycode_functions.c **** 
 324               		.loc 1 62 0
 325 000c CF91      		pop r28
  61:/home/shum/qmk_firmware/keyboards/splitography/keymaps/beaklsi/common/keycode_functions.c **** }
 326               		.loc 1 61 0
 327 000e 0C94 0000 		jmp register_code
 328               	.LVL31:
 329               		.cfi_endproc
 330               	.LFE114:
 332               		.section	.text.unregister_shift,"ax",@progbits
 333               	.global	unregister_shift
 335               	unregister_shift:
 336               	.LFB115:
  66:/home/shum/qmk_firmware/keyboards/splitography/keymaps/beaklsi/common/keycode_functions.c ****   unregister_code(keycode);
 337               		.loc 1 66 0
 338               		.cfi_startproc
 339               	.LVL32:
 340               	/* prologue: function */
 341               	/* frame size = 0 */
 342               	/* stack size = 0 */
 343               	.L__stack_usage = 0
  67:/home/shum/qmk_firmware/keyboards/splitography/keymaps/beaklsi/common/keycode_functions.c ****   unregister_code(KC_LSFT);
 344               		.loc 1 67 0
 345 0000 0E94 0000 		call unregister_code
 346               	.LVL33:
  68:/home/shum/qmk_firmware/keyboards/splitography/keymaps/beaklsi/common/keycode_functions.c **** }
 347               		.loc 1 68 0
 348 0004 81EE      		ldi r24,lo8(-31)
 349 0006 0C94 0000 		jmp unregister_code
 350               	.LVL34:
 351               		.cfi_endproc
 352               	.LFE115:
 354               		.section	.text.colon_reset,"ax",@progbits
 355               	.global	colon_reset
 357               	colon_reset:
 358               	.LFB131:
 258:/home/shum/qmk_firmware/keyboards/splitography/keymaps/beaklsi/common/keycode_functions.c ****   unregister_shift(KC_SCLN);
 359               		.loc 1 258 0
 360               		.cfi_startproc
 361               	.LVL35:
 362               	/* prologue: function */
 363               	/* frame size = 0 */
 364               	/* stack size = 0 */
 365               	.L__stack_usage = 0
 259:/home/shum/qmk_firmware/keyboards/splitography/keymaps/beaklsi/common/keycode_functions.c **** }
 366               		.loc 1 259 0
 367 0000 83E3      		ldi r24,lo8(51)
 368 0002 90E0      		ldi r25,0
 369               	.LVL36:
 370 0004 0C94 0000 		jmp unregister_shift
 371               	.LVL37:
 372               		.cfi_endproc
 373               	.LFE131:
 375               		.section	.text.lesser_reset,"ax",@progbits
 376               	.global	lesser_reset
 378               	lesser_reset:
 379               	.LFB133:
 275:/home/shum/qmk_firmware/keyboards/splitography/keymaps/beaklsi/common/keycode_functions.c ****   unregister_shift(KC_COMM);
 380               		.loc 1 275 0
 381               		.cfi_startproc
 382               	.LVL38:
 383               	/* prologue: function */
 384               	/* frame size = 0 */
 385               	/* stack size = 0 */
 386               	.L__stack_usage = 0
 276:/home/shum/qmk_firmware/keyboards/splitography/keymaps/beaklsi/common/keycode_functions.c ****   unregister_code(KC_LCTL);
 387               		.loc 1 276 0
 388 0000 86E3      		ldi r24,lo8(54)
 389 0002 90E0      		ldi r25,0
 390               	.LVL39:
 391 0004 0E94 0000 		call unregister_shift
 392               	.LVL40:
 277:/home/shum/qmk_firmware/keyboards/splitography/keymaps/beaklsi/common/keycode_functions.c **** }
 393               		.loc 1 277 0
 394 0008 80EE      		ldi r24,lo8(-32)
 395 000a 0C94 0000 		jmp unregister_code
 396               	.LVL41:
 397               		.cfi_endproc
 398               	.LFE133:
 400               		.section	.text.greater_reset,"ax",@progbits
 401               	.global	greater_reset
 403               	greater_reset:
 404               	.LFB135:
 293:/home/shum/qmk_firmware/keyboards/splitography/keymaps/beaklsi/common/keycode_functions.c ****   unregister_shift(KC_DOT);
 405               		.loc 1 293 0
 406               		.cfi_startproc
 407               	.LVL42:
 408               	/* prologue: function */
 409               	/* frame size = 0 */
 410               	/* stack size = 0 */
 411               	.L__stack_usage = 0
 294:/home/shum/qmk_firmware/keyboards/splitography/keymaps/beaklsi/common/keycode_functions.c ****   unregister_code (KC_LSFT);
 412               		.loc 1 294 0
 413 0000 87E3      		ldi r24,lo8(55)
 414 0002 90E0      		ldi r25,0
 415               	.LVL43:
 416 0004 0E94 0000 		call unregister_shift
 417               	.LVL44:
 295:/home/shum/qmk_firmware/keyboards/splitography/keymaps/beaklsi/common/keycode_functions.c **** }
 418               		.loc 1 295 0
 419 0008 81EE      		ldi r24,lo8(-31)
 420 000a 0C94 0000 		jmp unregister_code
 421               	.LVL45:
 422               		.cfi_endproc
 423               	.LFE135:
 425               		.section	.text.tilde_reset,"ax",@progbits
 426               	.global	tilde_reset
 428               	tilde_reset:
 429               	.LFB137:
 314:/home/shum/qmk_firmware/keyboards/splitography/keymaps/beaklsi/common/keycode_functions.c ****   unregister_shift(KC_GRV);
 430               		.loc 1 314 0
 431               		.cfi_startproc
 432               	.LVL46:
 433               	/* prologue: function */
 434               	/* frame size = 0 */
 435               	/* stack size = 0 */
 436               	.L__stack_usage = 0
 315:/home/shum/qmk_firmware/keyboards/splitography/keymaps/beaklsi/common/keycode_functions.c ****   unregister_code (KC_DOT);
 437               		.loc 1 315 0
 438 0000 85E3      		ldi r24,lo8(53)
 439 0002 90E0      		ldi r25,0
 440               	.LVL47:
 441 0004 0E94 0000 		call unregister_shift
 442               	.LVL48:
 316:/home/shum/qmk_firmware/keyboards/splitography/keymaps/beaklsi/common/keycode_functions.c ****   if (on_shift(KC_RSFT)) { register_code(KC_LSFT); } // restore HOME_T, see process_record_user() T
 443               		.loc 1 316 0
 444 0008 87E3      		ldi r24,lo8(55)
 445 000a 0E94 0000 		call unregister_code
 446               	.LVL49:
 317:/home/shum/qmk_firmware/keyboards/splitography/keymaps/beaklsi/common/keycode_functions.c **** }
 447               		.loc 1 317 0
 448 000e 85EE      		ldi r24,lo8(-27)
 449 0010 90E0      		ldi r25,0
 450 0012 0E94 0000 		call on_shift
 451               	.LVL50:
 452 0016 8823      		tst r24
 453 0018 01F0      		breq .L35
 317:/home/shum/qmk_firmware/keyboards/splitography/keymaps/beaklsi/common/keycode_functions.c **** }
 454               		.loc 1 317 0 is_stmt 0 discriminator 1
 455 001a 81EE      		ldi r24,lo8(-31)
 456 001c 0C94 0000 		jmp register_code
 457               	.LVL51:
 458               	.L35:
 459               	/* epilogue start */
 318:/home/shum/qmk_firmware/keyboards/splitography/keymaps/beaklsi/common/keycode_functions.c **** 
 460               		.loc 1 318 0 is_stmt 1
 461 0020 0895      		ret
 462               		.cfi_endproc
 463               	.LFE137:
 465               		.section	.text.percent_reset,"ax",@progbits
 466               	.global	percent_reset
 468               	percent_reset:
 469               	.LFB146:
 382:/home/shum/qmk_firmware/keyboards/splitography/keymaps/beaklsi/common/keycode_functions.c ****   unregister_shift(KC_5);
 470               		.loc 1 382 0
 471               		.cfi_startproc
 472               	.LVL52:
 473               	/* prologue: function */
 474               	/* frame size = 0 */
 475               	/* stack size = 0 */
 476               	.L__stack_usage = 0
 383:/home/shum/qmk_firmware/keyboards/splitography/keymaps/beaklsi/common/keycode_functions.c ****   unregister_code (KC_LALT);
 477               		.loc 1 383 0
 478 0000 82E2      		ldi r24,lo8(34)
 479 0002 90E0      		ldi r25,0
 480               	.LVL53:
 481 0004 0E94 0000 		call unregister_shift
 482               	.LVL54:
 384:/home/shum/qmk_firmware/keyboards/splitography/keymaps/beaklsi/common/keycode_functions.c **** }
 483               		.loc 1 384 0
 484 0008 82EE      		ldi r24,lo8(-30)
 485 000a 0C94 0000 		jmp unregister_code
 486               	.LVL55:
 487               		.cfi_endproc
 488               	.LFE146:
 490               		.section	.text.xpaste_reset,"ax",@progbits
 491               	.global	xpaste_reset
 493               	xpaste_reset:
 494               	.LFB148:
 398:/home/shum/qmk_firmware/keyboards/splitography/keymaps/beaklsi/common/keycode_functions.c ****   unregister_shift(KC_V);
 495               		.loc 1 398 0
 496               		.cfi_startproc
 497               	.LVL56:
 498               	/* prologue: function */
 499               	/* frame size = 0 */
 500               	/* stack size = 0 */
 501               	.L__stack_usage = 0
 399:/home/shum/qmk_firmware/keyboards/splitography/keymaps/beaklsi/common/keycode_functions.c ****   unregister_code (KC_LCTL);
 502               		.loc 1 399 0
 503 0000 89E1      		ldi r24,lo8(25)
 504 0002 90E0      		ldi r25,0
 505               	.LVL57:
 506 0004 0E94 0000 		call unregister_shift
 507               	.LVL58:
 400:/home/shum/qmk_firmware/keyboards/splitography/keymaps/beaklsi/common/keycode_functions.c **** }
 508               		.loc 1 400 0
 509 0008 80EE      		ldi r24,lo8(-32)
 510 000a 0C94 0000 		jmp unregister_code
 511               	.LVL59:
 512               		.cfi_endproc
 513               	.LFE148:
 515               		.section	.text.emoji_reset,"ax",@progbits
 516               	.global	emoji_reset
 518               	emoji_reset:
 519               	.LFB162:
 520               		.cfi_startproc
 521               	/* prologue: function */
 522               	/* frame size = 0 */
 523               	/* stack size = 0 */
 524               	.L__stack_usage = 0
 525 0000 83E3      		ldi r24,lo8(51)
 526 0002 90E0      		ldi r25,0
 527 0004 0C94 0000 		jmp unregister_shift
 528               		.cfi_endproc
 529               	.LFE162:
 531               		.section	.text.tap_key,"ax",@progbits
 532               	.global	tap_key
 534               	tap_key:
 535               	.LFB116:
  73:/home/shum/qmk_firmware/keyboards/splitography/keymaps/beaklsi/common/keycode_functions.c ****   register_code  (keycode);
 536               		.loc 1 73 0
 537               		.cfi_startproc
 538               	.LVL60:
  73:/home/shum/qmk_firmware/keyboards/splitography/keymaps/beaklsi/common/keycode_functions.c ****   register_code  (keycode);
 539               		.loc 1 73 0
 540 0000 CF93      		push r28
 541               	.LCFI7:
 542               		.cfi_def_cfa_offset 3
 543               		.cfi_offset 28, -2
 544               	/* prologue: function */
 545               	/* frame size = 0 */
 546               	/* stack size = 1 */
 547               	.L__stack_usage = 1
 548 0002 C82F      		mov r28,r24
  74:/home/shum/qmk_firmware/keyboards/splitography/keymaps/beaklsi/common/keycode_functions.c ****   unregister_code(keycode);
 549               		.loc 1 74 0
 550 0004 0E94 0000 		call register_code
 551               	.LVL61:
  75:/home/shum/qmk_firmware/keyboards/splitography/keymaps/beaklsi/common/keycode_functions.c **** }
 552               		.loc 1 75 0
 553 0008 8C2F      		mov r24,r28
 554               	/* epilogue start */
  76:/home/shum/qmk_firmware/keyboards/splitography/keymaps/beaklsi/common/keycode_functions.c **** 
 555               		.loc 1 76 0
 556 000a CF91      		pop r28
  75:/home/shum/qmk_firmware/keyboards/splitography/keymaps/beaklsi/common/keycode_functions.c **** }
 557               		.loc 1 75 0
 558 000c 0C94 0000 		jmp unregister_code
 559               	.LVL62:
 560               		.cfi_endproc
 561               	.LFE116:
 563               		.section	.text.comma,"ax",@progbits
 564               	.global	comma
 566               	comma:
 567               	.LFB139:
 330:/home/shum/qmk_firmware/keyboards/splitography/keymaps/beaklsi/common/keycode_functions.c ****   tap_key(KC_COMM);
 568               		.loc 1 330 0
 569               		.cfi_startproc
 570               	.LVL63:
 571 0000 CF93      		push r28
 572               	.LCFI8:
 573               		.cfi_def_cfa_offset 3
 574               		.cfi_offset 28, -2
 575 0002 DF93      		push r29
 576               	.LCFI9:
 577               		.cfi_def_cfa_offset 4
 578               		.cfi_offset 29, -3
 579               	/* prologue: function */
 580               	/* frame size = 0 */
 581               	/* stack size = 2 */
 582               	.L__stack_usage = 2
 583 0004 EC01      		movw r28,r24
 331:/home/shum/qmk_firmware/keyboards/splitography/keymaps/beaklsi/common/keycode_functions.c ****   if (state->count > 1) { tap_key(KC_SPC); }
 584               		.loc 1 331 0
 585 0006 86E3      		ldi r24,lo8(54)
 586 0008 90E0      		ldi r25,0
 587               	.LVL64:
 588 000a 0E94 0000 		call tap_key
 589               	.LVL65:
 332:/home/shum/qmk_firmware/keyboards/splitography/keymaps/beaklsi/common/keycode_functions.c ****   reset_tap_dance(state);
 590               		.loc 1 332 0
 591 000e 8881      		ld r24,Y
 592 0010 8230      		cpi r24,lo8(2)
 593 0012 00F0      		brlo .L42
 332:/home/shum/qmk_firmware/keyboards/splitography/keymaps/beaklsi/common/keycode_functions.c ****   reset_tap_dance(state);
 594               		.loc 1 332 0 is_stmt 0 discriminator 1
 595 0014 8CE2      		ldi r24,lo8(44)
 596 0016 90E0      		ldi r25,0
 597 0018 0E94 0000 		call tap_key
 598               	.LVL66:
 599               	.L42:
 333:/home/shum/qmk_firmware/keyboards/splitography/keymaps/beaklsi/common/keycode_functions.c **** }
 600               		.loc 1 333 0 is_stmt 1
 601 001c CE01      		movw r24,r28
 602               	/* epilogue start */
 334:/home/shum/qmk_firmware/keyboards/splitography/keymaps/beaklsi/common/keycode_functions.c **** 
 603               		.loc 1 334 0
 604 001e DF91      		pop r29
 605 0020 CF91      		pop r28
 606               	.LVL67:
 333:/home/shum/qmk_firmware/keyboards/splitography/keymaps/beaklsi/common/keycode_functions.c **** }
 607               		.loc 1 333 0
 608 0022 0C94 0000 		jmp reset_tap_dance
 609               	.LVL68:
 610               		.cfi_endproc
 611               	.LFE139:
 613               		.section	.text.tap_shift,"ax",@progbits
 614               	.global	tap_shift
 616               	tap_shift:
 617               	.LFB117:
  79:/home/shum/qmk_firmware/keyboards/splitography/keymaps/beaklsi/common/keycode_functions.c ****   register_code  (KC_LSFT);
 618               		.loc 1 79 0
 619               		.cfi_startproc
 620               	.LVL69:
 621 0000 CF93      		push r28
 622               	.LCFI10:
 623               		.cfi_def_cfa_offset 3
 624               		.cfi_offset 28, -2
 625 0002 DF93      		push r29
 626               	.LCFI11:
 627               		.cfi_def_cfa_offset 4
 628               		.cfi_offset 29, -3
 629               	/* prologue: function */
 630               	/* frame size = 0 */
 631               	/* stack size = 2 */
 632               	.L__stack_usage = 2
 633 0004 EC01      		movw r28,r24
  80:/home/shum/qmk_firmware/keyboards/splitography/keymaps/beaklsi/common/keycode_functions.c ****   tap_key        (keycode);
 634               		.loc 1 80 0
 635 0006 81EE      		ldi r24,lo8(-31)
 636               	.LVL70:
 637 0008 0E94 0000 		call register_code
 638               	.LVL71:
  81:/home/shum/qmk_firmware/keyboards/splitography/keymaps/beaklsi/common/keycode_functions.c ****   unregister_code(KC_LSFT);
 639               		.loc 1 81 0
 640 000c CE01      		movw r24,r28
 641 000e 0E94 0000 		call tap_key
 642               	.LVL72:
  82:/home/shum/qmk_firmware/keyboards/splitography/keymaps/beaklsi/common/keycode_functions.c **** }
 643               		.loc 1 82 0
 644 0012 81EE      		ldi r24,lo8(-31)
 645               	/* epilogue start */
  83:/home/shum/qmk_firmware/keyboards/splitography/keymaps/beaklsi/common/keycode_functions.c **** 
 646               		.loc 1 83 0
 647 0014 DF91      		pop r29
 648 0016 CF91      		pop r28
 649               	.LVL73:
  82:/home/shum/qmk_firmware/keyboards/splitography/keymaps/beaklsi/common/keycode_functions.c **** }
 650               		.loc 1 82 0
 651 0018 0C94 0000 		jmp unregister_code
 652               	.LVL74:
 653               		.cfi_endproc
 654               	.LFE117:
 656               		.section	.rodata.tilde.str1.1,"aMS",@progbits,1
 657               	.LC0:
 658 0000 7E2F 00   		.string	"~/"
 659               		.section	.text.tilde,"ax",@progbits
 660               	.global	tilde
 662               	tilde:
 663               	.LFB136:
 300:/home/shum/qmk_firmware/keyboards/splitography/keymaps/beaklsi/common/keycode_functions.c ****   if (on_shift(KC_RSFT)) {                  // dot, shift -> tilde, see process_record_user() TD_TI
 664               		.loc 1 300 0
 665               		.cfi_startproc
 666               	.LVL75:
 667 0000 CF93      		push r28
 668               	.LCFI12:
 669               		.cfi_def_cfa_offset 3
 670               		.cfi_offset 28, -2
 671 0002 DF93      		push r29
 672               	.LCFI13:
 673               		.cfi_def_cfa_offset 4
 674               		.cfi_offset 29, -3
 675               	/* prologue: function */
 676               	/* frame size = 0 */
 677               	/* stack size = 2 */
 678               	.L__stack_usage = 2
 679 0004 EC01      		movw r28,r24
 301:/home/shum/qmk_firmware/keyboards/splitography/keymaps/beaklsi/common/keycode_functions.c ****     if (state->count > 1) {
 680               		.loc 1 301 0
 681 0006 85EE      		ldi r24,lo8(-27)
 682 0008 90E0      		ldi r25,0
 683               	.LVL76:
 684 000a 0E94 0000 		call on_shift
 685               	.LVL77:
 686 000e 9F81      		ldd r25,Y+7
 687 0010 8823      		tst r24
 688 0012 01F0      		breq .L45
 302:/home/shum/qmk_firmware/keyboards/splitography/keymaps/beaklsi/common/keycode_functions.c ****       if (state->pressed)                     { register_shift(KC_GRV); }
 689               		.loc 1 302 0
 690 0014 8881      		ld r24,Y
 691 0016 8230      		cpi r24,lo8(2)
 692 0018 00F0      		brlo .L46
 303:/home/shum/qmk_firmware/keyboards/splitography/keymaps/beaklsi/common/keycode_functions.c ****       else if (state->count == 2)             { send_string("~/"); } 
 693               		.loc 1 303 0
 694 001a 9923      		tst r25
 695 001c 01F0      		breq .L47
 696               	.L52:
 303:/home/shum/qmk_firmware/keyboards/splitography/keymaps/beaklsi/common/keycode_functions.c ****       else if (state->count == 2)             { send_string("~/"); } 
 697               		.loc 1 303 0 is_stmt 0 discriminator 1
 698 001e 85E3      		ldi r24,lo8(53)
 699 0020 90E0      		ldi r25,0
 700 0022 0E94 0000 		call register_shift
 701               	.LVL78:
 702               	.L48:
 310:/home/shum/qmk_firmware/keyboards/splitography/keymaps/beaklsi/common/keycode_functions.c **** }
 703               		.loc 1 310 0 is_stmt 1
 704 0026 CE01      		movw r24,r28
 705               	/* epilogue start */
 311:/home/shum/qmk_firmware/keyboards/splitography/keymaps/beaklsi/common/keycode_functions.c **** 
 706               		.loc 1 311 0
 707 0028 DF91      		pop r29
 708 002a CF91      		pop r28
 709               	.LVL79:
 310:/home/shum/qmk_firmware/keyboards/splitography/keymaps/beaklsi/common/keycode_functions.c **** }
 710               		.loc 1 310 0
 711 002c 0C94 0000 		jmp reset_tap_dance
 712               	.LVL80:
 713               	.L47:
 304:/home/shum/qmk_firmware/keyboards/splitography/keymaps/beaklsi/common/keycode_functions.c ****       else for (i = 0; i < state->count; i++) { tap_shift(KC_GRV); }
 714               		.loc 1 304 0
 715 0030 8230      		cpi r24,lo8(2)
 716 0032 01F4      		brne .L49
 304:/home/shum/qmk_firmware/keyboards/splitography/keymaps/beaklsi/common/keycode_functions.c ****       else for (i = 0; i < state->count; i++) { tap_shift(KC_GRV); }
 717               		.loc 1 304 0 is_stmt 0 discriminator 1
 718 0034 80E0      		ldi r24,lo8(.LC0)
 719 0036 90E0      		ldi r25,hi8(.LC0)
 720 0038 0E94 0000 		call send_string
 721               	.LVL81:
 722 003c 00C0      		rjmp .L48
 723               	.L49:
 305:/home/shum/qmk_firmware/keyboards/splitography/keymaps/beaklsi/common/keycode_functions.c ****     }
 724               		.loc 1 305 0 is_stmt 1
 725 003e 1092 0000 		sts i,__zero_reg__
 726               	.L50:
 305:/home/shum/qmk_firmware/keyboards/splitography/keymaps/beaklsi/common/keycode_functions.c ****     }
 727               		.loc 1 305 0 is_stmt 0 discriminator 1
 728 0042 9881      		ld r25,Y
 729 0044 8091 0000 		lds r24,i
 730 0048 8917      		cp r24,r25
 731 004a 00F4      		brsh .L48
 305:/home/shum/qmk_firmware/keyboards/splitography/keymaps/beaklsi/common/keycode_functions.c ****     }
 732               		.loc 1 305 0 discriminator 3
 733 004c 85E3      		ldi r24,lo8(53)
 734 004e 90E0      		ldi r25,0
 735 0050 0E94 0000 		call tap_shift
 736               	.LVL82:
 737 0054 8091 0000 		lds r24,i
 738 0058 8F5F      		subi r24,lo8(-(1))
 739 005a 8093 0000 		sts i,r24
 740 005e 00C0      		rjmp .L50
 741               	.L46:
 307:/home/shum/qmk_firmware/keyboards/splitography/keymaps/beaklsi/common/keycode_functions.c ****   }
 742               		.loc 1 307 0 is_stmt 1
 743 0060 9111      		cpse r25,__zero_reg__
 744 0062 00C0      		rjmp .L52
 307:/home/shum/qmk_firmware/keyboards/splitography/keymaps/beaklsi/common/keycode_functions.c ****   }
 745               		.loc 1 307 0 is_stmt 0 discriminator 2
 746 0064 85E3      		ldi r24,lo8(53)
 747 0066 90E0      		ldi r25,0
 748 0068 0E94 0000 		call tap_shift
 749               	.LVL83:
 750 006c 00C0      		rjmp .L48
 751               	.L45:
 309:/home/shum/qmk_firmware/keyboards/splitography/keymaps/beaklsi/common/keycode_functions.c ****   reset_tap_dance(state);
 752               		.loc 1 309 0 is_stmt 1
 753 006e 9923      		tst r25
 754 0070 01F0      		breq .L53
 309:/home/shum/qmk_firmware/keyboards/splitography/keymaps/beaklsi/common/keycode_functions.c ****   reset_tap_dance(state);
 755               		.loc 1 309 0 is_stmt 0 discriminator 1
 756 0072 87E3      		ldi r24,lo8(55)
 757 0074 0E94 0000 		call register_code
 758               	.LVL84:
 759 0078 00C0      		rjmp .L48
 760               	.L53:
 309:/home/shum/qmk_firmware/keyboards/splitography/keymaps/beaklsi/common/keycode_functions.c ****   reset_tap_dance(state);
 761               		.loc 1 309 0 discriminator 2
 762 007a 87E3      		ldi r24,lo8(55)
 763 007c 90E0      		ldi r25,0
 764 007e 0E94 0000 		call tap_key
 765               	.LVL85:
 766 0082 00C0      		rjmp .L48
 767               		.cfi_endproc
 768               	.LFE136:
 770               		.section	.text.asterisk,"ax",@progbits
 771               	.global	asterisk
 773               	asterisk:
 774               	.LFB138:
 323:/home/shum/qmk_firmware/keyboards/splitography/keymaps/beaklsi/common/keycode_functions.c ****   if (state->count > 1) { tap_key(KC_DOT); }
 775               		.loc 1 323 0 is_stmt 1
 776               		.cfi_startproc
 777               	.LVL86:
 778 0000 CF93      		push r28
 779               	.LCFI14:
 780               		.cfi_def_cfa_offset 3
 781               		.cfi_offset 28, -2
 782 0002 DF93      		push r29
 783               	.LCFI15:
 784               		.cfi_def_cfa_offset 4
 785               		.cfi_offset 29, -3
 786               	/* prologue: function */
 787               	/* frame size = 0 */
 788               	/* stack size = 2 */
 789               	.L__stack_usage = 2
 790 0004 EC01      		movw r28,r24
 324:/home/shum/qmk_firmware/keyboards/splitography/keymaps/beaklsi/common/keycode_functions.c ****   tap_shift(KC_8);
 791               		.loc 1 324 0
 792 0006 8881      		ld r24,Y
 793               	.LVL87:
 794 0008 8230      		cpi r24,lo8(2)
 795 000a 00F0      		brlo .L55
 324:/home/shum/qmk_firmware/keyboards/splitography/keymaps/beaklsi/common/keycode_functions.c ****   tap_shift(KC_8);
 796               		.loc 1 324 0 is_stmt 0 discriminator 1
 797 000c 87E3      		ldi r24,lo8(55)
 798 000e 90E0      		ldi r25,0
 799 0010 0E94 0000 		call tap_key
 800               	.LVL88:
 801               	.L55:
 325:/home/shum/qmk_firmware/keyboards/splitography/keymaps/beaklsi/common/keycode_functions.c ****   reset_tap_dance(state);
 802               		.loc 1 325 0 is_stmt 1
 803 0014 85E2      		ldi r24,lo8(37)
 804 0016 90E0      		ldi r25,0
 805 0018 0E94 0000 		call tap_shift
 806               	.LVL89:
 326:/home/shum/qmk_firmware/keyboards/splitography/keymaps/beaklsi/common/keycode_functions.c **** }
 807               		.loc 1 326 0
 808 001c CE01      		movw r24,r28
 809               	/* epilogue start */
 327:/home/shum/qmk_firmware/keyboards/splitography/keymaps/beaklsi/common/keycode_functions.c **** 
 810               		.loc 1 327 0
 811 001e DF91      		pop r29
 812 0020 CF91      		pop r28
 813               	.LVL90:
 326:/home/shum/qmk_firmware/keyboards/splitography/keymaps/beaklsi/common/keycode_functions.c **** }
 814               		.loc 1 326 0
 815 0022 0C94 0000 		jmp reset_tap_dance
 816               	.LVL91:
 817               		.cfi_endproc
 818               	.LFE138:
 820               		.section	.text.dot,"ax",@progbits
 821               	.global	dot
 823               	dot:
 824               	.LFB140:
 337:/home/shum/qmk_firmware/keyboards/splitography/keymaps/beaklsi/common/keycode_functions.c ****   state->count > 1 ? tap_shift(KC_COLN) : tap_key(KC_DOT);
 825               		.loc 1 337 0
 826               		.cfi_startproc
 827               	.LVL92:
 828 0000 CF93      		push r28
 829               	.LCFI16:
 830               		.cfi_def_cfa_offset 3
 831               		.cfi_offset 28, -2
 832 0002 DF93      		push r29
 833               	.LCFI17:
 834               		.cfi_def_cfa_offset 4
 835               		.cfi_offset 29, -3
 836               	/* prologue: function */
 837               	/* frame size = 0 */
 838               	/* stack size = 2 */
 839               	.L__stack_usage = 2
 840 0004 EC01      		movw r28,r24
 338:/home/shum/qmk_firmware/keyboards/splitography/keymaps/beaklsi/common/keycode_functions.c ****   reset_tap_dance(state);
 841               		.loc 1 338 0
 842 0006 8881      		ld r24,Y
 843               	.LVL93:
 844 0008 8230      		cpi r24,lo8(2)
 845 000a 00F0      		brlo .L57
 338:/home/shum/qmk_firmware/keyboards/splitography/keymaps/beaklsi/common/keycode_functions.c ****   reset_tap_dance(state);
 846               		.loc 1 338 0 is_stmt 0 discriminator 1
 847 000c 83E3      		ldi r24,lo8(51)
 848 000e 92E0      		ldi r25,lo8(2)
 849 0010 0E94 0000 		call tap_shift
 850               	.LVL94:
 851               	.L58:
 339:/home/shum/qmk_firmware/keyboards/splitography/keymaps/beaklsi/common/keycode_functions.c **** }
 852               		.loc 1 339 0 is_stmt 1
 853 0014 CE01      		movw r24,r28
 854               	/* epilogue start */
 340:/home/shum/qmk_firmware/keyboards/splitography/keymaps/beaklsi/common/keycode_functions.c **** 
 855               		.loc 1 340 0
 856 0016 DF91      		pop r29
 857 0018 CF91      		pop r28
 858               	.LVL95:
 339:/home/shum/qmk_firmware/keyboards/splitography/keymaps/beaklsi/common/keycode_functions.c **** }
 859               		.loc 1 339 0
 860 001a 0C94 0000 		jmp reset_tap_dance
 861               	.LVL96:
 862               	.L57:
 338:/home/shum/qmk_firmware/keyboards/splitography/keymaps/beaklsi/common/keycode_functions.c ****   reset_tap_dance(state);
 863               		.loc 1 338 0 discriminator 2
 864 001e 87E3      		ldi r24,lo8(55)
 865 0020 90E0      		ldi r25,0
 866 0022 0E94 0000 		call tap_key
 867               	.LVL97:
 868 0026 00C0      		rjmp .L58
 869               		.cfi_endproc
 870               	.LFE140:
 872               		.section	.text.xpaste,"ax",@progbits
 873               	.global	xpaste
 875               	xpaste:
 876               	.LFB147:
 390:/home/shum/qmk_firmware/keyboards/splitography/keymaps/beaklsi/common/keycode_functions.c ****   if (state->count > 1)    { CTL_SFT_V; IRC_ENTER; }
 877               		.loc 1 390 0
 878               		.cfi_startproc
 879               	.LVL98:
 880 0000 CF93      		push r28
 881               	.LCFI18:
 882               		.cfi_def_cfa_offset 3
 883               		.cfi_offset 28, -2
 884 0002 DF93      		push r29
 885               	.LCFI19:
 886               		.cfi_def_cfa_offset 4
 887               		.cfi_offset 29, -3
 888               	/* prologue: function */
 889               	/* frame size = 0 */
 890               	/* stack size = 2 */
 891               	.L__stack_usage = 2
 892 0004 EC01      		movw r28,r24
 391:/home/shum/qmk_firmware/keyboards/splitography/keymaps/beaklsi/common/keycode_functions.c ****   else if (state->pressed) { register_code(KC_LCTL); register_shift(KC_V); }
 893               		.loc 1 391 0
 894 0006 8881      		ld r24,Y
 895               	.LVL99:
 896 0008 8230      		cpi r24,lo8(2)
 897 000a 00F0      		brlo .L60
 391:/home/shum/qmk_firmware/keyboards/splitography/keymaps/beaklsi/common/keycode_functions.c ****   else if (state->pressed) { register_code(KC_LCTL); register_shift(KC_V); }
 898               		.loc 1 391 0 is_stmt 0 discriminator 1
 899 000c 80EE      		ldi r24,lo8(-32)
 900 000e 0E94 0000 		call register_code
 901               	.LVL100:
 902 0012 89E1      		ldi r24,lo8(25)
 903 0014 90E0      		ldi r25,0
 904 0016 0E94 0000 		call tap_shift
 905               	.LVL101:
 906 001a 80EE      		ldi r24,lo8(-32)
 907 001c 0E94 0000 		call unregister_code
 908               	.LVL102:
 909               	.LBB6:
 910               	.LBB7:
 911               		.file 3 "/usr/avr/include/util/delay.h"
   1:/usr/avr/include/util/delay.h **** /* Copyright (c) 2002, Marek Michalkiewicz
   2:/usr/avr/include/util/delay.h ****    Copyright (c) 2004,2005,2007 Joerg Wunsch
   3:/usr/avr/include/util/delay.h ****    Copyright (c) 2007  Florin-Viorel Petrov
   4:/usr/avr/include/util/delay.h ****    All rights reserved.
   5:/usr/avr/include/util/delay.h **** 
   6:/usr/avr/include/util/delay.h ****    Redistribution and use in source and binary forms, with or without
   7:/usr/avr/include/util/delay.h ****    modification, are permitted provided that the following conditions are met:
   8:/usr/avr/include/util/delay.h **** 
   9:/usr/avr/include/util/delay.h ****    * Redistributions of source code must retain the above copyright
  10:/usr/avr/include/util/delay.h ****      notice, this list of conditions and the following disclaimer.
  11:/usr/avr/include/util/delay.h **** 
  12:/usr/avr/include/util/delay.h ****    * Redistributions in binary form must reproduce the above copyright
  13:/usr/avr/include/util/delay.h ****      notice, this list of conditions and the following disclaimer in
  14:/usr/avr/include/util/delay.h ****      the documentation and/or other materials provided with the
  15:/usr/avr/include/util/delay.h ****      distribution.
  16:/usr/avr/include/util/delay.h **** 
  17:/usr/avr/include/util/delay.h ****    * Neither the name of the copyright holders nor the names of
  18:/usr/avr/include/util/delay.h ****      contributors may be used to endorse or promote products derived
  19:/usr/avr/include/util/delay.h ****      from this software without specific prior written permission.
  20:/usr/avr/include/util/delay.h **** 
  21:/usr/avr/include/util/delay.h ****   THIS SOFTWARE IS PROVIDED BY THE COPYRIGHT HOLDERS AND CONTRIBUTORS "AS IS"
  22:/usr/avr/include/util/delay.h ****   AND ANY EXPRESS OR IMPLIED WARRANTIES, INCLUDING, BUT NOT LIMITED TO, THE
  23:/usr/avr/include/util/delay.h ****   IMPLIED WARRANTIES OF MERCHANTABILITY AND FITNESS FOR A PARTICULAR PURPOSE
  24:/usr/avr/include/util/delay.h ****   ARE DISCLAIMED. IN NO EVENT SHALL THE COPYRIGHT OWNER OR CONTRIBUTORS BE
  25:/usr/avr/include/util/delay.h ****   LIABLE FOR ANY DIRECT, INDIRECT, INCIDENTAL, SPECIAL, EXEMPLARY, OR
  26:/usr/avr/include/util/delay.h ****   CONSEQUENTIAL DAMAGES (INCLUDING, BUT NOT LIMITED TO, PROCUREMENT OF
  27:/usr/avr/include/util/delay.h ****   SUBSTITUTE GOODS OR SERVICES; LOSS OF USE, DATA, OR PROFITS; OR BUSINESS
  28:/usr/avr/include/util/delay.h ****   INTERRUPTION) HOWEVER CAUSED AND ON ANY THEORY OF LIABILITY, WHETHER IN
  29:/usr/avr/include/util/delay.h ****   CONTRACT, STRICT LIABILITY, OR TORT (INCLUDING NEGLIGENCE OR OTHERWISE)
  30:/usr/avr/include/util/delay.h ****   ARISING IN ANY WAY OUT OF THE USE OF THIS SOFTWARE, EVEN IF ADVISED OF THE
  31:/usr/avr/include/util/delay.h ****   POSSIBILITY OF SUCH DAMAGE. */
  32:/usr/avr/include/util/delay.h **** 
  33:/usr/avr/include/util/delay.h **** /* $Id: delay.h.in 2506 2016-02-08 10:05:45Z joerg_wunsch $ */
  34:/usr/avr/include/util/delay.h **** 
  35:/usr/avr/include/util/delay.h **** #ifndef _UTIL_DELAY_H_
  36:/usr/avr/include/util/delay.h **** #define _UTIL_DELAY_H_ 1
  37:/usr/avr/include/util/delay.h **** 
  38:/usr/avr/include/util/delay.h **** #ifndef __DOXYGEN__
  39:/usr/avr/include/util/delay.h **** #  ifndef __HAS_DELAY_CYCLES
  40:/usr/avr/include/util/delay.h **** #    define __HAS_DELAY_CYCLES 1
  41:/usr/avr/include/util/delay.h **** #  endif
  42:/usr/avr/include/util/delay.h **** #endif  /* __DOXYGEN__ */
  43:/usr/avr/include/util/delay.h **** 
  44:/usr/avr/include/util/delay.h **** #include <inttypes.h>
  45:/usr/avr/include/util/delay.h **** #include <util/delay_basic.h>
  46:/usr/avr/include/util/delay.h **** #include <math.h>
  47:/usr/avr/include/util/delay.h **** 
  48:/usr/avr/include/util/delay.h **** /** \file */
  49:/usr/avr/include/util/delay.h **** /** \defgroup util_delay <util/delay.h>: Convenience functions for busy-wait delay loops
  50:/usr/avr/include/util/delay.h ****     \code
  51:/usr/avr/include/util/delay.h ****     #define F_CPU 1000000UL  // 1 MHz
  52:/usr/avr/include/util/delay.h ****     //#define F_CPU 14.7456E6
  53:/usr/avr/include/util/delay.h ****     #include <util/delay.h>
  54:/usr/avr/include/util/delay.h ****     \endcode
  55:/usr/avr/include/util/delay.h **** 
  56:/usr/avr/include/util/delay.h ****     \note As an alternative method, it is possible to pass the
  57:/usr/avr/include/util/delay.h ****     F_CPU macro down to the compiler from the Makefile.
  58:/usr/avr/include/util/delay.h ****     Obviously, in that case, no \c \#define statement should be
  59:/usr/avr/include/util/delay.h ****     used.
  60:/usr/avr/include/util/delay.h **** 
  61:/usr/avr/include/util/delay.h ****     The functions in this header file are wrappers around the basic
  62:/usr/avr/include/util/delay.h ****     busy-wait functions from <util/delay_basic.h>.  They are meant as
  63:/usr/avr/include/util/delay.h ****     convenience functions where actual time values can be specified
  64:/usr/avr/include/util/delay.h ****     rather than a number of cycles to wait for.  The idea behind is
  65:/usr/avr/include/util/delay.h ****     that compile-time constant expressions will be eliminated by
  66:/usr/avr/include/util/delay.h ****     compiler optimization so floating-point expressions can be used
  67:/usr/avr/include/util/delay.h ****     to calculate the number of delay cycles needed based on the CPU
  68:/usr/avr/include/util/delay.h ****     frequency passed by the macro F_CPU.
  69:/usr/avr/include/util/delay.h **** 
  70:/usr/avr/include/util/delay.h ****     \note In order for these functions to work as intended, compiler
  71:/usr/avr/include/util/delay.h ****     optimizations <em>must</em> be enabled, and the delay time
  72:/usr/avr/include/util/delay.h ****     <em>must</em> be an expression that is a known constant at
  73:/usr/avr/include/util/delay.h ****     compile-time.  If these requirements are not met, the resulting
  74:/usr/avr/include/util/delay.h ****     delay will be much longer (and basically unpredictable), and
  75:/usr/avr/include/util/delay.h ****     applications that otherwise do not use floating-point calculations
  76:/usr/avr/include/util/delay.h ****     will experience severe code bloat by the floating-point library
  77:/usr/avr/include/util/delay.h ****     routines linked into the application.
  78:/usr/avr/include/util/delay.h **** 
  79:/usr/avr/include/util/delay.h ****     The functions available allow the specification of microsecond, and
  80:/usr/avr/include/util/delay.h ****     millisecond delays directly, using the application-supplied macro
  81:/usr/avr/include/util/delay.h ****     F_CPU as the CPU clock frequency (in Hertz).
  82:/usr/avr/include/util/delay.h **** 
  83:/usr/avr/include/util/delay.h **** */
  84:/usr/avr/include/util/delay.h **** 
  85:/usr/avr/include/util/delay.h **** #if !defined(__DOXYGEN__)
  86:/usr/avr/include/util/delay.h **** static __inline__ void _delay_us(double __us) __attribute__((__always_inline__));
  87:/usr/avr/include/util/delay.h **** static __inline__ void _delay_ms(double __ms) __attribute__((__always_inline__));
  88:/usr/avr/include/util/delay.h **** #endif
  89:/usr/avr/include/util/delay.h **** 
  90:/usr/avr/include/util/delay.h **** #ifndef F_CPU
  91:/usr/avr/include/util/delay.h **** /* prevent compiler error by supplying a default */
  92:/usr/avr/include/util/delay.h **** # warning "F_CPU not defined for <util/delay.h>"
  93:/usr/avr/include/util/delay.h **** /** \ingroup util_delay
  94:/usr/avr/include/util/delay.h ****     \def F_CPU
  95:/usr/avr/include/util/delay.h ****     \brief CPU frequency in Hz
  96:/usr/avr/include/util/delay.h **** 
  97:/usr/avr/include/util/delay.h ****     The macro F_CPU specifies the CPU frequency to be considered by
  98:/usr/avr/include/util/delay.h ****     the delay macros.  This macro is normally supplied by the
  99:/usr/avr/include/util/delay.h ****     environment (e.g. from within a project header, or the project's
 100:/usr/avr/include/util/delay.h ****     Makefile).  The value 1 MHz here is only provided as a "vanilla"
 101:/usr/avr/include/util/delay.h ****     fallback if no such user-provided definition could be found.
 102:/usr/avr/include/util/delay.h **** 
 103:/usr/avr/include/util/delay.h ****     In terms of the delay functions, the CPU frequency can be given as
 104:/usr/avr/include/util/delay.h ****     a floating-point constant (e.g. 3.6864E6 for 3.6864 MHz).
 105:/usr/avr/include/util/delay.h ****     However, the macros in <util/setbaud.h> require it to be an
 106:/usr/avr/include/util/delay.h ****     integer value.
 107:/usr/avr/include/util/delay.h ****  */
 108:/usr/avr/include/util/delay.h **** # define F_CPU 1000000UL
 109:/usr/avr/include/util/delay.h **** #endif
 110:/usr/avr/include/util/delay.h **** 
 111:/usr/avr/include/util/delay.h **** #ifndef __OPTIMIZE__
 112:/usr/avr/include/util/delay.h **** # warning "Compiler optimizations disabled; functions from <util/delay.h> won't work as designed"
 113:/usr/avr/include/util/delay.h **** #endif
 114:/usr/avr/include/util/delay.h **** 
 115:/usr/avr/include/util/delay.h **** #if __HAS_DELAY_CYCLES && defined(__OPTIMIZE__) && \
 116:/usr/avr/include/util/delay.h ****   !defined(__DELAY_BACKWARD_COMPATIBLE__) &&	   \
 117:/usr/avr/include/util/delay.h ****   __STDC_HOSTED__
 118:/usr/avr/include/util/delay.h **** #  include <math.h>
 119:/usr/avr/include/util/delay.h **** #endif
 120:/usr/avr/include/util/delay.h **** 
 121:/usr/avr/include/util/delay.h **** /**
 122:/usr/avr/include/util/delay.h ****    \ingroup util_delay
 123:/usr/avr/include/util/delay.h **** 
 124:/usr/avr/include/util/delay.h ****    Perform a delay of \c __ms milliseconds, using _delay_loop_2().
 125:/usr/avr/include/util/delay.h **** 
 126:/usr/avr/include/util/delay.h ****    The macro F_CPU is supposed to be defined to a
 127:/usr/avr/include/util/delay.h ****    constant defining the CPU clock frequency (in Hertz).
 128:/usr/avr/include/util/delay.h **** 
 129:/usr/avr/include/util/delay.h ****    The maximal possible delay is 262.14 ms / F_CPU in MHz.
 130:/usr/avr/include/util/delay.h **** 
 131:/usr/avr/include/util/delay.h ****    When the user request delay which exceed the maximum possible one,
 132:/usr/avr/include/util/delay.h ****    _delay_ms() provides a decreased resolution functionality. In this
 133:/usr/avr/include/util/delay.h ****    mode _delay_ms() will work with a resolution of 1/10 ms, providing
 134:/usr/avr/include/util/delay.h ****    delays up to 6.5535 seconds (independent from CPU frequency).  The
 135:/usr/avr/include/util/delay.h ****    user will not be informed about decreased resolution.
 136:/usr/avr/include/util/delay.h **** 
 137:/usr/avr/include/util/delay.h ****    If the avr-gcc toolchain has __builtin_avr_delay_cycles()
 138:/usr/avr/include/util/delay.h ****    support, maximal possible delay is 4294967.295 ms/ F_CPU in MHz. For
 139:/usr/avr/include/util/delay.h ****    values greater than the maximal possible delay, overflows results in
 140:/usr/avr/include/util/delay.h ****    no delay i.e., 0ms.
 141:/usr/avr/include/util/delay.h **** 
 142:/usr/avr/include/util/delay.h ****    Conversion of \c __ms into clock cycles may not always result in
 143:/usr/avr/include/util/delay.h ****    integer.  By default, the clock cycles rounded up to next
 144:/usr/avr/include/util/delay.h ****    integer. This ensures that the user gets at least \c __ms
 145:/usr/avr/include/util/delay.h ****    microseconds of delay.
 146:/usr/avr/include/util/delay.h **** 
 147:/usr/avr/include/util/delay.h ****    Alternatively, by defining the macro \c __DELAY_ROUND_DOWN__, or
 148:/usr/avr/include/util/delay.h ****    \c __DELAY_ROUND_CLOSEST__, before including this header file, the
 149:/usr/avr/include/util/delay.h ****    algorithm can be made to round down, or round to closest integer,
 150:/usr/avr/include/util/delay.h ****    respectively.
 151:/usr/avr/include/util/delay.h **** 
 152:/usr/avr/include/util/delay.h ****    \note
 153:/usr/avr/include/util/delay.h **** 
 154:/usr/avr/include/util/delay.h ****    The implementation of _delay_ms() based on
 155:/usr/avr/include/util/delay.h ****    __builtin_avr_delay_cycles() is not backward compatible with older
 156:/usr/avr/include/util/delay.h ****    implementations.  In order to get functionality backward compatible
 157:/usr/avr/include/util/delay.h ****    with previous versions, the macro \c "__DELAY_BACKWARD_COMPATIBLE__"
 158:/usr/avr/include/util/delay.h ****    must be defined before including this header file. Also, the
 159:/usr/avr/include/util/delay.h ****    backward compatible algorithm will be chosen if the code is
 160:/usr/avr/include/util/delay.h ****    compiled in a <em>freestanding environment</em> (GCC option
 161:/usr/avr/include/util/delay.h ****    \c -ffreestanding), as the math functions required for rounding are
 162:/usr/avr/include/util/delay.h ****    not available to the compiler then.
 163:/usr/avr/include/util/delay.h **** 
 164:/usr/avr/include/util/delay.h ****  */
 165:/usr/avr/include/util/delay.h **** void
 166:/usr/avr/include/util/delay.h **** _delay_ms(double __ms)
 167:/usr/avr/include/util/delay.h **** {
 168:/usr/avr/include/util/delay.h **** 	double __tmp ;
 169:/usr/avr/include/util/delay.h **** #if __HAS_DELAY_CYCLES && defined(__OPTIMIZE__) && \
 170:/usr/avr/include/util/delay.h ****   !defined(__DELAY_BACKWARD_COMPATIBLE__) &&	   \
 171:/usr/avr/include/util/delay.h ****   __STDC_HOSTED__
 172:/usr/avr/include/util/delay.h **** 	uint32_t __ticks_dc;
 173:/usr/avr/include/util/delay.h **** 	extern void __builtin_avr_delay_cycles(unsigned long);
 174:/usr/avr/include/util/delay.h **** 	__tmp = ((F_CPU) / 1e3) * __ms;
 175:/usr/avr/include/util/delay.h **** 
 176:/usr/avr/include/util/delay.h **** 	#if defined(__DELAY_ROUND_DOWN__)
 177:/usr/avr/include/util/delay.h **** 		__ticks_dc = (uint32_t)fabs(__tmp);
 178:/usr/avr/include/util/delay.h **** 
 179:/usr/avr/include/util/delay.h **** 	#elif defined(__DELAY_ROUND_CLOSEST__)
 180:/usr/avr/include/util/delay.h **** 		__ticks_dc = (uint32_t)(fabs(__tmp)+0.5);
 181:/usr/avr/include/util/delay.h **** 
 182:/usr/avr/include/util/delay.h **** 	#else
 183:/usr/avr/include/util/delay.h **** 		//round up by default
 184:/usr/avr/include/util/delay.h **** 		__ticks_dc = (uint32_t)(ceil(fabs(__tmp)));
 185:/usr/avr/include/util/delay.h **** 	#endif
 186:/usr/avr/include/util/delay.h **** 
 187:/usr/avr/include/util/delay.h **** 	__builtin_avr_delay_cycles(__ticks_dc);
 912               		.loc 3 187 0 is_stmt 1 discriminator 1
 913 0020 8FE3      		ldi r24,lo8(-25537)
 914 0022 9CE9      		ldi r25,hi8(-25537)
 915 0024 0197      	1:	sbiw r24,1
 916 0026 01F4      		brne 1b
 917 0028 00C0      		rjmp .
 918 002a 0000      		nop
 919               	.LVL103:
 920               	.LBE7:
 921               	.LBE6:
 391:/home/shum/qmk_firmware/keyboards/splitography/keymaps/beaklsi/common/keycode_functions.c ****   else if (state->pressed) { register_code(KC_LCTL); register_shift(KC_V); }
 922               		.loc 1 391 0 discriminator 1
 923 002c 88E2      		ldi r24,lo8(40)
 924 002e 90E0      		ldi r25,0
 925 0030 0E94 0000 		call tap_key
 926               	.LVL104:
 927               	.L61:
 394:/home/shum/qmk_firmware/keyboards/splitography/keymaps/beaklsi/common/keycode_functions.c **** }
 928               		.loc 1 394 0
 929 0034 CE01      		movw r24,r28
 930               	/* epilogue start */
 395:/home/shum/qmk_firmware/keyboards/splitography/keymaps/beaklsi/common/keycode_functions.c **** 
 931               		.loc 1 395 0
 932 0036 DF91      		pop r29
 933 0038 CF91      		pop r28
 934               	.LVL105:
 394:/home/shum/qmk_firmware/keyboards/splitography/keymaps/beaklsi/common/keycode_functions.c **** }
 935               		.loc 1 394 0
 936 003a 0C94 0000 		jmp reset_tap_dance
 937               	.LVL106:
 938               	.L60:
 392:/home/shum/qmk_firmware/keyboards/splitography/keymaps/beaklsi/common/keycode_functions.c ****   else                     { CTL_SFT_V; }
 939               		.loc 1 392 0
 940 003e 8F81      		ldd r24,Y+7
 941 0040 8823      		tst r24
 942 0042 01F0      		breq .L62
 392:/home/shum/qmk_firmware/keyboards/splitography/keymaps/beaklsi/common/keycode_functions.c ****   else                     { CTL_SFT_V; }
 943               		.loc 1 392 0 is_stmt 0 discriminator 1
 944 0044 80EE      		ldi r24,lo8(-32)
 945 0046 0E94 0000 		call register_code
 946               	.LVL107:
 947 004a 89E1      		ldi r24,lo8(25)
 948 004c 90E0      		ldi r25,0
 949 004e 0E94 0000 		call register_shift
 950               	.LVL108:
 951 0052 00C0      		rjmp .L61
 952               	.LVL109:
 953               	.L62:
 393:/home/shum/qmk_firmware/keyboards/splitography/keymaps/beaklsi/common/keycode_functions.c ****   reset_tap_dance(state);
 954               		.loc 1 393 0 is_stmt 1
 955 0054 80EE      		ldi r24,lo8(-32)
 956 0056 0E94 0000 		call register_code
 957               	.LVL110:
 958 005a 89E1      		ldi r24,lo8(25)
 959 005c 90E0      		ldi r25,0
 960 005e 0E94 0000 		call tap_shift
 961               	.LVL111:
 962 0062 80EE      		ldi r24,lo8(-32)
 963 0064 0E94 0000 		call unregister_code
 964               	.LVL112:
 965 0068 00C0      		rjmp .L61
 966               		.cfi_endproc
 967               	.LFE147:
 969               		.section	.text.double_tap,"ax",@progbits
 970               	.global	double_tap
 972               	double_tap:
 973               	.LFB118:
  86:/home/shum/qmk_firmware/keyboards/splitography/keymaps/beaklsi/common/keycode_functions.c ****   shift ? tap_shift(keycode) : tap_key(keycode);
 974               		.loc 1 86 0
 975               		.cfi_startproc
 976               	.LVL113:
 977 0000 1F93      		push r17
 978               	.LCFI20:
 979               		.cfi_def_cfa_offset 3
 980               		.cfi_offset 17, -2
 981 0002 CF93      		push r28
 982               	.LCFI21:
 983               		.cfi_def_cfa_offset 4
 984               		.cfi_offset 28, -3
 985 0004 DF93      		push r29
 986               	.LCFI22:
 987               		.cfi_def_cfa_offset 5
 988               		.cfi_offset 29, -4
 989               	/* prologue: function */
 990               	/* frame size = 0 */
 991               	/* stack size = 3 */
 992               	.L__stack_usage = 3
 993 0006 182F      		mov r17,r24
 994 0008 EA01      		movw r28,r20
  87:/home/shum/qmk_firmware/keyboards/splitography/keymaps/beaklsi/common/keycode_functions.c ****   if (count > 1) { shift ? tap_shift(keycode) : tap_key(keycode); }
 995               		.loc 1 87 0
 996 000a CA01      		movw r24,r20
 997               	.LVL114:
 998 000c 6623      		tst r22
 999 000e 01F0      		breq .L64
  87:/home/shum/qmk_firmware/keyboards/splitography/keymaps/beaklsi/common/keycode_functions.c ****   if (count > 1) { shift ? tap_shift(keycode) : tap_key(keycode); }
 1000               		.loc 1 87 0 is_stmt 0 discriminator 1
 1001 0010 0E94 0000 		call tap_shift
 1002               	.LVL115:
  88:/home/shum/qmk_firmware/keyboards/splitography/keymaps/beaklsi/common/keycode_functions.c **** }
 1003               		.loc 1 88 0 is_stmt 1 discriminator 1
 1004 0014 1230      		cpi r17,lo8(2)
 1005 0016 00F4      		brsh .L65
 1006               	.L63:
 1007               	/* epilogue start */
  89:/home/shum/qmk_firmware/keyboards/splitography/keymaps/beaklsi/common/keycode_functions.c **** 
 1008               		.loc 1 89 0
 1009 0018 DF91      		pop r29
 1010 001a CF91      		pop r28
 1011               	.LVL116:
 1012 001c 1F91      		pop r17
 1013               	.LVL117:
 1014 001e 0895      		ret
 1015               	.LVL118:
 1016               	.L64:
  87:/home/shum/qmk_firmware/keyboards/splitography/keymaps/beaklsi/common/keycode_functions.c ****   if (count > 1) { shift ? tap_shift(keycode) : tap_key(keycode); }
 1017               		.loc 1 87 0 discriminator 2
 1018 0020 0E94 0000 		call tap_key
 1019               	.LVL119:
  88:/home/shum/qmk_firmware/keyboards/splitography/keymaps/beaklsi/common/keycode_functions.c **** }
 1020               		.loc 1 88 0 discriminator 2
 1021 0024 1230      		cpi r17,lo8(2)
 1022 0026 00F0      		brlo .L63
  88:/home/shum/qmk_firmware/keyboards/splitography/keymaps/beaklsi/common/keycode_functions.c **** }
 1023               		.loc 1 88 0 is_stmt 0 discriminator 3
 1024 0028 CE01      		movw r24,r28
 1025               	/* epilogue start */
  89:/home/shum/qmk_firmware/keyboards/splitography/keymaps/beaklsi/common/keycode_functions.c **** 
 1026               		.loc 1 89 0 is_stmt 1 discriminator 3
 1027 002a DF91      		pop r29
 1028 002c CF91      		pop r28
 1029               	.LVL120:
 1030 002e 1F91      		pop r17
 1031               	.LVL121:
  88:/home/shum/qmk_firmware/keyboards/splitography/keymaps/beaklsi/common/keycode_functions.c **** }
 1032               		.loc 1 88 0 discriminator 3
 1033 0030 0C94 0000 		jmp tap_key
 1034               	.LVL122:
 1035               	.L65:
  88:/home/shum/qmk_firmware/keyboards/splitography/keymaps/beaklsi/common/keycode_functions.c **** }
 1036               		.loc 1 88 0 is_stmt 0 discriminator 2
 1037 0034 CE01      		movw r24,r28
 1038               	/* epilogue start */
  89:/home/shum/qmk_firmware/keyboards/splitography/keymaps/beaklsi/common/keycode_functions.c **** 
 1039               		.loc 1 89 0 is_stmt 1 discriminator 2
 1040 0036 DF91      		pop r29
 1041 0038 CF91      		pop r28
 1042               	.LVL123:
 1043 003a 1F91      		pop r17
 1044               	.LVL124:
  88:/home/shum/qmk_firmware/keyboards/splitography/keymaps/beaklsi/common/keycode_functions.c **** }
 1045               		.loc 1 88 0 discriminator 2
 1046 003c 0C94 0000 		jmp tap_shift
 1047               	.LVL125:
 1048               		.cfi_endproc
 1049               	.LFE118:
 1051               		.section	.rodata.colon.str1.1,"aMS",@progbits,1
 1052               	.LC1:
 1053 0000 203A 3A20 		.string	" :: "
 1053      00
 1054               		.section	.text.colon,"ax",@progbits
 1055               	.global	colon
 1057               	colon:
 1058               	.LFB130:
 247:/home/shum/qmk_firmware/keyboards/splitography/keymaps/beaklsi/common/keycode_functions.c ****   if (state->count > 2) {
 1059               		.loc 1 247 0
 1060               		.cfi_startproc
 1061               	.LVL126:
 1062 0000 CF93      		push r28
 1063               	.LCFI23:
 1064               		.cfi_def_cfa_offset 3
 1065               		.cfi_offset 28, -2
 1066 0002 DF93      		push r29
 1067               	.LCFI24:
 1068               		.cfi_def_cfa_offset 4
 1069               		.cfi_offset 29, -3
 1070               	/* prologue: function */
 1071               	/* frame size = 0 */
 1072               	/* stack size = 2 */
 1073               	.L__stack_usage = 2
 1074 0004 EC01      		movw r28,r24
 248:/home/shum/qmk_firmware/keyboards/splitography/keymaps/beaklsi/common/keycode_functions.c ****     if (state->pressed)                     { register_shift(KC_SCLN); }
 1075               		.loc 1 248 0
 1076 0006 8881      		ld r24,Y
 1077               	.LVL127:
 1078 0008 9F81      		ldd r25,Y+7
 1079 000a 8330      		cpi r24,lo8(3)
 1080 000c 00F0      		brlo .L70
 249:/home/shum/qmk_firmware/keyboards/splitography/keymaps/beaklsi/common/keycode_functions.c ****     else if (state->count == 3)             { send_string(" :: "); }
 1081               		.loc 1 249 0
 1082 000e 9923      		tst r25
 1083 0010 01F0      		breq .L71
 1084               	.L76:
 249:/home/shum/qmk_firmware/keyboards/splitography/keymaps/beaklsi/common/keycode_functions.c ****     else if (state->count == 3)             { send_string(" :: "); }
 1085               		.loc 1 249 0 is_stmt 0 discriminator 1
 1086 0012 83E3      		ldi r24,lo8(51)
 1087 0014 90E0      		ldi r25,0
 1088 0016 0E94 0000 		call register_shift
 1089               	.LVL128:
 1090               	.L72:
 254:/home/shum/qmk_firmware/keyboards/splitography/keymaps/beaklsi/common/keycode_functions.c **** }
 1091               		.loc 1 254 0 is_stmt 1
 1092 001a CE01      		movw r24,r28
 1093               	/* epilogue start */
 255:/home/shum/qmk_firmware/keyboards/splitography/keymaps/beaklsi/common/keycode_functions.c **** 
 1094               		.loc 1 255 0
 1095 001c DF91      		pop r29
 1096 001e CF91      		pop r28
 1097               	.LVL129:
 254:/home/shum/qmk_firmware/keyboards/splitography/keymaps/beaklsi/common/keycode_functions.c **** }
 1098               		.loc 1 254 0
 1099 0020 0C94 0000 		jmp reset_tap_dance
 1100               	.LVL130:
 1101               	.L71:
 250:/home/shum/qmk_firmware/keyboards/splitography/keymaps/beaklsi/common/keycode_functions.c ****     else for (i = 0; i < state->count; i++) { tap_shift(KC_SCLN); }
 1102               		.loc 1 250 0
 1103 0024 8330      		cpi r24,lo8(3)
 1104 0026 01F4      		brne .L73
 250:/home/shum/qmk_firmware/keyboards/splitography/keymaps/beaklsi/common/keycode_functions.c ****     else for (i = 0; i < state->count; i++) { tap_shift(KC_SCLN); }
 1105               		.loc 1 250 0 is_stmt 0 discriminator 1
 1106 0028 80E0      		ldi r24,lo8(.LC1)
 1107 002a 90E0      		ldi r25,hi8(.LC1)
 1108 002c 0E94 0000 		call send_string
 1109               	.LVL131:
 1110 0030 00C0      		rjmp .L72
 1111               	.LVL132:
 1112               	.L73:
 251:/home/shum/qmk_firmware/keyboards/splitography/keymaps/beaklsi/common/keycode_functions.c ****   }
 1113               		.loc 1 251 0 is_stmt 1
 1114 0032 1092 0000 		sts i,__zero_reg__
 1115               	.LVL133:
 1116               	.L74:
 251:/home/shum/qmk_firmware/keyboards/splitography/keymaps/beaklsi/common/keycode_functions.c ****   }
 1117               		.loc 1 251 0 is_stmt 0 discriminator 1
 1118 0036 9881      		ld r25,Y
 1119 0038 8091 0000 		lds r24,i
 1120 003c 8917      		cp r24,r25
 1121 003e 00F4      		brsh .L72
 251:/home/shum/qmk_firmware/keyboards/splitography/keymaps/beaklsi/common/keycode_functions.c ****   }
 1122               		.loc 1 251 0 discriminator 3
 1123 0040 83E3      		ldi r24,lo8(51)
 1124 0042 90E0      		ldi r25,0
 1125 0044 0E94 0000 		call tap_shift
 1126               	.LVL134:
 1127 0048 8091 0000 		lds r24,i
 1128 004c 8F5F      		subi r24,lo8(-(1))
 1129 004e 8093 0000 		sts i,r24
 1130 0052 00C0      		rjmp .L74
 1131               	.LVL135:
 1132               	.L70:
 253:/home/shum/qmk_firmware/keyboards/splitography/keymaps/beaklsi/common/keycode_functions.c ****   reset_tap_dance(state);
 1133               		.loc 1 253 0 is_stmt 1
 1134 0054 9111      		cpse r25,__zero_reg__
 1135 0056 00C0      		rjmp .L76
 253:/home/shum/qmk_firmware/keyboards/splitography/keymaps/beaklsi/common/keycode_functions.c ****   reset_tap_dance(state);
 1136               		.loc 1 253 0 is_stmt 0 discriminator 2
 1137 0058 43E3      		ldi r20,lo8(51)
 1138 005a 50E0      		ldi r21,0
 1139 005c 61E0      		ldi r22,lo8(1)
 1140               	.LVL136:
 1141 005e 0E94 0000 		call double_tap
 1142               	.LVL137:
 1143 0062 00C0      		rjmp .L72
 1144               		.cfi_endproc
 1145               	.LFE130:
 1147               		.section	.rodata.lesser.str1.1,"aMS",@progbits,1
 1148               	.LC2:
 1149 0000 203C 2D20 		.string	" <- "
 1149      00
 1150               		.section	.text.lesser,"ax",@progbits
 1151               	.global	lesser
 1153               	lesser:
 1154               	.LFB132:
 263:/home/shum/qmk_firmware/keyboards/splitography/keymaps/beaklsi/common/keycode_functions.c ****   if (state->count > 2) {
 1155               		.loc 1 263 0 is_stmt 1
 1156               		.cfi_startproc
 1157               	.LVL138:
 1158 0000 CF93      		push r28
 1159               	.LCFI25:
 1160               		.cfi_def_cfa_offset 3
 1161               		.cfi_offset 28, -2
 1162 0002 DF93      		push r29
 1163               	.LCFI26:
 1164               		.cfi_def_cfa_offset 4
 1165               		.cfi_offset 29, -3
 1166               	/* prologue: function */
 1167               	/* frame size = 0 */
 1168               	/* stack size = 2 */
 1169               	.L__stack_usage = 2
 1170 0004 EC01      		movw r28,r24
 264:/home/shum/qmk_firmware/keyboards/splitography/keymaps/beaklsi/common/keycode_functions.c ****     if (state->pressed)                     { register_shift(KC_COMM); }
 1171               		.loc 1 264 0
 1172 0006 8881      		ld r24,Y
 1173               	.LVL139:
 1174 0008 9F81      		ldd r25,Y+7
 1175 000a 8330      		cpi r24,lo8(3)
 1176 000c 00F0      		brlo .L78
 265:/home/shum/qmk_firmware/keyboards/splitography/keymaps/beaklsi/common/keycode_functions.c ****     else if (state->count == 3)             { send_string(" <- "); }
 1177               		.loc 1 265 0
 1178 000e 9923      		tst r25
 1179 0010 01F0      		breq .L79
 1180               	.L85:
 265:/home/shum/qmk_firmware/keyboards/splitography/keymaps/beaklsi/common/keycode_functions.c ****     else if (state->count == 3)             { send_string(" <- "); }
 1181               		.loc 1 265 0 is_stmt 0 discriminator 1
 1182 0012 86E3      		ldi r24,lo8(54)
 1183 0014 90E0      		ldi r25,0
 1184 0016 0E94 0000 		call register_shift
 1185               	.LVL140:
 1186               	.L80:
 271:/home/shum/qmk_firmware/keyboards/splitography/keymaps/beaklsi/common/keycode_functions.c **** }
 1187               		.loc 1 271 0 is_stmt 1
 1188 001a CE01      		movw r24,r28
 1189               	/* epilogue start */
 272:/home/shum/qmk_firmware/keyboards/splitography/keymaps/beaklsi/common/keycode_functions.c **** 
 1190               		.loc 1 272 0
 1191 001c DF91      		pop r29
 1192 001e CF91      		pop r28
 1193               	.LVL141:
 271:/home/shum/qmk_firmware/keyboards/splitography/keymaps/beaklsi/common/keycode_functions.c **** }
 1194               		.loc 1 271 0
 1195 0020 0C94 0000 		jmp reset_tap_dance
 1196               	.LVL142:
 1197               	.L79:
 266:/home/shum/qmk_firmware/keyboards/splitography/keymaps/beaklsi/common/keycode_functions.c ****     else for (i = 0; i < state->count; i++) { tap_shift(KC_COMM); }
 1198               		.loc 1 266 0
 1199 0024 8330      		cpi r24,lo8(3)
 1200 0026 01F4      		brne .L81
 266:/home/shum/qmk_firmware/keyboards/splitography/keymaps/beaklsi/common/keycode_functions.c ****     else for (i = 0; i < state->count; i++) { tap_shift(KC_COMM); }
 1201               		.loc 1 266 0 is_stmt 0 discriminator 1
 1202 0028 80E0      		ldi r24,lo8(.LC2)
 1203 002a 90E0      		ldi r25,hi8(.LC2)
 1204 002c 0E94 0000 		call send_string
 1205               	.LVL143:
 1206 0030 00C0      		rjmp .L80
 1207               	.LVL144:
 1208               	.L81:
 267:/home/shum/qmk_firmware/keyboards/splitography/keymaps/beaklsi/common/keycode_functions.c ****   }
 1209               		.loc 1 267 0 is_stmt 1
 1210 0032 1092 0000 		sts i,__zero_reg__
 1211               	.LVL145:
 1212               	.L82:
 267:/home/shum/qmk_firmware/keyboards/splitography/keymaps/beaklsi/common/keycode_functions.c ****   }
 1213               		.loc 1 267 0 is_stmt 0 discriminator 1
 1214 0036 9881      		ld r25,Y
 1215 0038 8091 0000 		lds r24,i
 1216 003c 8917      		cp r24,r25
 1217 003e 00F4      		brsh .L80
 267:/home/shum/qmk_firmware/keyboards/splitography/keymaps/beaklsi/common/keycode_functions.c ****   }
 1218               		.loc 1 267 0 discriminator 3
 1219 0040 86E3      		ldi r24,lo8(54)
 1220 0042 90E0      		ldi r25,0
 1221 0044 0E94 0000 		call tap_shift
 1222               	.LVL146:
 1223 0048 8091 0000 		lds r24,i
 1224 004c 8F5F      		subi r24,lo8(-(1))
 1225 004e 8093 0000 		sts i,r24
 1226 0052 00C0      		rjmp .L82
 1227               	.LVL147:
 1228               	.L78:
 269:/home/shum/qmk_firmware/keyboards/splitography/keymaps/beaklsi/common/keycode_functions.c ****   else                                            { state->pressed ? register_code(KC_LCTL) : doubl
 1229               		.loc 1 269 0 is_stmt 1
 1230 0054 8230      		cpi r24,lo8(2)
 1231 0056 01F4      		brne .L84
 269:/home/shum/qmk_firmware/keyboards/splitography/keymaps/beaklsi/common/keycode_functions.c ****   else                                            { state->pressed ? register_code(KC_LCTL) : doubl
 1232               		.loc 1 269 0 is_stmt 0 discriminator 1
 1233 0058 9111      		cpse r25,__zero_reg__
 1234 005a 00C0      		rjmp .L85
 1235               	.L86:
 270:/home/shum/qmk_firmware/keyboards/splitography/keymaps/beaklsi/common/keycode_functions.c ****   reset_tap_dance(state);
 1236               		.loc 1 270 0 is_stmt 1 discriminator 2
 1237 005c 46E3      		ldi r20,lo8(54)
 1238 005e 50E0      		ldi r21,0
 1239 0060 61E0      		ldi r22,lo8(1)
 1240               	.LVL148:
 1241 0062 0E94 0000 		call double_tap
 1242               	.LVL149:
 1243 0066 00C0      		rjmp .L80
 1244               	.LVL150:
 1245               	.L84:
 270:/home/shum/qmk_firmware/keyboards/splitography/keymaps/beaklsi/common/keycode_functions.c ****   reset_tap_dance(state);
 1246               		.loc 1 270 0 is_stmt 0
 1247 0068 9923      		tst r25
 1248 006a 01F0      		breq .L86
 270:/home/shum/qmk_firmware/keyboards/splitography/keymaps/beaklsi/common/keycode_functions.c ****   reset_tap_dance(state);
 1249               		.loc 1 270 0 discriminator 1
 1250 006c 80EE      		ldi r24,lo8(-32)
 1251 006e 0E94 0000 		call register_code
 1252               	.LVL151:
 1253 0072 00C0      		rjmp .L80
 1254               		.cfi_endproc
 1255               	.LFE132:
 1257               		.section	.rodata.greater.str1.1,"aMS",@progbits,1
 1258               	.LC3:
 1259 0000 202D 3E20 		.string	" -> "
 1259      00
 1260               		.section	.text.greater,"ax",@progbits
 1261               	.global	greater
 1263               	greater:
 1264               	.LFB134:
 281:/home/shum/qmk_firmware/keyboards/splitography/keymaps/beaklsi/common/keycode_functions.c ****   if (state->count > 2) {
 1265               		.loc 1 281 0 is_stmt 1
 1266               		.cfi_startproc
 1267               	.LVL152:
 1268 0000 CF93      		push r28
 1269               	.LCFI27:
 1270               		.cfi_def_cfa_offset 3
 1271               		.cfi_offset 28, -2
 1272 0002 DF93      		push r29
 1273               	.LCFI28:
 1274               		.cfi_def_cfa_offset 4
 1275               		.cfi_offset 29, -3
 1276               	/* prologue: function */
 1277               	/* frame size = 0 */
 1278               	/* stack size = 2 */
 1279               	.L__stack_usage = 2
 1280 0004 EC01      		movw r28,r24
 282:/home/shum/qmk_firmware/keyboards/splitography/keymaps/beaklsi/common/keycode_functions.c ****     if (state->pressed)                     { register_shift(KC_DOT); }
 1281               		.loc 1 282 0
 1282 0006 8881      		ld r24,Y
 1283               	.LVL153:
 1284 0008 9F81      		ldd r25,Y+7
 1285 000a 8330      		cpi r24,lo8(3)
 1286 000c 00F0      		brlo .L91
 283:/home/shum/qmk_firmware/keyboards/splitography/keymaps/beaklsi/common/keycode_functions.c ****     else if (state->count == 3)             { send_string(" -> "); }
 1287               		.loc 1 283 0
 1288 000e 9923      		tst r25
 1289 0010 01F0      		breq .L92
 1290               	.L98:
 283:/home/shum/qmk_firmware/keyboards/splitography/keymaps/beaklsi/common/keycode_functions.c ****     else if (state->count == 3)             { send_string(" -> "); }
 1291               		.loc 1 283 0 is_stmt 0 discriminator 1
 1292 0012 87E3      		ldi r24,lo8(55)
 1293 0014 90E0      		ldi r25,0
 1294 0016 0E94 0000 		call register_shift
 1295               	.LVL154:
 1296               	.L93:
 289:/home/shum/qmk_firmware/keyboards/splitography/keymaps/beaklsi/common/keycode_functions.c **** }
 1297               		.loc 1 289 0 is_stmt 1
 1298 001a CE01      		movw r24,r28
 1299               	/* epilogue start */
 290:/home/shum/qmk_firmware/keyboards/splitography/keymaps/beaklsi/common/keycode_functions.c **** 
 1300               		.loc 1 290 0
 1301 001c DF91      		pop r29
 1302 001e CF91      		pop r28
 1303               	.LVL155:
 289:/home/shum/qmk_firmware/keyboards/splitography/keymaps/beaklsi/common/keycode_functions.c **** }
 1304               		.loc 1 289 0
 1305 0020 0C94 0000 		jmp reset_tap_dance
 1306               	.LVL156:
 1307               	.L92:
 284:/home/shum/qmk_firmware/keyboards/splitography/keymaps/beaklsi/common/keycode_functions.c ****     else for (i = 0; i < state->count; i++) { tap_shift(KC_DOT); }
 1308               		.loc 1 284 0
 1309 0024 8330      		cpi r24,lo8(3)
 1310 0026 01F4      		brne .L94
 284:/home/shum/qmk_firmware/keyboards/splitography/keymaps/beaklsi/common/keycode_functions.c ****     else for (i = 0; i < state->count; i++) { tap_shift(KC_DOT); }
 1311               		.loc 1 284 0 is_stmt 0 discriminator 1
 1312 0028 80E0      		ldi r24,lo8(.LC3)
 1313 002a 90E0      		ldi r25,hi8(.LC3)
 1314 002c 0E94 0000 		call send_string
 1315               	.LVL157:
 1316 0030 00C0      		rjmp .L93
 1317               	.LVL158:
 1318               	.L94:
 285:/home/shum/qmk_firmware/keyboards/splitography/keymaps/beaklsi/common/keycode_functions.c ****   }
 1319               		.loc 1 285 0 is_stmt 1
 1320 0032 1092 0000 		sts i,__zero_reg__
 1321               	.LVL159:
 1322               	.L95:
 285:/home/shum/qmk_firmware/keyboards/splitography/keymaps/beaklsi/common/keycode_functions.c ****   }
 1323               		.loc 1 285 0 is_stmt 0 discriminator 1
 1324 0036 9881      		ld r25,Y
 1325 0038 8091 0000 		lds r24,i
 1326 003c 8917      		cp r24,r25
 1327 003e 00F4      		brsh .L93
 285:/home/shum/qmk_firmware/keyboards/splitography/keymaps/beaklsi/common/keycode_functions.c ****   }
 1328               		.loc 1 285 0 discriminator 3
 1329 0040 87E3      		ldi r24,lo8(55)
 1330 0042 90E0      		ldi r25,0
 1331 0044 0E94 0000 		call tap_shift
 1332               	.LVL160:
 1333 0048 8091 0000 		lds r24,i
 1334 004c 8F5F      		subi r24,lo8(-(1))
 1335 004e 8093 0000 		sts i,r24
 1336 0052 00C0      		rjmp .L95
 1337               	.LVL161:
 1338               	.L91:
 287:/home/shum/qmk_firmware/keyboards/splitography/keymaps/beaklsi/common/keycode_functions.c ****   else                                            { state->pressed ? register_code(KC_LSFT) : doubl
 1339               		.loc 1 287 0 is_stmt 1
 1340 0054 8230      		cpi r24,lo8(2)
 1341 0056 01F4      		brne .L97
 287:/home/shum/qmk_firmware/keyboards/splitography/keymaps/beaklsi/common/keycode_functions.c ****   else                                            { state->pressed ? register_code(KC_LSFT) : doubl
 1342               		.loc 1 287 0 is_stmt 0 discriminator 1
 1343 0058 9111      		cpse r25,__zero_reg__
 1344 005a 00C0      		rjmp .L98
 1345               	.L99:
 288:/home/shum/qmk_firmware/keyboards/splitography/keymaps/beaklsi/common/keycode_functions.c ****   reset_tap_dance(state);
 1346               		.loc 1 288 0 is_stmt 1 discriminator 2
 1347 005c 47E3      		ldi r20,lo8(55)
 1348 005e 50E0      		ldi r21,0
 1349 0060 61E0      		ldi r22,lo8(1)
 1350               	.LVL162:
 1351 0062 0E94 0000 		call double_tap
 1352               	.LVL163:
 1353 0066 00C0      		rjmp .L93
 1354               	.LVL164:
 1355               	.L97:
 288:/home/shum/qmk_firmware/keyboards/splitography/keymaps/beaklsi/common/keycode_functions.c ****   reset_tap_dance(state);
 1356               		.loc 1 288 0 is_stmt 0
 1357 0068 9923      		tst r25
 1358 006a 01F0      		breq .L99
 288:/home/shum/qmk_firmware/keyboards/splitography/keymaps/beaklsi/common/keycode_functions.c ****   reset_tap_dance(state);
 1359               		.loc 1 288 0 discriminator 1
 1360 006c 81EE      		ldi r24,lo8(-31)
 1361 006e 0E94 0000 		call register_code
 1362               	.LVL165:
 1363 0072 00C0      		rjmp .L93
 1364               		.cfi_endproc
 1365               	.LFE134:
 1367               		.section	.text.emoji,"ax",@progbits
 1368               	.global	emoji
 1370               	emoji:
 1371               	.LFB141:
 343:/home/shum/qmk_firmware/keyboards/splitography/keymaps/beaklsi/common/keycode_functions.c ****   if (state->count > 1) {
 1372               		.loc 1 343 0 is_stmt 1
 1373               		.cfi_startproc
 1374               	.LVL166:
 1375 0000 CF93      		push r28
 1376               	.LCFI29:
 1377               		.cfi_def_cfa_offset 3
 1378               		.cfi_offset 28, -2
 1379 0002 DF93      		push r29
 1380               	.LCFI30:
 1381               		.cfi_def_cfa_offset 4
 1382               		.cfi_offset 29, -3
 1383               	/* prologue: function */
 1384               	/* frame size = 0 */
 1385               	/* stack size = 2 */
 1386               	.L__stack_usage = 2
 1387 0004 EC01      		movw r28,r24
 344:/home/shum/qmk_firmware/keyboards/splitography/keymaps/beaklsi/common/keycode_functions.c ****     if (state->pressed)                     { register_shift(KC_SCLN); }
 1388               		.loc 1 344 0
 1389 0006 8881      		ld r24,Y
 1390               	.LVL167:
 1391 0008 9F81      		ldd r25,Y+7
 1392 000a 8230      		cpi r24,lo8(2)
 1393 000c 00F0      		brlo .L104
 345:/home/shum/qmk_firmware/keyboards/splitography/keymaps/beaklsi/common/keycode_functions.c ****     else if (state->count == 2)             { tap_shift(KC_SCLN); tap_key(KC_MINUS); }
 1394               		.loc 1 345 0
 1395 000e 9923      		tst r25
 1396 0010 01F0      		breq .L105
 1397               	.L110:
 345:/home/shum/qmk_firmware/keyboards/splitography/keymaps/beaklsi/common/keycode_functions.c ****     else if (state->count == 2)             { tap_shift(KC_SCLN); tap_key(KC_MINUS); }
 1398               		.loc 1 345 0 is_stmt 0 discriminator 1
 1399 0012 83E3      		ldi r24,lo8(51)
 1400 0014 90E0      		ldi r25,0
 1401 0016 0E94 0000 		call register_shift
 1402               	.LVL168:
 1403               	.L106:
 350:/home/shum/qmk_firmware/keyboards/splitography/keymaps/beaklsi/common/keycode_functions.c **** }
 1404               		.loc 1 350 0 is_stmt 1
 1405 001a CE01      		movw r24,r28
 1406               	/* epilogue start */
 351:/home/shum/qmk_firmware/keyboards/splitography/keymaps/beaklsi/common/keycode_functions.c **** 
 1407               		.loc 1 351 0
 1408 001c DF91      		pop r29
 1409 001e CF91      		pop r28
 1410               	.LVL169:
 350:/home/shum/qmk_firmware/keyboards/splitography/keymaps/beaklsi/common/keycode_functions.c **** }
 1411               		.loc 1 350 0
 1412 0020 0C94 0000 		jmp reset_tap_dance
 1413               	.LVL170:
 1414               	.L105:
 346:/home/shum/qmk_firmware/keyboards/splitography/keymaps/beaklsi/common/keycode_functions.c ****     else for (i = 0; i < state->count; i++) { tap_shift(KC_SCLN); }
 1415               		.loc 1 346 0
 1416 0024 8230      		cpi r24,lo8(2)
 1417 0026 01F4      		brne .L107
 346:/home/shum/qmk_firmware/keyboards/splitography/keymaps/beaklsi/common/keycode_functions.c ****     else for (i = 0; i < state->count; i++) { tap_shift(KC_SCLN); }
 1418               		.loc 1 346 0 is_stmt 0 discriminator 1
 1419 0028 83E3      		ldi r24,lo8(51)
 1420 002a 90E0      		ldi r25,0
 1421 002c 0E94 0000 		call tap_shift
 1422               	.LVL171:
 1423 0030 8DE2      		ldi r24,lo8(45)
 1424 0032 90E0      		ldi r25,0
 1425 0034 0E94 0000 		call tap_key
 1426               	.LVL172:
 1427 0038 00C0      		rjmp .L106
 1428               	.LVL173:
 1429               	.L107:
 347:/home/shum/qmk_firmware/keyboards/splitography/keymaps/beaklsi/common/keycode_functions.c ****   }
 1430               		.loc 1 347 0 is_stmt 1
 1431 003a 1092 0000 		sts i,__zero_reg__
 1432               	.LVL174:
 1433               	.L108:
 347:/home/shum/qmk_firmware/keyboards/splitography/keymaps/beaklsi/common/keycode_functions.c ****   }
 1434               		.loc 1 347 0 is_stmt 0 discriminator 1
 1435 003e 9881      		ld r25,Y
 1436 0040 8091 0000 		lds r24,i
 1437 0044 8917      		cp r24,r25
 1438 0046 00F4      		brsh .L106
 347:/home/shum/qmk_firmware/keyboards/splitography/keymaps/beaklsi/common/keycode_functions.c ****   }
 1439               		.loc 1 347 0 discriminator 3
 1440 0048 83E3      		ldi r24,lo8(51)
 1441 004a 90E0      		ldi r25,0
 1442 004c 0E94 0000 		call tap_shift
 1443               	.LVL175:
 1444 0050 8091 0000 		lds r24,i
 1445 0054 8F5F      		subi r24,lo8(-(1))
 1446 0056 8093 0000 		sts i,r24
 1447 005a 00C0      		rjmp .L108
 1448               	.LVL176:
 1449               	.L104:
 349:/home/shum/qmk_firmware/keyboards/splitography/keymaps/beaklsi/common/keycode_functions.c ****   reset_tap_dance(state);
 1450               		.loc 1 349 0 is_stmt 1
 1451 005c 9111      		cpse r25,__zero_reg__
 1452 005e 00C0      		rjmp .L110
 349:/home/shum/qmk_firmware/keyboards/splitography/keymaps/beaklsi/common/keycode_functions.c ****   reset_tap_dance(state);
 1453               		.loc 1 349 0 is_stmt 0 discriminator 2
 1454 0060 43E3      		ldi r20,lo8(51)
 1455 0062 50E0      		ldi r21,0
 1456 0064 61E0      		ldi r22,lo8(1)
 1457               	.LVL177:
 1458 0066 0E94 0000 		call double_tap
 1459               	.LVL178:
 1460 006a 00C0      		rjmp .L106
 1461               		.cfi_endproc
 1462               	.LFE141:
 1464               		.section	.text.percent,"ax",@progbits
 1465               	.global	percent
 1467               	percent:
 1468               	.LFB145:
 375:/home/shum/qmk_firmware/keyboards/splitography/keymaps/beaklsi/common/keycode_functions.c ****   if ((state->count > 1) && state->pressed) { register_shift(KC_5); }
 1469               		.loc 1 375 0 is_stmt 1
 1470               		.cfi_startproc
 1471               	.LVL179:
 1472 0000 CF93      		push r28
 1473               	.LCFI31:
 1474               		.cfi_def_cfa_offset 3
 1475               		.cfi_offset 28, -2
 1476 0002 DF93      		push r29
 1477               	.LCFI32:
 1478               		.cfi_def_cfa_offset 4
 1479               		.cfi_offset 29, -3
 1480               	/* prologue: function */
 1481               	/* frame size = 0 */
 1482               	/* stack size = 2 */
 1483               	.L__stack_usage = 2
 1484 0004 EC01      		movw r28,r24
 376:/home/shum/qmk_firmware/keyboards/splitography/keymaps/beaklsi/common/keycode_functions.c ****   else                                      { state->pressed ? register_code(KC_LALT) : double_tap(
 1485               		.loc 1 376 0
 1486 0006 8881      		ld r24,Y
 1487               	.LVL180:
 1488 0008 9F81      		ldd r25,Y+7
 1489 000a 8230      		cpi r24,lo8(2)
 1490 000c 00F0      		brlo .L112
 376:/home/shum/qmk_firmware/keyboards/splitography/keymaps/beaklsi/common/keycode_functions.c ****   else                                      { state->pressed ? register_code(KC_LALT) : double_tap(
 1491               		.loc 1 376 0 is_stmt 0 discriminator 1
 1492 000e 9923      		tst r25
 1493 0010 01F0      		breq .L113
 376:/home/shum/qmk_firmware/keyboards/splitography/keymaps/beaklsi/common/keycode_functions.c ****   else                                      { state->pressed ? register_code(KC_LALT) : double_tap(
 1494               		.loc 1 376 0 discriminator 2
 1495 0012 82E2      		ldi r24,lo8(34)
 1496 0014 90E0      		ldi r25,0
 1497 0016 0E94 0000 		call register_shift
 1498               	.LVL181:
 1499               	.L114:
 378:/home/shum/qmk_firmware/keyboards/splitography/keymaps/beaklsi/common/keycode_functions.c **** }
 1500               		.loc 1 378 0 is_stmt 1
 1501 001a CE01      		movw r24,r28
 1502               	/* epilogue start */
 379:/home/shum/qmk_firmware/keyboards/splitography/keymaps/beaklsi/common/keycode_functions.c **** 
 1503               		.loc 1 379 0
 1504 001c DF91      		pop r29
 1505 001e CF91      		pop r28
 1506               	.LVL182:
 378:/home/shum/qmk_firmware/keyboards/splitography/keymaps/beaklsi/common/keycode_functions.c **** }
 1507               		.loc 1 378 0
 1508 0020 0C94 0000 		jmp reset_tap_dance
 1509               	.LVL183:
 1510               	.L112:
 377:/home/shum/qmk_firmware/keyboards/splitography/keymaps/beaklsi/common/keycode_functions.c ****   reset_tap_dance(state);
 1511               		.loc 1 377 0
 1512 0024 9923      		tst r25
 1513 0026 01F0      		breq .L113
 377:/home/shum/qmk_firmware/keyboards/splitography/keymaps/beaklsi/common/keycode_functions.c ****   reset_tap_dance(state);
 1514               		.loc 1 377 0 is_stmt 0 discriminator 1
 1515 0028 82EE      		ldi r24,lo8(-30)
 1516 002a 0E94 0000 		call register_code
 1517               	.LVL184:
 1518 002e 00C0      		rjmp .L114
 1519               	.LVL185:
 1520               	.L113:
 377:/home/shum/qmk_firmware/keyboards/splitography/keymaps/beaklsi/common/keycode_functions.c ****   reset_tap_dance(state);
 1521               		.loc 1 377 0 discriminator 2
 1522 0030 42E2      		ldi r20,lo8(34)
 1523 0032 50E0      		ldi r21,0
 1524 0034 61E0      		ldi r22,lo8(1)
 1525               	.LVL186:
 1526 0036 0E94 0000 		call double_tap
 1527               	.LVL187:
 1528 003a 00C0      		rjmp .L114
 1529               		.cfi_endproc
 1530               	.LFE145:
 1532               		.section	.text.tap_mod,"ax",@progbits
 1533               	.global	tap_mod
 1535               	tap_mod:
 1536               	.LFB120:
 103:/home/shum/qmk_firmware/keyboards/splitography/keymaps/beaklsi/common/keycode_functions.c ****   switch (modifier) {
 1537               		.loc 1 103 0 is_stmt 1
 1538               		.cfi_startproc
 1539               	.LVL188:
 1540 0000 0F93      		push r16
 1541               	.LCFI33:
 1542               		.cfi_def_cfa_offset 3
 1543               		.cfi_offset 16, -2
 1544 0002 1F93      		push r17
 1545               	.LCFI34:
 1546               		.cfi_def_cfa_offset 4
 1547               		.cfi_offset 17, -3
 1548 0004 CF93      		push r28
 1549               	.LCFI35:
 1550               		.cfi_def_cfa_offset 5
 1551               		.cfi_offset 28, -4
 1552 0006 DF93      		push r29
 1553               	.LCFI36:
 1554               		.cfi_def_cfa_offset 6
 1555               		.cfi_offset 29, -5
 1556               	/* prologue: function */
 1557               	/* frame size = 0 */
 1558               	/* stack size = 4 */
 1559               	.L__stack_usage = 4
 1560 0008 EC01      		movw r28,r24
 1561 000a 8B01      		movw r16,r22
 104:/home/shum/qmk_firmware/keyboards/splitography/keymaps/beaklsi/common/keycode_functions.c ****   case NOSHIFT:
 1562               		.loc 1 104 0
 1563 000c 0097      		sbiw r24,0
 1564 000e 01F0      		breq .L123
 1565 0010 8130      		cpi r24,1
 1566 0012 9105      		cpc r25,__zero_reg__
 1567 0014 01F0      		breq .L124
 112:/home/shum/qmk_firmware/keyboards/splitography/keymaps/beaklsi/common/keycode_functions.c ****     tap_key        (keycode);
 1568               		.loc 1 112 0
 1569 0016 0E94 0000 		call register_code
 1570               	.LVL189:
 113:/home/shum/qmk_firmware/keyboards/splitography/keymaps/beaklsi/common/keycode_functions.c ****     unregister_code(modifier);
 1571               		.loc 1 113 0
 1572 001a C801      		movw r24,r16
 1573 001c 0E94 0000 		call tap_key
 1574               	.LVL190:
 114:/home/shum/qmk_firmware/keyboards/splitography/keymaps/beaklsi/common/keycode_functions.c ****   }
 1575               		.loc 1 114 0
 1576 0020 8C2F      		mov r24,r28
 1577               	/* epilogue start */
 116:/home/shum/qmk_firmware/keyboards/splitography/keymaps/beaklsi/common/keycode_functions.c **** 
 1578               		.loc 1 116 0
 1579 0022 DF91      		pop r29
 1580 0024 CF91      		pop r28
 1581               	.LVL191:
 1582 0026 1F91      		pop r17
 1583 0028 0F91      		pop r16
 1584               	.LVL192:
 114:/home/shum/qmk_firmware/keyboards/splitography/keymaps/beaklsi/common/keycode_functions.c ****   }
 1585               		.loc 1 114 0
 1586 002a 0C94 0000 		jmp unregister_code
 1587               	.LVL193:
 1588               	.L123:
 106:/home/shum/qmk_firmware/keyboards/splitography/keymaps/beaklsi/common/keycode_functions.c ****     break;
 1589               		.loc 1 106 0
 1590 002e CB01      		movw r24,r22
 1591               	.LVL194:
 1592               	/* epilogue start */
 116:/home/shum/qmk_firmware/keyboards/splitography/keymaps/beaklsi/common/keycode_functions.c **** 
 1593               		.loc 1 116 0
 1594 0030 DF91      		pop r29
 1595 0032 CF91      		pop r28
 1596               	.LVL195:
 1597 0034 1F91      		pop r17
 1598 0036 0F91      		pop r16
 1599               	.LVL196:
 106:/home/shum/qmk_firmware/keyboards/splitography/keymaps/beaklsi/common/keycode_functions.c ****     break;
 1600               		.loc 1 106 0
 1601 0038 0C94 0000 		jmp tap_key
 1602               	.LVL197:
 1603               	.L124:
 109:/home/shum/qmk_firmware/keyboards/splitography/keymaps/beaklsi/common/keycode_functions.c ****     break;
 1604               		.loc 1 109 0
 1605 003c CB01      		movw r24,r22
 1606               	.LVL198:
 1607               	/* epilogue start */
 116:/home/shum/qmk_firmware/keyboards/splitography/keymaps/beaklsi/common/keycode_functions.c **** 
 1608               		.loc 1 116 0
 1609 003e DF91      		pop r29
 1610 0040 CF91      		pop r28
 1611               	.LVL199:
 1612 0042 1F91      		pop r17
 1613 0044 0F91      		pop r16
 1614               	.LVL200:
 109:/home/shum/qmk_firmware/keyboards/splitography/keymaps/beaklsi/common/keycode_functions.c ****     break;
 1615               		.loc 1 109 0
 1616 0046 0C94 0000 		jmp tap_shift
 1617               	.LVL201:
 1618               		.cfi_endproc
 1619               	.LFE120:
 1621               		.section	.text.on_tap,"ax",@progbits
 1622               	.global	on_tap
 1624               	on_tap:
 1625               	.LFB119:
  93:/home/shum/qmk_firmware/keyboards/splitography/keymaps/beaklsi/common/keycode_functions.c ****   if (keycode && (timer_elapsed(key_timer) < TAPPING_TERM)) { tap_mod(shift, keycode); }
 1626               		.loc 1 93 0
 1627               		.cfi_startproc
 1628               	.LVL202:
 1629 0000 1F93      		push r17
 1630               	.LCFI37:
 1631               		.cfi_def_cfa_offset 3
 1632               		.cfi_offset 17, -2
 1633 0002 CF93      		push r28
 1634               	.LCFI38:
 1635               		.cfi_def_cfa_offset 4
 1636               		.cfi_offset 28, -3
 1637 0004 DF93      		push r29
 1638               	.LCFI39:
 1639               		.cfi_def_cfa_offset 5
 1640               		.cfi_offset 29, -4
 1641               	/* prologue: function */
 1642               	/* frame size = 0 */
 1643               	/* stack size = 3 */
 1644               	.L__stack_usage = 3
 1645 0006 182F      		mov r17,r24
 1646 0008 EB01      		movw r28,r22
  94:/home/shum/qmk_firmware/keyboards/splitography/keymaps/beaklsi/common/keycode_functions.c **** }
 1647               		.loc 1 94 0
 1648 000a 2097      		sbiw r28,0
 1649 000c 01F0      		breq .L126
  94:/home/shum/qmk_firmware/keyboards/splitography/keymaps/beaklsi/common/keycode_functions.c **** }
 1650               		.loc 1 94 0 is_stmt 0 discriminator 1
 1651 000e 8091 0000 		lds r24,key_timer
 1652 0012 9091 0000 		lds r25,key_timer+1
 1653               	.LVL203:
 1654 0016 0E94 0000 		call timer_elapsed
 1655               	.LVL204:
 1656 001a 883C      		cpi r24,-56
 1657 001c 9105      		cpc r25,__zero_reg__
 1658 001e 00F4      		brsh .L126
  94:/home/shum/qmk_firmware/keyboards/splitography/keymaps/beaklsi/common/keycode_functions.c **** }
 1659               		.loc 1 94 0 discriminator 2
 1660 0020 BE01      		movw r22,r28
 1661 0022 812F      		mov r24,r17
 1662 0024 90E0      		ldi r25,0
 1663               	/* epilogue start */
  95:/home/shum/qmk_firmware/keyboards/splitography/keymaps/beaklsi/common/keycode_functions.c **** 
 1664               		.loc 1 95 0 is_stmt 1 discriminator 2
 1665 0026 DF91      		pop r29
 1666 0028 CF91      		pop r28
 1667               	.LVL205:
 1668 002a 1F91      		pop r17
 1669               	.LVL206:
  94:/home/shum/qmk_firmware/keyboards/splitography/keymaps/beaklsi/common/keycode_functions.c **** }
 1670               		.loc 1 94 0 discriminator 2
 1671 002c 0C94 0000 		jmp tap_mod
 1672               	.LVL207:
 1673               	.L126:
 1674               	/* epilogue start */
  95:/home/shum/qmk_firmware/keyboards/splitography/keymaps/beaklsi/common/keycode_functions.c **** 
 1675               		.loc 1 95 0
 1676 0030 DF91      		pop r29
 1677 0032 CF91      		pop r28
 1678               	.LVL208:
 1679 0034 1F91      		pop r17
 1680               	.LVL209:
 1681 0036 0895      		ret
 1682               		.cfi_endproc
 1683               	.LFE119:
 1685               		.section	.text.paste,"ax",@progbits
 1686               	.global	paste
 1688               	paste:
 1689               	.LFB143:
 361:/home/shum/qmk_firmware/keyboards/splitography/keymaps/beaklsi/common/keycode_functions.c ****   if (state->count > 1)    { tap_mod(KC_LCTL, KC_V); IRC_ENTER; }
 1690               		.loc 1 361 0
 1691               		.cfi_startproc
 1692               	.LVL210:
 1693 0000 CF93      		push r28
 1694               	.LCFI40:
 1695               		.cfi_def_cfa_offset 3
 1696               		.cfi_offset 28, -2
 1697 0002 DF93      		push r29
 1698               	.LCFI41:
 1699               		.cfi_def_cfa_offset 4
 1700               		.cfi_offset 29, -3
 1701               	/* prologue: function */
 1702               	/* frame size = 0 */
 1703               	/* stack size = 2 */
 1704               	.L__stack_usage = 2
 1705 0004 EC01      		movw r28,r24
 362:/home/shum/qmk_firmware/keyboards/splitography/keymaps/beaklsi/common/keycode_functions.c ****   else if (state->pressed) { register_code(KC_LCTL); register_code(KC_V); }
 1706               		.loc 1 362 0
 1707 0006 8881      		ld r24,Y
 1708               	.LVL211:
 1709 0008 8230      		cpi r24,lo8(2)
 1710 000a 00F0      		brlo .L131
 362:/home/shum/qmk_firmware/keyboards/splitography/keymaps/beaklsi/common/keycode_functions.c ****   else if (state->pressed) { register_code(KC_LCTL); register_code(KC_V); }
 1711               		.loc 1 362 0 is_stmt 0 discriminator 1
 1712 000c 69E1      		ldi r22,lo8(25)
 1713 000e 70E0      		ldi r23,0
 1714               	.LVL212:
 1715 0010 80EE      		ldi r24,lo8(-32)
 1716 0012 90E0      		ldi r25,0
 1717 0014 0E94 0000 		call tap_mod
 1718               	.LVL213:
 1719               	.LBB8:
 1720               	.LBB9:
 1721               		.loc 3 187 0 is_stmt 1 discriminator 1
 1722 0018 8FE3      		ldi r24,lo8(-25537)
 1723 001a 9CE9      		ldi r25,hi8(-25537)
 1724 001c 0197      	1:	sbiw r24,1
 1725 001e 01F4      		brne 1b
 1726 0020 00C0      		rjmp .
 1727 0022 0000      		nop
 1728               	.LVL214:
 1729               	.LBE9:
 1730               	.LBE8:
 362:/home/shum/qmk_firmware/keyboards/splitography/keymaps/beaklsi/common/keycode_functions.c ****   else if (state->pressed) { register_code(KC_LCTL); register_code(KC_V); }
 1731               		.loc 1 362 0 discriminator 1
 1732 0024 88E2      		ldi r24,lo8(40)
 1733 0026 90E0      		ldi r25,0
 1734 0028 0E94 0000 		call tap_key
 1735               	.LVL215:
 1736               	.L132:
 365:/home/shum/qmk_firmware/keyboards/splitography/keymaps/beaklsi/common/keycode_functions.c **** }
 1737               		.loc 1 365 0
 1738 002c CE01      		movw r24,r28
 1739               	/* epilogue start */
 366:/home/shum/qmk_firmware/keyboards/splitography/keymaps/beaklsi/common/keycode_functions.c **** 
 1740               		.loc 1 366 0
 1741 002e DF91      		pop r29
 1742 0030 CF91      		pop r28
 1743               	.LVL216:
 365:/home/shum/qmk_firmware/keyboards/splitography/keymaps/beaklsi/common/keycode_functions.c **** }
 1744               		.loc 1 365 0
 1745 0032 0C94 0000 		jmp reset_tap_dance
 1746               	.LVL217:
 1747               	.L131:
 363:/home/shum/qmk_firmware/keyboards/splitography/keymaps/beaklsi/common/keycode_functions.c ****   else                     { tap_mod(KC_LCTL, KC_V); }
 1748               		.loc 1 363 0
 1749 0036 8F81      		ldd r24,Y+7
 1750 0038 8823      		tst r24
 1751 003a 01F0      		breq .L133
 363:/home/shum/qmk_firmware/keyboards/splitography/keymaps/beaklsi/common/keycode_functions.c ****   else                     { tap_mod(KC_LCTL, KC_V); }
 1752               		.loc 1 363 0 is_stmt 0 discriminator 1
 1753 003c 80EE      		ldi r24,lo8(-32)
 1754 003e 0E94 0000 		call register_code
 1755               	.LVL218:
 1756 0042 89E1      		ldi r24,lo8(25)
 1757 0044 0E94 0000 		call register_code
 1758               	.LVL219:
 1759 0048 00C0      		rjmp .L132
 1760               	.LVL220:
 1761               	.L133:
 364:/home/shum/qmk_firmware/keyboards/splitography/keymaps/beaklsi/common/keycode_functions.c ****   reset_tap_dance(state);
 1762               		.loc 1 364 0 is_stmt 1
 1763 004a 69E1      		ldi r22,lo8(25)
 1764 004c 70E0      		ldi r23,0
 1765               	.LVL221:
 1766 004e 80EE      		ldi r24,lo8(-32)
 1767 0050 90E0      		ldi r25,0
 1768 0052 0E94 0000 		call tap_mod
 1769               	.LVL222:
 1770 0056 00C0      		rjmp .L132
 1771               		.cfi_endproc
 1772               	.LFE143:
 1774               		.section	.text.mt_shift,"ax",@progbits
 1775               	.global	mt_shift
 1777               	mt_shift:
 1778               	.LFB121:
 120:/home/shum/qmk_firmware/keyboards/splitography/keymaps/beaklsi/common/keycode_functions.c ****   if (record->event.pressed) {
 1779               		.loc 1 120 0
 1780               		.cfi_startproc
 1781               	.LVL223:
 1782 0000 EF92      		push r14
 1783               	.LCFI42:
 1784               		.cfi_def_cfa_offset 3
 1785               		.cfi_offset 14, -2
 1786 0002 FF92      		push r15
 1787               	.LCFI43:
 1788               		.cfi_def_cfa_offset 4
 1789               		.cfi_offset 15, -3
 1790 0004 1F93      		push r17
 1791               	.LCFI44:
 1792               		.cfi_def_cfa_offset 5
 1793               		.cfi_offset 17, -4
 1794 0006 CF93      		push r28
 1795               	.LCFI45:
 1796               		.cfi_def_cfa_offset 6
 1797               		.cfi_offset 28, -5
 1798 0008 DF93      		push r29
 1799               	.LCFI46:
 1800               		.cfi_def_cfa_offset 7
 1801               		.cfi_offset 29, -6
 1802               	/* prologue: function */
 1803               	/* frame size = 0 */
 1804               	/* stack size = 5 */
 1805               	.L__stack_usage = 5
 1806 000a 162F      		mov r17,r22
 1807 000c EA01      		movw r28,r20
 1808 000e 7901      		movw r14,r18
 121:/home/shum/qmk_firmware/keyboards/splitography/keymaps/beaklsi/common/keycode_functions.c ****     key_timer = timer_read();
 1809               		.loc 1 121 0
 1810 0010 FC01      		movw r30,r24
 1811 0012 8281      		ldd r24,Z+2
 1812               	.LVL224:
 1813 0014 8823      		tst r24
 1814 0016 01F0      		breq .L135
 122:/home/shum/qmk_firmware/keyboards/splitography/keymaps/beaklsi/common/keycode_functions.c ****     if (modifier2) { register_code(modifier2); }
 1815               		.loc 1 122 0
 1816 0018 0E94 0000 		call timer_read
 1817               	.LVL225:
 1818 001c 9093 0000 		sts key_timer+1,r25
 1819 0020 8093 0000 		sts key_timer,r24
 123:/home/shum/qmk_firmware/keyboards/splitography/keymaps/beaklsi/common/keycode_functions.c ****     register_code(modifier);
 1820               		.loc 1 123 0
 1821 0024 2097      		sbiw r28,0
 1822 0026 01F0      		breq .L136
 123:/home/shum/qmk_firmware/keyboards/splitography/keymaps/beaklsi/common/keycode_functions.c ****     register_code(modifier);
 1823               		.loc 1 123 0 is_stmt 0 discriminator 1
 1824 0028 8C2F      		mov r24,r28
 1825 002a 0E94 0000 		call register_code
 1826               	.LVL226:
 1827               	.L136:
 124:/home/shum/qmk_firmware/keyboards/splitography/keymaps/beaklsi/common/keycode_functions.c ****   }
 1828               		.loc 1 124 0 is_stmt 1
 1829 002e 812F      		mov r24,r17
 1830               	/* epilogue start */
 132:/home/shum/qmk_firmware/keyboards/splitography/keymaps/beaklsi/common/keycode_functions.c **** 
 1831               		.loc 1 132 0
 1832 0030 DF91      		pop r29
 1833 0032 CF91      		pop r28
 1834               	.LVL227:
 1835 0034 1F91      		pop r17
 1836 0036 FF90      		pop r15
 1837 0038 EF90      		pop r14
 1838               	.LVL228:
 124:/home/shum/qmk_firmware/keyboards/splitography/keymaps/beaklsi/common/keycode_functions.c ****   }
 1839               		.loc 1 124 0
 1840 003a 0C94 0000 		jmp register_code
 1841               	.LVL229:
 1842               	.L135:
 127:/home/shum/qmk_firmware/keyboards/splitography/keymaps/beaklsi/common/keycode_functions.c ****     if (modifier2)                               { unregister_code(modifier2); }
 1843               		.loc 1 127 0
 1844 003e 862F      		mov r24,r22
 1845 0040 0E94 0000 		call unregister_code
 1846               	.LVL230:
 128:/home/shum/qmk_firmware/keyboards/splitography/keymaps/beaklsi/common/keycode_functions.c ****     if (timer_elapsed(key_timer) < TAPPING_TERM) { tap_shift(keycode); }
 1847               		.loc 1 128 0
 1848 0044 2097      		sbiw r28,0
 1849 0046 01F0      		breq .L137
 128:/home/shum/qmk_firmware/keyboards/splitography/keymaps/beaklsi/common/keycode_functions.c ****     if (timer_elapsed(key_timer) < TAPPING_TERM) { tap_shift(keycode); }
 1850               		.loc 1 128 0 is_stmt 0 discriminator 1
 1851 0048 8C2F      		mov r24,r28
 1852 004a 0E94 0000 		call unregister_code
 1853               	.LVL231:
 1854               	.L137:
 129:/home/shum/qmk_firmware/keyboards/splitography/keymaps/beaklsi/common/keycode_functions.c ****     key_timer = 0;
 1855               		.loc 1 129 0 is_stmt 1
 1856 004e 8091 0000 		lds r24,key_timer
 1857 0052 9091 0000 		lds r25,key_timer+1
 1858 0056 0E94 0000 		call timer_elapsed
 1859               	.LVL232:
 1860 005a 883C      		cpi r24,-56
 1861 005c 9105      		cpc r25,__zero_reg__
 1862 005e 00F4      		brsh .L138
 129:/home/shum/qmk_firmware/keyboards/splitography/keymaps/beaklsi/common/keycode_functions.c ****     key_timer = 0;
 1863               		.loc 1 129 0 is_stmt 0 discriminator 1
 1864 0060 C701      		movw r24,r14
 1865 0062 0E94 0000 		call tap_shift
 1866               	.LVL233:
 1867               	.L138:
 130:/home/shum/qmk_firmware/keyboards/splitography/keymaps/beaklsi/common/keycode_functions.c ****   }
 1868               		.loc 1 130 0 is_stmt 1
 1869 0066 1092 0000 		sts key_timer+1,__zero_reg__
 1870 006a 1092 0000 		sts key_timer,__zero_reg__
 1871               	/* epilogue start */
 132:/home/shum/qmk_firmware/keyboards/splitography/keymaps/beaklsi/common/keycode_functions.c **** 
 1872               		.loc 1 132 0
 1873 006e DF91      		pop r29
 1874 0070 CF91      		pop r28
 1875               	.LVL234:
 1876 0072 1F91      		pop r17
 1877 0074 FF90      		pop r15
 1878 0076 EF90      		pop r14
 1879               	.LVL235:
 1880 0078 0895      		ret
 1881               		.cfi_endproc
 1882               	.LFE121:
 1884               		.section	.text.map_shift,"ax",@progbits
 1885               	.global	map_shift
 1887               	map_shift:
 1888               	.LFB122:
 138:/home/shum/qmk_firmware/keyboards/splitography/keymaps/beaklsi/common/keycode_functions.c ****   // if modifier and only shift modifier and base layer..
 1889               		.loc 1 138 0
 1890               		.cfi_startproc
 1891               	.LVL236:
 1892 0000 EF92      		push r14
 1893               	.LCFI47:
 1894               		.cfi_def_cfa_offset 3
 1895               		.cfi_offset 14, -2
 1896 0002 FF92      		push r15
 1897               	.LCFI48:
 1898               		.cfi_def_cfa_offset 4
 1899               		.cfi_offset 15, -3
 1900 0004 0F93      		push r16
 1901               	.LCFI49:
 1902               		.cfi_def_cfa_offset 5
 1903               		.cfi_offset 16, -4
 1904 0006 1F93      		push r17
 1905               	.LCFI50:
 1906               		.cfi_def_cfa_offset 6
 1907               		.cfi_offset 17, -5
 1908 0008 CF93      		push r28
 1909               	.LCFI51:
 1910               		.cfi_def_cfa_offset 7
 1911               		.cfi_offset 28, -6
 1912 000a DF93      		push r29
 1913               	.LCFI52:
 1914               		.cfi_def_cfa_offset 8
 1915               		.cfi_offset 29, -7
 1916               	/* prologue: function */
 1917               	/* frame size = 0 */
 1918               	/* stack size = 6 */
 1919               	.L__stack_usage = 6
 1920 000c 7C01      		movw r14,r24
 1921 000e CB01      		movw r24,r22
 1922               	.LVL237:
 1923 0010 D42F      		mov r29,r20
 1924 0012 122F      		mov r17,r18
 140:/home/shum/qmk_firmware/keyboards/splitography/keymaps/beaklsi/common/keycode_functions.c ****     if (record->event.pressed) {
 1925               		.loc 1 140 0
 1926 0014 0E94 0000 		call on_shift
 1927               	.LVL238:
 1928 0018 C82F      		mov r28,r24
 1929 001a 8823      		tst r24
 1930 001c 01F0      		breq .L145
 141:/home/shum/qmk_firmware/keyboards/splitography/keymaps/beaklsi/common/keycode_functions.c ****       if (!shift) { unregister_code(KC_LSFT); } // in event of unshifted keycode
 1931               		.loc 1 141 0
 1932 001e F701      		movw r30,r14
 1933 0020 0281      		ldd r16,Z+2
 1934 0022 0023      		tst r16
 1935 0024 01F0      		breq .L147
 142:/home/shum/qmk_firmware/keyboards/splitography/keymaps/beaklsi/common/keycode_functions.c ****       register_code(keycode);
 1936               		.loc 1 142 0
 1937 0026 D111      		cpse r29,__zero_reg__
 1938 0028 00C0      		rjmp .L148
 142:/home/shum/qmk_firmware/keyboards/splitography/keymaps/beaklsi/common/keycode_functions.c ****       register_code(keycode);
 1939               		.loc 1 142 0 is_stmt 0 discriminator 1
 1940 002a 81EE      		ldi r24,lo8(-31)
 1941 002c 0E94 0000 		call unregister_code
 1942               	.LVL239:
 1943               	.L148:
 143:/home/shum/qmk_firmware/keyboards/splitography/keymaps/beaklsi/common/keycode_functions.c ****     }
 1944               		.loc 1 143 0 is_stmt 1
 1945 0030 812F      		mov r24,r17
 1946 0032 0E94 0000 		call register_code
 1947               	.LVL240:
 149:/home/shum/qmk_firmware/keyboards/splitography/keymaps/beaklsi/common/keycode_functions.c ****   }
 1948               		.loc 1 149 0
 1949 0036 C02F      		mov r28,r16
 1950               	.L145:
 152:/home/shum/qmk_firmware/keyboards/splitography/keymaps/beaklsi/common/keycode_functions.c **** 
 1951               		.loc 1 152 0
 1952 0038 8C2F      		mov r24,r28
 1953               	/* epilogue start */
 1954 003a DF91      		pop r29
 1955               	.LVL241:
 1956 003c CF91      		pop r28
 1957 003e 1F91      		pop r17
 1958 0040 0F91      		pop r16
 1959 0042 FF90      		pop r15
 1960 0044 EF90      		pop r14
 1961               	.LVL242:
 1962 0046 0895      		ret
 1963               	.LVL243:
 1964               	.L147:
 146:/home/shum/qmk_firmware/keyboards/splitography/keymaps/beaklsi/common/keycode_functions.c ****       if (!shift) { register_code(KC_LSFT); }   // restore SFT_T
 1965               		.loc 1 146 0
 1966 0048 812F      		mov r24,r17
 1967 004a 0E94 0000 		call unregister_code
 1968               	.LVL244:
 147:/home/shum/qmk_firmware/keyboards/splitography/keymaps/beaklsi/common/keycode_functions.c ****     }
 1969               		.loc 1 147 0
 1970 004e D111      		cpse r29,__zero_reg__
 1971 0050 00C0      		rjmp .L145
 147:/home/shum/qmk_firmware/keyboards/splitography/keymaps/beaklsi/common/keycode_functions.c ****     }
 1972               		.loc 1 147 0 is_stmt 0 discriminator 1
 1973 0052 81EE      		ldi r24,lo8(-31)
 1974 0054 0E94 0000 		call register_code
 1975               	.LVL245:
 1976 0058 00C0      		rjmp .L145
 1977               		.cfi_endproc
 1978               	.LFE122:
 1980               		.section	.text.double_shift,"ax",@progbits
 1981               	.global	double_shift
 1983               	double_shift:
 1984               	.LFB123:
 184:/home/shum/qmk_firmware/keyboards/splitography/keymaps/beaklsi/common/keycode_functions.c ****   tap_key (keycode);
 1985               		.loc 1 184 0 is_stmt 1
 1986               		.cfi_startproc
 1987               	.LVL246:
 1988               	/* prologue: function */
 1989               	/* frame size = 0 */
 1990               	/* stack size = 0 */
 1991               	.L__stack_usage = 0
 185:/home/shum/qmk_firmware/keyboards/splitography/keymaps/beaklsi/common/keycode_functions.c ****   if (DT_SHIFT) {
 1992               		.loc 1 185 0
 1993 0000 0E94 0000 		call tap_key
 1994               	.LVL247:
 189:/home/shum/qmk_firmware/keyboards/splitography/keymaps/beaklsi/common/keycode_functions.c ****     set_oneshot_layer(_SHIFT, ONESHOT_START);
 1995               		.loc 1 189 0
 1996 0004 81E0      		ldi r24,lo8(1)
 1997 0006 0E94 0000 		call layer_on
 1998               	.LVL248:
 190:/home/shum/qmk_firmware/keyboards/splitography/keymaps/beaklsi/common/keycode_functions.c ****     dt_shift = 1;
 1999               		.loc 1 190 0
 2000 000a 63E0      		ldi r22,lo8(3)
 2001 000c 81E0      		ldi r24,lo8(1)
 2002 000e 0E94 0000 		call set_oneshot_layer
 2003               	.LVL249:
 191:/home/shum/qmk_firmware/keyboards/splitography/keymaps/beaklsi/common/keycode_functions.c ****   }
 2004               		.loc 1 191 0
 2005 0012 81E0      		ldi r24,lo8(1)
 2006 0014 8093 0000 		sts dt_shift,r24
 2007               	/* epilogue start */
 194:/home/shum/qmk_firmware/keyboards/splitography/keymaps/beaklsi/common/keycode_functions.c **** 
 2008               		.loc 1 194 0
 2009 0018 0895      		ret
 2010               		.cfi_endproc
 2011               	.LFE123:
 2013               		.section	.text.cap_lt,"ax",@progbits
 2014               	.global	cap_lt
 2016               	cap_lt:
 2017               	.LFB124:
 200:/home/shum/qmk_firmware/keyboards/splitography/keymaps/beaklsi/common/keycode_functions.c ****   if (auto_cap) {                           // sentence/paragraph capitalization
 2018               		.loc 1 200 0
 2019               		.cfi_startproc
 2020               	.LVL250:
 2021 0000 DF92      		push r13
 2022               	.LCFI53:
 2023               		.cfi_def_cfa_offset 3
 2024               		.cfi_offset 13, -2
 2025 0002 EF92      		push r14
 2026               	.LCFI54:
 2027               		.cfi_def_cfa_offset 4
 2028               		.cfi_offset 14, -3
 2029 0004 FF92      		push r15
 2030               	.LCFI55:
 2031               		.cfi_def_cfa_offset 5
 2032               		.cfi_offset 15, -4
 2033 0006 0F93      		push r16
 2034               	.LCFI56:
 2035               		.cfi_def_cfa_offset 6
 2036               		.cfi_offset 16, -5
 2037 0008 1F93      		push r17
 2038               	.LCFI57:
 2039               		.cfi_def_cfa_offset 7
 2040               		.cfi_offset 17, -6
 2041 000a CF93      		push r28
 2042               	.LCFI58:
 2043               		.cfi_def_cfa_offset 8
 2044               		.cfi_offset 28, -7
 2045 000c DF93      		push r29
 2046               	.LCFI59:
 2047               		.cfi_def_cfa_offset 9
 2048               		.cfi_offset 29, -8
 2049               	/* prologue: function */
 2050               	/* frame size = 0 */
 2051               	/* stack size = 7 */
 2052               	.L__stack_usage = 7
 2053 000e EC01      		movw r28,r24
 2054 0010 F62E      		mov r15,r22
 2055 0012 D72E      		mov r13,r23
 2056 0014 E42E      		mov r14,r20
 2057 0016 8F81      		ldd r24,Y+7
 2058               	.LVL251:
 201:/home/shum/qmk_firmware/keyboards/splitography/keymaps/beaklsi/common/keycode_functions.c ****     if (state->pressed)                                    { return; }
 2059               		.loc 1 201 0
 2060 0018 9091 0000 		lds r25,auto_cap
 2061 001c 9923      		tst r25
 2062 001e 01F0      		breq .L154
 202:/home/shum/qmk_firmware/keyboards/splitography/keymaps/beaklsi/common/keycode_functions.c ****     if ((state->count > 1) && (state->count == paragraph)) { tap_key(leader); }
 2063               		.loc 1 202 0
 2064 0020 8111      		cpse r24,__zero_reg__
 2065 0022 00C0      		rjmp .L153
 203:/home/shum/qmk_firmware/keyboards/splitography/keymaps/beaklsi/common/keycode_functions.c ****     double_shift(leader, layer);            // discard excess taps!
 2066               		.loc 1 203 0
 2067 0024 8881      		ld r24,Y
 2068 0026 8230      		cpi r24,lo8(2)
 2069 0028 00F0      		brlo .L157
 203:/home/shum/qmk_firmware/keyboards/splitography/keymaps/beaklsi/common/keycode_functions.c ****     double_shift(leader, layer);            // discard excess taps!
 2070               		.loc 1 203 0 is_stmt 0 discriminator 1
 2071 002a 8213      		cpse r24,r18
 2072 002c 00C0      		rjmp .L157
 203:/home/shum/qmk_firmware/keyboards/splitography/keymaps/beaklsi/common/keycode_functions.c ****     double_shift(leader, layer);            // discard excess taps!
 2073               		.loc 1 203 0 discriminator 2
 2074 002e C801      		movw r24,r16
 2075 0030 0E94 0000 		call tap_key
 2076               	.LVL252:
 2077               	.L157:
 204:/home/shum/qmk_firmware/keyboards/splitography/keymaps/beaklsi/common/keycode_functions.c ****   }
 2078               		.loc 1 204 0 is_stmt 1
 2079 0034 6E2D      		mov r22,r14
 2080 0036 C801      		movw r24,r16
 2081               	/* epilogue start */
 208:/home/shum/qmk_firmware/keyboards/splitography/keymaps/beaklsi/common/keycode_functions.c **** 
 2082               		.loc 1 208 0
 2083 0038 DF91      		pop r29
 2084 003a CF91      		pop r28
 2085               	.LVL253:
 2086 003c 1F91      		pop r17
 2087 003e 0F91      		pop r16
 2088               	.LVL254:
 2089 0040 FF90      		pop r15
 2090 0042 EF90      		pop r14
 2091               	.LVL255:
 2092 0044 DF90      		pop r13
 204:/home/shum/qmk_firmware/keyboards/splitography/keymaps/beaklsi/common/keycode_functions.c ****   }
 2093               		.loc 1 204 0
 2094 0046 0C94 0000 		jmp double_shift
 2095               	.LVL256:
 2096               	.L154:
 206:/home/shum/qmk_firmware/keyboards/splitography/keymaps/beaklsi/common/keycode_functions.c ****   else for (i = 0; i < state->count; i++) { tap_key(keycode); }
 2097               		.loc 1 206 0
 2098 004a 8823      		tst r24
 2099 004c 01F0      		breq .L158
 206:/home/shum/qmk_firmware/keyboards/splitography/keymaps/beaklsi/common/keycode_functions.c ****   else for (i = 0; i < state->count; i++) { tap_key(keycode); }
 2100               		.loc 1 206 0 is_stmt 0 discriminator 1
 2101 004e 8881      		ld r24,Y
 2102 0050 8130      		cpi r24,lo8(1)
 2103 0052 01F4      		brne .L159
 206:/home/shum/qmk_firmware/keyboards/splitography/keymaps/beaklsi/common/keycode_functions.c ****   else for (i = 0; i < state->count; i++) { tap_key(keycode); }
 2104               		.loc 1 206 0 discriminator 2
 2105 0054 842F      		mov r24,r20
 2106               	/* epilogue start */
 208:/home/shum/qmk_firmware/keyboards/splitography/keymaps/beaklsi/common/keycode_functions.c **** 
 2107               		.loc 1 208 0 is_stmt 1 discriminator 2
 2108 0056 DF91      		pop r29
 2109 0058 CF91      		pop r28
 2110               	.LVL257:
 2111 005a 1F91      		pop r17
 2112 005c 0F91      		pop r16
 2113               	.LVL258:
 2114 005e FF90      		pop r15
 2115 0060 EF90      		pop r14
 2116               	.LVL259:
 2117 0062 DF90      		pop r13
 206:/home/shum/qmk_firmware/keyboards/splitography/keymaps/beaklsi/common/keycode_functions.c ****   else for (i = 0; i < state->count; i++) { tap_key(keycode); }
 2118               		.loc 1 206 0 discriminator 2
 2119 0064 0C94 0000 		jmp layer_on
 2120               	.LVL260:
 2121               	.L159:
 206:/home/shum/qmk_firmware/keyboards/splitography/keymaps/beaklsi/common/keycode_functions.c ****   else for (i = 0; i < state->count; i++) { tap_key(keycode); }
 2122               		.loc 1 206 0 is_stmt 0 discriminator 3
 2123 0068 862F      		mov r24,r22
 2124               	/* epilogue start */
 208:/home/shum/qmk_firmware/keyboards/splitography/keymaps/beaklsi/common/keycode_functions.c **** 
 2125               		.loc 1 208 0 is_stmt 1 discriminator 3
 2126 006a DF91      		pop r29
 2127 006c CF91      		pop r28
 2128               	.LVL261:
 2129 006e 1F91      		pop r17
 2130 0070 0F91      		pop r16
 2131               	.LVL262:
 2132 0072 FF90      		pop r15
 2133 0074 EF90      		pop r14
 2134               	.LVL263:
 2135 0076 DF90      		pop r13
 206:/home/shum/qmk_firmware/keyboards/splitography/keymaps/beaklsi/common/keycode_functions.c ****   else for (i = 0; i < state->count; i++) { tap_key(keycode); }
 2136               		.loc 1 206 0 discriminator 3
 2137 0078 0C94 0000 		jmp register_code
 2138               	.LVL264:
 2139               	.L158:
 207:/home/shum/qmk_firmware/keyboards/splitography/keymaps/beaklsi/common/keycode_functions.c **** }
 2140               		.loc 1 207 0
 2141 007c 1092 0000 		sts i,__zero_reg__
 2142               	.LVL265:
 2143               	.L160:
 207:/home/shum/qmk_firmware/keyboards/splitography/keymaps/beaklsi/common/keycode_functions.c **** }
 2144               		.loc 1 207 0 is_stmt 0 discriminator 1
 2145 0080 9881      		ld r25,Y
 2146 0082 8091 0000 		lds r24,i
 2147 0086 8917      		cp r24,r25
 2148 0088 00F0      		brlo .L161
 2149               	.L153:
 2150               	/* epilogue start */
 208:/home/shum/qmk_firmware/keyboards/splitography/keymaps/beaklsi/common/keycode_functions.c **** 
 2151               		.loc 1 208 0 is_stmt 1
 2152 008a DF91      		pop r29
 2153 008c CF91      		pop r28
 2154               	.LVL266:
 2155 008e 1F91      		pop r17
 2156 0090 0F91      		pop r16
 2157               	.LVL267:
 2158 0092 FF90      		pop r15
 2159 0094 EF90      		pop r14
 2160               	.LVL268:
 2161 0096 DF90      		pop r13
 2162 0098 0895      		ret
 2163               	.LVL269:
 2164               	.L161:
 207:/home/shum/qmk_firmware/keyboards/splitography/keymaps/beaklsi/common/keycode_functions.c **** }
 2165               		.loc 1 207 0 discriminator 3
 2166 009a 8F2D      		mov r24,r15
 2167 009c 9D2D      		mov r25,r13
 2168 009e 0E94 0000 		call tap_key
 2169               	.LVL270:
 2170 00a2 8091 0000 		lds r24,i
 2171 00a6 8F5F      		subi r24,lo8(-(1))
 2172 00a8 8093 0000 		sts i,r24
 2173 00ac 00C0      		rjmp .L160
 2174               		.cfi_endproc
 2175               	.LFE124:
 2177               		.section	.text.backspace,"ax",@progbits
 2178               	.global	backspace
 2180               	backspace:
 2181               	.LFB126:
 223:/home/shum/qmk_firmware/keyboards/splitography/keymaps/beaklsi/common/keycode_functions.c ****   cap_lt(state, KC_BSPC, _EDIT, PARAGRAPH, KC_ENT); // double tap -> double enter + shift, down -> 
 2182               		.loc 1 223 0
 2183               		.cfi_startproc
 2184               	.LVL271:
 2185 0000 0F93      		push r16
 2186               	.LCFI60:
 2187               		.cfi_def_cfa_offset 3
 2188               		.cfi_offset 16, -2
 2189 0002 1F93      		push r17
 2190               	.LCFI61:
 2191               		.cfi_def_cfa_offset 4
 2192               		.cfi_offset 17, -3
 2193               	/* prologue: function */
 2194               	/* frame size = 0 */
 2195               	/* stack size = 2 */
 2196               	.L__stack_usage = 2
 224:/home/shum/qmk_firmware/keyboards/splitography/keymaps/beaklsi/common/keycode_functions.c **** }
 2197               		.loc 1 224 0
 2198 0004 08E2      		ldi r16,lo8(40)
 2199 0006 10E0      		ldi r17,0
 2200 0008 22E0      		ldi r18,lo8(2)
 2201 000a 48E0      		ldi r20,lo8(8)
 2202 000c 6AE2      		ldi r22,lo8(42)
 2203 000e 70E0      		ldi r23,0
 2204               	.LVL272:
 2205 0010 0E94 0000 		call cap_lt
 2206               	.LVL273:
 2207               	/* epilogue start */
 225:/home/shum/qmk_firmware/keyboards/splitography/keymaps/beaklsi/common/keycode_functions.c **** 
 2208               		.loc 1 225 0
 2209 0014 1F91      		pop r17
 2210 0016 0F91      		pop r16
 2211 0018 0895      		ret
 2212               		.cfi_endproc
 2213               	.LFE126:
 2215               		.section	.text.space,"ax",@progbits
 2216               	.global	space
 2218               	space:
 2219               	.LFB128:
 234:/home/shum/qmk_firmware/keyboards/splitography/keymaps/beaklsi/common/keycode_functions.c ****   cap_lt(state, KC_SPC, _GUIFN, SENTENCE, KC_SPC); // double tap down -> space...
 2220               		.loc 1 234 0
 2221               		.cfi_startproc
 2222               	.LVL274:
 2223 0000 0F93      		push r16
 2224               	.LCFI62:
 2225               		.cfi_def_cfa_offset 3
 2226               		.cfi_offset 16, -2
 2227 0002 1F93      		push r17
 2228               	.LCFI63:
 2229               		.cfi_def_cfa_offset 4
 2230               		.cfi_offset 17, -3
 2231               	/* prologue: function */
 2232               	/* frame size = 0 */
 2233               	/* stack size = 2 */
 2234               	.L__stack_usage = 2
 235:/home/shum/qmk_firmware/keyboards/splitography/keymaps/beaklsi/common/keycode_functions.c **** }
 2235               		.loc 1 235 0
 2236 0004 0CE2      		ldi r16,lo8(44)
 2237 0006 10E0      		ldi r17,0
 2238 0008 20E0      		ldi r18,0
 2239 000a 42E0      		ldi r20,lo8(2)
 2240 000c 6CE2      		ldi r22,lo8(44)
 2241 000e 70E0      		ldi r23,0
 2242               	.LVL275:
 2243 0010 0E94 0000 		call cap_lt
 2244               	.LVL276:
 2245               	/* epilogue start */
 236:/home/shum/qmk_firmware/keyboards/splitography/keymaps/beaklsi/common/keycode_functions.c **** 
 2246               		.loc 1 236 0
 2247 0014 1F91      		pop r17
 2248 0016 0F91      		pop r16
 2249 0018 0895      		ret
 2250               		.cfi_endproc
 2251               	.LFE128:
 2253               		.section	.text.tap_reset,"ax",@progbits
 2254               	.global	tap_reset
 2256               	tap_reset:
 2257               	.LFB125:
 211:/home/shum/qmk_firmware/keyboards/splitography/keymaps/beaklsi/common/keycode_functions.c ****   unregister_code(keycode);
 2258               		.loc 1 211 0
 2259               		.cfi_startproc
 2260               	.LVL277:
 2261 0000 CF93      		push r28
 2262               	.LCFI64:
 2263               		.cfi_def_cfa_offset 3
 2264               		.cfi_offset 28, -2
 2265               	/* prologue: function */
 2266               	/* frame size = 0 */
 2267               	/* stack size = 1 */
 2268               	.L__stack_usage = 1
 2269 0002 C62F      		mov r28,r22
 212:/home/shum/qmk_firmware/keyboards/splitography/keymaps/beaklsi/common/keycode_functions.c ****   dt_shift ? clear_oneshot_layer_state(ONESHOT_PRESSED) : layer_off(layer);
 2270               		.loc 1 212 0
 2271 0004 0E94 0000 		call unregister_code
 2272               	.LVL278:
 213:/home/shum/qmk_firmware/keyboards/splitography/keymaps/beaklsi/common/keycode_functions.c ****   dt_shift = 0;
 2273               		.loc 1 213 0
 2274 0008 8091 0000 		lds r24,dt_shift
 2275 000c 8823      		tst r24
 2276 000e 01F0      		breq .L166
 213:/home/shum/qmk_firmware/keyboards/splitography/keymaps/beaklsi/common/keycode_functions.c ****   dt_shift = 0;
 2277               		.loc 1 213 0 is_stmt 0 discriminator 1
 2278 0010 81E0      		ldi r24,lo8(1)
 2279 0012 0E94 0000 		call clear_oneshot_layer_state
 2280               	.LVL279:
 2281               	.L167:
 214:/home/shum/qmk_firmware/keyboards/splitography/keymaps/beaklsi/common/keycode_functions.c ****   auto_cap = 0;                             // clear retained down_rule, see process_record_user()
 2282               		.loc 1 214 0 is_stmt 1
 2283 0016 1092 0000 		sts dt_shift,__zero_reg__
 215:/home/shum/qmk_firmware/keyboards/splitography/keymaps/beaklsi/common/keycode_functions.c **** }
 2284               		.loc 1 215 0
 2285 001a 1092 0000 		sts auto_cap,__zero_reg__
 2286               	/* epilogue start */
 216:/home/shum/qmk_firmware/keyboards/splitography/keymaps/beaklsi/common/keycode_functions.c **** 
 2287               		.loc 1 216 0
 2288 001e CF91      		pop r28
 2289               	.LVL280:
 2290 0020 0895      		ret
 2291               	.LVL281:
 2292               	.L166:
 213:/home/shum/qmk_firmware/keyboards/splitography/keymaps/beaklsi/common/keycode_functions.c ****   dt_shift = 0;
 2293               		.loc 1 213 0 discriminator 2
 2294 0022 8C2F      		mov r24,r28
 2295 0024 0E94 0000 		call layer_off
 2296               	.LVL282:
 2297 0028 00C0      		rjmp .L167
 2298               		.cfi_endproc
 2299               	.LFE125:
 2301               		.section	.text.backspace_reset,"ax",@progbits
 2302               	.global	backspace_reset
 2304               	backspace_reset:
 2305               	.LFB127:
 228:/home/shum/qmk_firmware/keyboards/splitography/keymaps/beaklsi/common/keycode_functions.c ****   tap_reset(KC_BSPC, _EDIT);
 2306               		.loc 1 228 0
 2307               		.cfi_startproc
 2308               	.LVL283:
 2309               	/* prologue: function */
 2310               	/* frame size = 0 */
 2311               	/* stack size = 0 */
 2312               	.L__stack_usage = 0
 229:/home/shum/qmk_firmware/keyboards/splitography/keymaps/beaklsi/common/keycode_functions.c **** }
 2313               		.loc 1 229 0
 2314 0000 68E0      		ldi r22,lo8(8)
 2315               	.LVL284:
 2316 0002 8AE2      		ldi r24,lo8(42)
 2317 0004 90E0      		ldi r25,0
 2318               	.LVL285:
 2319 0006 0C94 0000 		jmp tap_reset
 2320               	.LVL286:
 2321               		.cfi_endproc
 2322               	.LFE127:
 2324               		.section	.text.space_reset,"ax",@progbits
 2325               	.global	space_reset
 2327               	space_reset:
 2328               	.LFB129:
 239:/home/shum/qmk_firmware/keyboards/splitography/keymaps/beaklsi/common/keycode_functions.c ****   tap_reset(KC_SPC, _GUIFN);
 2329               		.loc 1 239 0
 2330               		.cfi_startproc
 2331               	.LVL287:
 2332               	/* prologue: function */
 2333               	/* frame size = 0 */
 2334               	/* stack size = 0 */
 2335               	.L__stack_usage = 0
 240:/home/shum/qmk_firmware/keyboards/splitography/keymaps/beaklsi/common/keycode_functions.c **** }
 2336               		.loc 1 240 0
 2337 0000 62E0      		ldi r22,lo8(2)
 2338               	.LVL288:
 2339 0002 8CE2      		ldi r24,lo8(44)
 2340 0004 90E0      		ldi r25,0
 2341               	.LVL289:
 2342 0006 0C94 0000 		jmp tap_reset
 2343               	.LVL290:
 2344               		.cfi_endproc
 2345               	.LFE129:
 2347               		.section	.text.clear_layers,"ax",@progbits
 2348               	.global	clear_layers
 2350               	clear_layers:
 2351               	.LFB151:
 420:/home/shum/qmk_firmware/keyboards/splitography/keymaps/beaklsi/common/keycode_functions.c **** 
 421:/home/shum/qmk_firmware/keyboards/splitography/keymaps/beaklsi/common/keycode_functions.c **** // Layers
 422:/home/shum/qmk_firmware/keyboards/splitography/keymaps/beaklsi/common/keycode_functions.c **** // ▔▔▔▔▔▔▔▔▔▔▔▔▔▔▔▔▔▔▔▔▔▔▔▔▔▔▔▔▔▔▔▔
 423:/home/shum/qmk_firmware/keyboards/splitography/keymaps/beaklsi/common/keycode_functions.c **** 
 424:/home/shum/qmk_firmware/keyboards/splitography/keymaps/beaklsi/common/keycode_functions.c **** // ............................................................ Layer Primitives
 425:/home/shum/qmk_firmware/keyboards/splitography/keymaps/beaklsi/common/keycode_functions.c **** 
 426:/home/shum/qmk_firmware/keyboards/splitography/keymaps/beaklsi/common/keycode_functions.c **** // void persistant_default_layer_set(uint16_t default_layer)
 427:/home/shum/qmk_firmware/keyboards/splitography/keymaps/beaklsi/common/keycode_functions.c **** // {
 428:/home/shum/qmk_firmware/keyboards/splitography/keymaps/beaklsi/common/keycode_functions.c **** //   eeconfig_update_default_layer(default_layer);
 429:/home/shum/qmk_firmware/keyboards/splitography/keymaps/beaklsi/common/keycode_functions.c **** //   default_layer_set            (default_layer);
 430:/home/shum/qmk_firmware/keyboards/splitography/keymaps/beaklsi/common/keycode_functions.c **** // }
 431:/home/shum/qmk_firmware/keyboards/splitography/keymaps/beaklsi/common/keycode_functions.c **** 
 432:/home/shum/qmk_firmware/keyboards/splitography/keymaps/beaklsi/common/keycode_functions.c **** void clear_layers(void)
 433:/home/shum/qmk_firmware/keyboards/splitography/keymaps/beaklsi/common/keycode_functions.c **** {
 2352               		.loc 1 433 0
 2353               		.cfi_startproc
 2354               	/* prologue: function */
 2355               	/* frame size = 0 */
 2356               	/* stack size = 0 */
 2357               	.L__stack_usage = 0
 434:/home/shum/qmk_firmware/keyboards/splitography/keymaps/beaklsi/common/keycode_functions.c ****   for (i = 0; i < _END_LAYERS; i++) { layer_off(i); }
 2358               		.loc 1 434 0
 2359 0000 1092 0000 		sts i,__zero_reg__
 2360               	.L171:
 2361               		.loc 1 434 0 is_stmt 0 discriminator 1
 2362 0004 8091 0000 		lds r24,i
 2363 0008 8F30      		cpi r24,lo8(15)
 2364 000a 00F0      		brlo .L172
 435:/home/shum/qmk_firmware/keyboards/splitography/keymaps/beaklsi/common/keycode_functions.c ****   mods       = 0;
 2365               		.loc 1 435 0 is_stmt 1
 2366 000c 1092 0000 		sts mods,__zero_reg__
 436:/home/shum/qmk_firmware/keyboards/splitography/keymaps/beaklsi/common/keycode_functions.c ****   key_timer  = 0;
 2367               		.loc 1 436 0
 2368 0010 1092 0000 		sts key_timer+1,__zero_reg__
 2369 0014 1092 0000 		sts key_timer,__zero_reg__
 437:/home/shum/qmk_firmware/keyboards/splitography/keymaps/beaklsi/common/keycode_functions.c ****   dt_shift   = 0;
 2370               		.loc 1 437 0
 2371 0018 1092 0000 		sts dt_shift,__zero_reg__
 438:/home/shum/qmk_firmware/keyboards/splitography/keymaps/beaklsi/common/keycode_functions.c ****   tt_keycode = 0;
 2372               		.loc 1 438 0
 2373 001c 1092 0000 		sts tt_keycode+1,__zero_reg__
 2374 0020 1092 0000 		sts tt_keycode,__zero_reg__
 2375               	/* epilogue start */
 439:/home/shum/qmk_firmware/keyboards/splitography/keymaps/beaklsi/common/keycode_functions.c **** }
 2376               		.loc 1 439 0
 2377 0024 0895      		ret
 2378               	.L172:
 434:/home/shum/qmk_firmware/keyboards/splitography/keymaps/beaklsi/common/keycode_functions.c ****   mods       = 0;
 2379               		.loc 1 434 0 discriminator 3
 2380 0026 0E94 0000 		call layer_off
 2381               	.LVL291:
 2382 002a 8091 0000 		lds r24,i
 2383 002e 8F5F      		subi r24,lo8(-(1))
 2384 0030 8093 0000 		sts i,r24
 2385 0034 00C0      		rjmp .L171
 2386               		.cfi_endproc
 2387               	.LFE151:
 2389               		.section	.text.tap_layer,"ax",@progbits
 2390               	.global	tap_layer
 2392               	tap_layer:
 2393               	.LFB153:
 440:/home/shum/qmk_firmware/keyboards/splitography/keymaps/beaklsi/common/keycode_functions.c **** 
 441:/home/shum/qmk_firmware/keyboards/splitography/keymaps/beaklsi/common/keycode_functions.c **** void base_layer(uint8_t defer)
 442:/home/shum/qmk_firmware/keyboards/splitography/keymaps/beaklsi/common/keycode_functions.c **** {
 443:/home/shum/qmk_firmware/keyboards/splitography/keymaps/beaklsi/common/keycode_functions.c ****   if (defer) { return; }                    // see process_record_user() CNTR_TL, CNTR_TR
 444:/home/shum/qmk_firmware/keyboards/splitography/keymaps/beaklsi/common/keycode_functions.c **** #ifdef AUDIO_ENABLE
 445:/home/shum/qmk_firmware/keyboards/splitography/keymaps/beaklsi/common/keycode_functions.c ****   plover ? PLAY_SONG(song_plover_gb) : PLAY_SONG(song_qwerty);
 446:/home/shum/qmk_firmware/keyboards/splitography/keymaps/beaklsi/common/keycode_functions.c **** #endif
 447:/home/shum/qmk_firmware/keyboards/splitography/keymaps/beaklsi/common/keycode_functions.c ****   clear_layers();
 448:/home/shum/qmk_firmware/keyboards/splitography/keymaps/beaklsi/common/keycode_functions.c ****   set_single_persistent_default_layer(_BASE);
 449:/home/shum/qmk_firmware/keyboards/splitography/keymaps/beaklsi/common/keycode_functions.c ****   toggle_plover(0);
 450:/home/shum/qmk_firmware/keyboards/splitography/keymaps/beaklsi/common/keycode_functions.c **** }
 451:/home/shum/qmk_firmware/keyboards/splitography/keymaps/beaklsi/common/keycode_functions.c **** 
 452:/home/shum/qmk_firmware/keyboards/splitography/keymaps/beaklsi/common/keycode_functions.c **** // set layer asap to overcome macro latency errors, notably tap dance, LT usage and..
 453:/home/shum/qmk_firmware/keyboards/splitography/keymaps/beaklsi/common/keycode_functions.c **** // inexplicably sets layer_on() faster than can be done in rolling_layer()
 454:/home/shum/qmk_firmware/keyboards/splitography/keymaps/beaklsi/common/keycode_functions.c **** void tap_layer(keyrecord_t *record, uint8_t layer)
 455:/home/shum/qmk_firmware/keyboards/splitography/keymaps/beaklsi/common/keycode_functions.c **** {
 2394               		.loc 1 455 0
 2395               		.cfi_startproc
 2396               	.LVL292:
 2397               	/* prologue: function */
 2398               	/* frame size = 0 */
 2399               	/* stack size = 0 */
 2400               	.L__stack_usage = 0
 456:/home/shum/qmk_firmware/keyboards/splitography/keymaps/beaklsi/common/keycode_functions.c ****   record->event.pressed ? layer_on(layer) : layer_off(layer);
 2401               		.loc 1 456 0
 2402 0000 FC01      		movw r30,r24
 2403 0002 8281      		ldd r24,Z+2
 2404               	.LVL293:
 2405 0004 8823      		tst r24
 2406 0006 01F0      		breq .L174
 2407               		.loc 1 456 0 is_stmt 0 discriminator 1
 2408 0008 862F      		mov r24,r22
 2409 000a 0C94 0000 		jmp layer_on
 2410               	.LVL294:
 2411               	.L174:
 2412               		.loc 1 456 0 discriminator 2
 2413 000e 862F      		mov r24,r22
 2414 0010 0C94 0000 		jmp layer_off
 2415               	.LVL295:
 2416               		.cfi_endproc
 2417               	.LFE153:
 2419               		.section	.text.lt_shift,"ax",@progbits
 2420               	.global	lt_shift
 2422               	lt_shift:
 2423               	.LFB154:
 457:/home/shum/qmk_firmware/keyboards/splitography/keymaps/beaklsi/common/keycode_functions.c **** }
 458:/home/shum/qmk_firmware/keyboards/splitography/keymaps/beaklsi/common/keycode_functions.c **** 
 459:/home/shum/qmk_firmware/keyboards/splitography/keymaps/beaklsi/common/keycode_functions.c **** // extended LT macro for [shift] keycode layer
 460:/home/shum/qmk_firmware/keyboards/splitography/keymaps/beaklsi/common/keycode_functions.c **** void lt_shift(keyrecord_t *record, uint8_t shift, uint16_t keycode, uint8_t layer)
 461:/home/shum/qmk_firmware/keyboards/splitography/keymaps/beaklsi/common/keycode_functions.c **** {
 2424               		.loc 1 461 0 is_stmt 1
 2425               		.cfi_startproc
 2426               	.LVL296:
 2427 0000 0F93      		push r16
 2428               	.LCFI65:
 2429               		.cfi_def_cfa_offset 3
 2430               		.cfi_offset 16, -2
 2431 0002 1F93      		push r17
 2432               	.LCFI66:
 2433               		.cfi_def_cfa_offset 4
 2434               		.cfi_offset 17, -3
 2435 0004 CF93      		push r28
 2436               	.LCFI67:
 2437               		.cfi_def_cfa_offset 5
 2438               		.cfi_offset 28, -4
 2439 0006 DF93      		push r29
 2440               	.LCFI68:
 2441               		.cfi_def_cfa_offset 6
 2442               		.cfi_offset 29, -5
 2443               	/* prologue: function */
 2444               	/* frame size = 0 */
 2445               	/* stack size = 4 */
 2446               	.L__stack_usage = 4
 2447 0008 D62F      		mov r29,r22
 2448 000a 8A01      		movw r16,r20
 2449 000c C22F      		mov r28,r18
 462:/home/shum/qmk_firmware/keyboards/splitography/keymaps/beaklsi/common/keycode_functions.c ****   if (record->event.pressed) {
 2450               		.loc 1 462 0
 2451 000e FC01      		movw r30,r24
 2452 0010 8281      		ldd r24,Z+2
 2453               	.LVL297:
 2454 0012 8823      		tst r24
 2455 0014 01F0      		breq .L176
 463:/home/shum/qmk_firmware/keyboards/splitography/keymaps/beaklsi/common/keycode_functions.c ****     key_timer = timer_read();
 2456               		.loc 1 463 0
 2457 0016 0E94 0000 		call timer_read
 2458               	.LVL298:
 2459 001a 9093 0000 		sts key_timer+1,r25
 2460 001e 8093 0000 		sts key_timer,r24
 464:/home/shum/qmk_firmware/keyboards/splitography/keymaps/beaklsi/common/keycode_functions.c ****     layer_on(layer);
 2461               		.loc 1 464 0
 2462 0022 8C2F      		mov r24,r28
 2463               	/* epilogue start */
 465:/home/shum/qmk_firmware/keyboards/splitography/keymaps/beaklsi/common/keycode_functions.c ****   }
 466:/home/shum/qmk_firmware/keyboards/splitography/keymaps/beaklsi/common/keycode_functions.c ****   else {
 467:/home/shum/qmk_firmware/keyboards/splitography/keymaps/beaklsi/common/keycode_functions.c ****     layer_off(layer);
 468:/home/shum/qmk_firmware/keyboards/splitography/keymaps/beaklsi/common/keycode_functions.c ****     on_tap   (shift, keycode);              // for shifted keycodes, hence, LT_SHIFT
 469:/home/shum/qmk_firmware/keyboards/splitography/keymaps/beaklsi/common/keycode_functions.c ****     // clear_mods();
 470:/home/shum/qmk_firmware/keyboards/splitography/keymaps/beaklsi/common/keycode_functions.c ****     key_timer = 0;
 471:/home/shum/qmk_firmware/keyboards/splitography/keymaps/beaklsi/common/keycode_functions.c ****   }
 472:/home/shum/qmk_firmware/keyboards/splitography/keymaps/beaklsi/common/keycode_functions.c **** }
 2464               		.loc 1 472 0
 2465 0024 DF91      		pop r29
 2466               	.LVL299:
 2467 0026 CF91      		pop r28
 2468               	.LVL300:
 2469 0028 1F91      		pop r17
 2470 002a 0F91      		pop r16
 2471               	.LVL301:
 464:/home/shum/qmk_firmware/keyboards/splitography/keymaps/beaklsi/common/keycode_functions.c ****     layer_on(layer);
 2472               		.loc 1 464 0
 2473 002c 0C94 0000 		jmp layer_on
 2474               	.LVL302:
 2475               	.L176:
 467:/home/shum/qmk_firmware/keyboards/splitography/keymaps/beaklsi/common/keycode_functions.c ****     on_tap   (shift, keycode);              // for shifted keycodes, hence, LT_SHIFT
 2476               		.loc 1 467 0
 2477 0030 822F      		mov r24,r18
 2478 0032 0E94 0000 		call layer_off
 2479               	.LVL303:
 468:/home/shum/qmk_firmware/keyboards/splitography/keymaps/beaklsi/common/keycode_functions.c ****     // clear_mods();
 2480               		.loc 1 468 0
 2481 0036 B801      		movw r22,r16
 2482 0038 8D2F      		mov r24,r29
 2483 003a 0E94 0000 		call on_tap
 2484               	.LVL304:
 470:/home/shum/qmk_firmware/keyboards/splitography/keymaps/beaklsi/common/keycode_functions.c ****   }
 2485               		.loc 1 470 0
 2486 003e 1092 0000 		sts key_timer+1,__zero_reg__
 2487 0042 1092 0000 		sts key_timer,__zero_reg__
 2488               	/* epilogue start */
 2489               		.loc 1 472 0
 2490 0046 DF91      		pop r29
 2491               	.LVL305:
 2492 0048 CF91      		pop r28
 2493               	.LVL306:
 2494 004a 1F91      		pop r17
 2495 004c 0F91      		pop r16
 2496               	.LVL307:
 2497 004e 0895      		ret
 2498               		.cfi_endproc
 2499               	.LFE154:
 2501               		.section	.text.raise_layer,"ax",@progbits
 2502               	.global	raise_layer
 2504               	raise_layer:
 2505               	.LFB155:
 473:/home/shum/qmk_firmware/keyboards/splitography/keymaps/beaklsi/common/keycode_functions.c **** 
 474:/home/shum/qmk_firmware/keyboards/splitography/keymaps/beaklsi/common/keycode_functions.c **** // ............................................................ Double Key Layer
 475:/home/shum/qmk_firmware/keyboards/splitography/keymaps/beaklsi/common/keycode_functions.c **** 
 476:/home/shum/qmk_firmware/keyboards/splitography/keymaps/beaklsi/common/keycode_functions.c **** #define LEFT   1
 477:/home/shum/qmk_firmware/keyboards/splitography/keymaps/beaklsi/common/keycode_functions.c **** #define RIGHT  2
 478:/home/shum/qmk_firmware/keyboards/splitography/keymaps/beaklsi/common/keycode_functions.c **** #define ONDOWN 0
 479:/home/shum/qmk_firmware/keyboards/splitography/keymaps/beaklsi/common/keycode_functions.c **** #define TOGGLE 1
 480:/home/shum/qmk_firmware/keyboards/splitography/keymaps/beaklsi/common/keycode_functions.c **** 
 481:/home/shum/qmk_firmware/keyboards/splitography/keymaps/beaklsi/common/keycode_functions.c **** static uint8_t double_key = 0;
 482:/home/shum/qmk_firmware/keyboards/splitography/keymaps/beaklsi/common/keycode_functions.c **** 
 483:/home/shum/qmk_firmware/keyboards/splitography/keymaps/beaklsi/common/keycode_functions.c **** // dual key to raise layer (layer 0 to trap dual key state :-)
 484:/home/shum/qmk_firmware/keyboards/splitography/keymaps/beaklsi/common/keycode_functions.c **** bool raise_layer(keyrecord_t *record, uint8_t layer, uint8_t side, uint8_t toggle)
 485:/home/shum/qmk_firmware/keyboards/splitography/keymaps/beaklsi/common/keycode_functions.c **** {
 2506               		.loc 1 485 0
 2507               		.cfi_startproc
 2508               	.LVL308:
 2509 0000 CF93      		push r28
 2510               	.LCFI69:
 2511               		.cfi_def_cfa_offset 3
 2512               		.cfi_offset 28, -2
 2513               	/* prologue: function */
 2514               	/* frame size = 0 */
 2515               	/* stack size = 1 */
 2516               	.L__stack_usage = 1
 486:/home/shum/qmk_firmware/keyboards/splitography/keymaps/beaklsi/common/keycode_functions.c ****   if (record->event.pressed) {
 2517               		.loc 1 486 0
 2518 0002 FC01      		movw r30,r24
 2519 0004 C281      		ldd r28,Z+2
 2520 0006 8091 0000 		lds r24,double_key
 2521               	.LVL309:
 2522 000a CC23      		tst r28
 2523 000c 01F0      		breq .L178
 487:/home/shum/qmk_firmware/keyboards/splitography/keymaps/beaklsi/common/keycode_functions.c ****     double_key |= side;
 2524               		.loc 1 487 0
 2525 000e 482B      		or r20,r24
 2526               	.LVL310:
 2527 0010 4093 0000 		sts double_key,r20
 488:/home/shum/qmk_firmware/keyboards/splitography/keymaps/beaklsi/common/keycode_functions.c ****     if (double_key == (LEFT | RIGHT)) { 
 2528               		.loc 1 488 0
 2529 0014 4330      		cpi r20,lo8(3)
 2530 0016 01F0      		breq .L179
 2531               	.L182:
 489:/home/shum/qmk_firmware/keyboards/splitography/keymaps/beaklsi/common/keycode_functions.c ****       if (layer) { toggle ? layer_invert(layer) : layer_on(layer); }
 490:/home/shum/qmk_firmware/keyboards/splitography/keymaps/beaklsi/common/keycode_functions.c ****       return true;
 491:/home/shum/qmk_firmware/keyboards/splitography/keymaps/beaklsi/common/keycode_functions.c ****     }
 492:/home/shum/qmk_firmware/keyboards/splitography/keymaps/beaklsi/common/keycode_functions.c ****   }
 493:/home/shum/qmk_firmware/keyboards/splitography/keymaps/beaklsi/common/keycode_functions.c ****   else {
 494:/home/shum/qmk_firmware/keyboards/splitography/keymaps/beaklsi/common/keycode_functions.c ****     double_key &= ~side;
 495:/home/shum/qmk_firmware/keyboards/splitography/keymaps/beaklsi/common/keycode_functions.c ****     if (!(double_key || toggle)) { layer_off(layer); }  // allow single key to continue on layer :-
 496:/home/shum/qmk_firmware/keyboards/splitography/keymaps/beaklsi/common/keycode_functions.c ****   }
 497:/home/shum/qmk_firmware/keyboards/splitography/keymaps/beaklsi/common/keycode_functions.c ****   return false;
 2532               		.loc 1 497 0
 2533 0018 C0E0      		ldi r28,0
 2534               	.LVL311:
 2535               	.L177:
 498:/home/shum/qmk_firmware/keyboards/splitography/keymaps/beaklsi/common/keycode_functions.c **** }
 2536               		.loc 1 498 0
 2537 001a 8C2F      		mov r24,r28
 2538               	/* epilogue start */
 2539 001c CF91      		pop r28
 2540 001e 0895      		ret
 2541               	.LVL312:
 2542               	.L179:
 489:/home/shum/qmk_firmware/keyboards/splitography/keymaps/beaklsi/common/keycode_functions.c ****       if (layer) { toggle ? layer_invert(layer) : layer_on(layer); }
 2543               		.loc 1 489 0
 2544 0020 6623      		tst r22
 2545 0022 01F0      		breq .L177
 489:/home/shum/qmk_firmware/keyboards/splitography/keymaps/beaklsi/common/keycode_functions.c ****       if (layer) { toggle ? layer_invert(layer) : layer_on(layer); }
 2546               		.loc 1 489 0 is_stmt 0 discriminator 1
 2547 0024 862F      		mov r24,r22
 2548 0026 2223      		tst r18
 2549 0028 01F0      		breq .L181
 489:/home/shum/qmk_firmware/keyboards/splitography/keymaps/beaklsi/common/keycode_functions.c ****       if (layer) { toggle ? layer_invert(layer) : layer_on(layer); }
 2550               		.loc 1 489 0 discriminator 2
 2551 002a 0E94 0000 		call layer_invert
 2552               	.LVL313:
 2553 002e 00C0      		rjmp .L177
 2554               	.LVL314:
 2555               	.L181:
 489:/home/shum/qmk_firmware/keyboards/splitography/keymaps/beaklsi/common/keycode_functions.c ****       if (layer) { toggle ? layer_invert(layer) : layer_on(layer); }
 2556               		.loc 1 489 0 discriminator 3
 2557 0030 0E94 0000 		call layer_on
 2558               	.LVL315:
 2559 0034 00C0      		rjmp .L177
 2560               	.LVL316:
 2561               	.L178:
 494:/home/shum/qmk_firmware/keyboards/splitography/keymaps/beaklsi/common/keycode_functions.c ****     if (!(double_key || toggle)) { layer_off(layer); }  // allow single key to continue on layer :-
 2562               		.loc 1 494 0 is_stmt 1
 2563 0036 4095      		com r20
 2564               	.LVL317:
 2565 0038 4823      		and r20,r24
 2566               	.LVL318:
 2567 003a 4093 0000 		sts double_key,r20
 495:/home/shum/qmk_firmware/keyboards/splitography/keymaps/beaklsi/common/keycode_functions.c ****   }
 2568               		.loc 1 495 0
 2569 003e 4111      		cpse r20,__zero_reg__
 2570 0040 00C0      		rjmp .L182
 495:/home/shum/qmk_firmware/keyboards/splitography/keymaps/beaklsi/common/keycode_functions.c ****   }
 2571               		.loc 1 495 0 is_stmt 0 discriminator 1
 2572 0042 2111      		cpse r18,__zero_reg__
 2573 0044 00C0      		rjmp .L182
 495:/home/shum/qmk_firmware/keyboards/splitography/keymaps/beaklsi/common/keycode_functions.c ****   }
 2574               		.loc 1 495 0 discriminator 2
 2575 0046 862F      		mov r24,r22
 2576 0048 0E94 0000 		call layer_off
 2577               	.LVL319:
 2578 004c 00C0      		rjmp .L177
 2579               		.cfi_endproc
 2580               	.LFE155:
 2582               		.section	.text.rolling_layer,"ax",@progbits
 2583               	.global	rolling_layer
 2585               	rolling_layer:
 2586               	.LFB156:
 499:/home/shum/qmk_firmware/keyboards/splitography/keymaps/beaklsi/common/keycode_functions.c **** 
 500:/home/shum/qmk_firmware/keyboards/splitography/keymaps/beaklsi/common/keycode_functions.c **** // .............................................................. Rolling Layers
 501:/home/shum/qmk_firmware/keyboards/splitography/keymaps/beaklsi/common/keycode_functions.c **** 
 502:/home/shum/qmk_firmware/keyboards/splitography/keymaps/beaklsi/common/keycode_functions.c **** // rolling thumb combinations, see process_record_user()
 503:/home/shum/qmk_firmware/keyboards/splitography/keymaps/beaklsi/common/keycode_functions.c **** // up,   up   -> _BASE
 504:/home/shum/qmk_firmware/keyboards/splitography/keymaps/beaklsi/common/keycode_functions.c **** // up,   down -> _GUIFN
 505:/home/shum/qmk_firmware/keyboards/splitography/keymaps/beaklsi/common/keycode_functions.c **** // down, up   -> _SYMBOL
 506:/home/shum/qmk_firmware/keyboards/splitography/keymaps/beaklsi/common/keycode_functions.c **** // down, down -> _MOUSE                     // see layer keycodes that raise mouse layer
 507:/home/shum/qmk_firmware/keyboards/splitography/keymaps/beaklsi/common/keycode_functions.c **** 
 508:/home/shum/qmk_firmware/keyboards/splitography/keymaps/beaklsi/common/keycode_functions.c **** static uint8_t leftside  = 0;
 509:/home/shum/qmk_firmware/keyboards/splitography/keymaps/beaklsi/common/keycode_functions.c **** static uint8_t rightside = 0;
 510:/home/shum/qmk_firmware/keyboards/splitography/keymaps/beaklsi/common/keycode_functions.c **** 
 511:/home/shum/qmk_firmware/keyboards/splitography/keymaps/beaklsi/common/keycode_functions.c **** #define SWITCH_LAYER(x, y) layer_off(x); x = 0; if (y && (y == _MOUSE)) { layer_on(facing); y = fac
 512:/home/shum/qmk_firmware/keyboards/splitography/keymaps/beaklsi/common/keycode_functions.c **** 
 513:/home/shum/qmk_firmware/keyboards/splitography/keymaps/beaklsi/common/keycode_functions.c **** // seamlessly switch left / right thumb layer combinations
 514:/home/shum/qmk_firmware/keyboards/splitography/keymaps/beaklsi/common/keycode_functions.c **** void rolling_layer(keyrecord_t *record, uint8_t side, uint8_t shift, uint16_t keycode, uint8_t laye
 515:/home/shum/qmk_firmware/keyboards/splitography/keymaps/beaklsi/common/keycode_functions.c **** {
 2587               		.loc 1 515 0 is_stmt 1
 2588               		.cfi_startproc
 2589               	.LVL320:
 2590 0000 CF92      		push r12
 2591               	.LCFI70:
 2592               		.cfi_def_cfa_offset 3
 2593               		.cfi_offset 12, -2
 2594 0002 DF92      		push r13
 2595               	.LCFI71:
 2596               		.cfi_def_cfa_offset 4
 2597               		.cfi_offset 13, -3
 2598 0004 EF92      		push r14
 2599               	.LCFI72:
 2600               		.cfi_def_cfa_offset 5
 2601               		.cfi_offset 14, -4
 2602 0006 0F93      		push r16
 2603               	.LCFI73:
 2604               		.cfi_def_cfa_offset 6
 2605               		.cfi_offset 16, -5
 2606 0008 CF93      		push r28
 2607               	.LCFI74:
 2608               		.cfi_def_cfa_offset 7
 2609               		.cfi_offset 28, -6
 2610 000a DF93      		push r29
 2611               	.LCFI75:
 2612               		.cfi_def_cfa_offset 8
 2613               		.cfi_offset 29, -7
 2614               	/* prologue: function */
 2615               	/* frame size = 0 */
 2616               	/* stack size = 6 */
 2617               	.L__stack_usage = 6
 2618 000c C62F      		mov r28,r22
 2619 000e D42F      		mov r29,r20
 2620 0010 6901      		movw r12,r18
 516:/home/shum/qmk_firmware/keyboards/splitography/keymaps/beaklsi/common/keycode_functions.c ****   if (record->event.pressed) {
 2621               		.loc 1 516 0
 2622 0012 FC01      		movw r30,r24
 2623 0014 8281      		ldd r24,Z+2
 2624               	.LVL321:
 2625 0016 8823      		tst r24
 2626 0018 01F0      		breq .L187
 517:/home/shum/qmk_firmware/keyboards/splitography/keymaps/beaklsi/common/keycode_functions.c ****     layer_on(layer);
 2627               		.loc 1 517 0
 2628 001a 802F      		mov r24,r16
 2629 001c 0E94 0000 		call layer_on
 2630               	.LVL322:
 518:/home/shum/qmk_firmware/keyboards/splitography/keymaps/beaklsi/common/keycode_functions.c ****     if (side == LEFT) { leftside = layer; }
 2631               		.loc 1 518 0
 2632 0020 C130      		cpi r28,lo8(1)
 2633 0022 01F4      		brne .L188
 2634               		.loc 1 518 0 is_stmt 0 discriminator 1
 2635 0024 0093 0000 		sts leftside,r16
 2636               	.L189:
 519:/home/shum/qmk_firmware/keyboards/splitography/keymaps/beaklsi/common/keycode_functions.c ****     else              { rightside = layer; }
 520:/home/shum/qmk_firmware/keyboards/splitography/keymaps/beaklsi/common/keycode_functions.c ****     key_timer  = timer_read();
 2637               		.loc 1 520 0 is_stmt 1
 2638 0028 0E94 0000 		call timer_read
 2639               	.LVL323:
 2640 002c 9093 0000 		sts key_timer+1,r25
 2641 0030 8093 0000 		sts key_timer,r24
 2642               	.L186:
 2643               	/* epilogue start */
 521:/home/shum/qmk_firmware/keyboards/splitography/keymaps/beaklsi/common/keycode_functions.c ****   }
 522:/home/shum/qmk_firmware/keyboards/splitography/keymaps/beaklsi/common/keycode_functions.c ****   else {
 523:/home/shum/qmk_firmware/keyboards/splitography/keymaps/beaklsi/common/keycode_functions.c ****     layer_off(_MOUSE);
 524:/home/shum/qmk_firmware/keyboards/splitography/keymaps/beaklsi/common/keycode_functions.c ****     on_tap   (shift, keycode);
 525:/home/shum/qmk_firmware/keyboards/splitography/keymaps/beaklsi/common/keycode_functions.c ****     if (side == LEFT) { SWITCH_LAYER(leftside, rightside); }
 526:/home/shum/qmk_firmware/keyboards/splitography/keymaps/beaklsi/common/keycode_functions.c ****     else              { SWITCH_LAYER(rightside, leftside); }
 527:/home/shum/qmk_firmware/keyboards/splitography/keymaps/beaklsi/common/keycode_functions.c ****     // clear_mods();
 528:/home/shum/qmk_firmware/keyboards/splitography/keymaps/beaklsi/common/keycode_functions.c ****     key_timer = 0;
 529:/home/shum/qmk_firmware/keyboards/splitography/keymaps/beaklsi/common/keycode_functions.c ****   }
 530:/home/shum/qmk_firmware/keyboards/splitography/keymaps/beaklsi/common/keycode_functions.c **** }
 2644               		.loc 1 530 0
 2645 0034 DF91      		pop r29
 2646               	.LVL324:
 2647 0036 CF91      		pop r28
 2648               	.LVL325:
 2649 0038 0F91      		pop r16
 2650               	.LVL326:
 2651 003a EF90      		pop r14
 2652               	.LVL327:
 2653 003c DF90      		pop r13
 2654 003e CF90      		pop r12
 2655               	.LVL328:
 2656 0040 0895      		ret
 2657               	.LVL329:
 2658               	.L188:
 519:/home/shum/qmk_firmware/keyboards/splitography/keymaps/beaklsi/common/keycode_functions.c ****     else              { rightside = layer; }
 2659               		.loc 1 519 0
 2660 0042 0093 0000 		sts rightside,r16
 2661 0046 00C0      		rjmp .L189
 2662               	.LVL330:
 2663               	.L187:
 523:/home/shum/qmk_firmware/keyboards/splitography/keymaps/beaklsi/common/keycode_functions.c ****     on_tap   (shift, keycode);
 2664               		.loc 1 523 0
 2665 0048 84E0      		ldi r24,lo8(4)
 2666 004a 0E94 0000 		call layer_off
 2667               	.LVL331:
 524:/home/shum/qmk_firmware/keyboards/splitography/keymaps/beaklsi/common/keycode_functions.c ****     if (side == LEFT) { SWITCH_LAYER(leftside, rightside); }
 2668               		.loc 1 524 0
 2669 004e B601      		movw r22,r12
 2670 0050 8D2F      		mov r24,r29
 2671 0052 0E94 0000 		call on_tap
 2672               	.LVL332:
 525:/home/shum/qmk_firmware/keyboards/splitography/keymaps/beaklsi/common/keycode_functions.c ****     else              { SWITCH_LAYER(rightside, leftside); }
 2673               		.loc 1 525 0
 2674 0056 C130      		cpi r28,lo8(1)
 2675 0058 01F4      		brne .L191
 525:/home/shum/qmk_firmware/keyboards/splitography/keymaps/beaklsi/common/keycode_functions.c ****     else              { SWITCH_LAYER(rightside, leftside); }
 2676               		.loc 1 525 0 is_stmt 0 discriminator 1
 2677 005a 8091 0000 		lds r24,leftside
 2678 005e 0E94 0000 		call layer_off
 2679               	.LVL333:
 2680 0062 1092 0000 		sts leftside,__zero_reg__
 2681 0066 8091 0000 		lds r24,rightside
 2682 006a 8430      		cpi r24,lo8(4)
 2683 006c 01F4      		brne .L193
 525:/home/shum/qmk_firmware/keyboards/splitography/keymaps/beaklsi/common/keycode_functions.c ****     else              { SWITCH_LAYER(rightside, leftside); }
 2684               		.loc 1 525 0 discriminator 2
 2685 006e 8E2D      		mov r24,r14
 2686 0070 0E94 0000 		call layer_on
 2687               	.LVL334:
 2688 0074 E092 0000 		sts rightside,r14
 2689               	.L193:
 528:/home/shum/qmk_firmware/keyboards/splitography/keymaps/beaklsi/common/keycode_functions.c ****   }
 2690               		.loc 1 528 0 is_stmt 1
 2691 0078 1092 0000 		sts key_timer+1,__zero_reg__
 2692 007c 1092 0000 		sts key_timer,__zero_reg__
 2693               		.loc 1 530 0
 2694 0080 00C0      		rjmp .L186
 2695               	.L191:
 526:/home/shum/qmk_firmware/keyboards/splitography/keymaps/beaklsi/common/keycode_functions.c ****     // clear_mods();
 2696               		.loc 1 526 0
 2697 0082 8091 0000 		lds r24,rightside
 2698 0086 0E94 0000 		call layer_off
 2699               	.LVL335:
 2700 008a 1092 0000 		sts rightside,__zero_reg__
 2701 008e 8091 0000 		lds r24,leftside
 2702 0092 8430      		cpi r24,lo8(4)
 2703 0094 01F4      		brne .L193
 526:/home/shum/qmk_firmware/keyboards/splitography/keymaps/beaklsi/common/keycode_functions.c ****     // clear_mods();
 2704               		.loc 1 526 0 is_stmt 0 discriminator 1
 2705 0096 8E2D      		mov r24,r14
 2706 0098 0E94 0000 		call layer_on
 2707               	.LVL336:
 2708 009c E092 0000 		sts leftside,r14
 2709 00a0 00C0      		rjmp .L193
 2710               		.cfi_endproc
 2711               	.LFE156:
 2713               		.section	.text.toggle_plover,"ax",@progbits
 2714               	.global	toggle_plover
 2716               	toggle_plover:
 2717               	.LFB158:
 531:/home/shum/qmk_firmware/keyboards/splitography/keymaps/beaklsi/common/keycode_functions.c **** 
 532:/home/shum/qmk_firmware/keyboards/splitography/keymaps/beaklsi/common/keycode_functions.c **** // ....................................................................... Steno
 533:/home/shum/qmk_firmware/keyboards/splitography/keymaps/beaklsi/common/keycode_functions.c **** 
 534:/home/shum/qmk_firmware/keyboards/splitography/keymaps/beaklsi/common/keycode_functions.c **** void steno(keyrecord_t *record)
 535:/home/shum/qmk_firmware/keyboards/splitography/keymaps/beaklsi/common/keycode_functions.c **** {
 536:/home/shum/qmk_firmware/keyboards/splitography/keymaps/beaklsi/common/keycode_functions.c ****   if (record->event.pressed) {
 537:/home/shum/qmk_firmware/keyboards/splitography/keymaps/beaklsi/common/keycode_functions.c **** #ifdef AUDIO_ENABLE
 538:/home/shum/qmk_firmware/keyboards/splitography/keymaps/beaklsi/common/keycode_functions.c ****     PLAY_SONG(song_plover);
 539:/home/shum/qmk_firmware/keyboards/splitography/keymaps/beaklsi/common/keycode_functions.c **** #endif
 540:/home/shum/qmk_firmware/keyboards/splitography/keymaps/beaklsi/common/keycode_functions.c ****     clear_layers();
 541:/home/shum/qmk_firmware/keyboards/splitography/keymaps/beaklsi/common/keycode_functions.c ****     layer_on(_PLOVER);
 542:/home/shum/qmk_firmware/keyboards/splitography/keymaps/beaklsi/common/keycode_functions.c **** #ifndef STENO_ENABLE
 543:/home/shum/qmk_firmware/keyboards/splitography/keymaps/beaklsi/common/keycode_functions.c ****     if (!eeconfig_is_enabled()) { eeconfig_init(); }
 544:/home/shum/qmk_firmware/keyboards/splitography/keymaps/beaklsi/common/keycode_functions.c ****     keymap_config.raw  = eeconfig_read_keymap();
 545:/home/shum/qmk_firmware/keyboards/splitography/keymaps/beaklsi/common/keycode_functions.c ****     keymap_config.nkro = 1;
 546:/home/shum/qmk_firmware/keyboards/splitography/keymaps/beaklsi/common/keycode_functions.c ****     eeconfig_update_keymap(keymap_config.raw);
 547:/home/shum/qmk_firmware/keyboards/splitography/keymaps/beaklsi/common/keycode_functions.c **** #endif
 548:/home/shum/qmk_firmware/keyboards/splitography/keymaps/beaklsi/common/keycode_functions.c ****     toggle_plover(1);
 549:/home/shum/qmk_firmware/keyboards/splitography/keymaps/beaklsi/common/keycode_functions.c ****   }
 550:/home/shum/qmk_firmware/keyboards/splitography/keymaps/beaklsi/common/keycode_functions.c **** }
 551:/home/shum/qmk_firmware/keyboards/splitography/keymaps/beaklsi/common/keycode_functions.c **** 
 552:/home/shum/qmk_firmware/keyboards/splitography/keymaps/beaklsi/common/keycode_functions.c **** static uint8_t plover = 0;                  // plover application run state (0) off (1) on, see wm 
 553:/home/shum/qmk_firmware/keyboards/splitography/keymaps/beaklsi/common/keycode_functions.c **** 
 554:/home/shum/qmk_firmware/keyboards/splitography/keymaps/beaklsi/common/keycode_functions.c **** void toggle_plover(uint8_t state)
 555:/home/shum/qmk_firmware/keyboards/splitography/keymaps/beaklsi/common/keycode_functions.c **** {
 2718               		.loc 1 555 0 is_stmt 1
 2719               		.cfi_startproc
 2720               	.LVL337:
 2721 0000 CF93      		push r28
 2722               	.LCFI76:
 2723               		.cfi_def_cfa_offset 3
 2724               		.cfi_offset 28, -2
 2725               	/* prologue: function */
 2726               	/* frame size = 0 */
 2727               	/* stack size = 1 */
 2728               	.L__stack_usage = 1
 2729 0002 C82F      		mov r28,r24
 556:/home/shum/qmk_firmware/keyboards/splitography/keymaps/beaklsi/common/keycode_functions.c ****   if (plover != state) {
 2730               		.loc 1 556 0
 2731 0004 8091 0000 		lds r24,plover
 2732               	.LVL338:
 2733 0008 8C17      		cp r24,r28
 2734 000a 01F0      		breq .L195
 2735               		.file 4 "/home/shum/qmk_firmware/keyboards/splitography/keymaps/beaklsi/common/plover_keybind.h"
   1:/home/shum/qmk_firmware/keyboards/splitography/keymaps/beaklsi/common/plover_keybind.h **** 
   2:/home/shum/qmk_firmware/keyboards/splitography/keymaps/beaklsi/common/plover_keybind.h **** // simple window manager specific plover keybind hook
   3:/home/shum/qmk_firmware/keyboards/splitography/keymaps/beaklsi/common/plover_keybind.h **** 
   4:/home/shum/qmk_firmware/keyboards/splitography/keymaps/beaklsi/common/plover_keybind.h **** // toggle plover application, see herbstluftwm/config/appbinds
   5:/home/shum/qmk_firmware/keyboards/splitography/keymaps/beaklsi/common/plover_keybind.h **** register_code  (KC_LGUI);
 2736               		.loc 4 5 0
 2737 000c 83EE      		ldi r24,lo8(-29)
 2738 000e 0E94 0000 		call register_code
 2739               	.LVL339:
   6:/home/shum/qmk_firmware/keyboards/splitography/keymaps/beaklsi/common/plover_keybind.h **** register_code  (KC_LCTL);
 2740               		.loc 4 6 0
 2741 0012 80EE      		ldi r24,lo8(-32)
 2742 0014 0E94 0000 		call register_code
 2743               	.LVL340:
   7:/home/shum/qmk_firmware/keyboards/splitography/keymaps/beaklsi/common/plover_keybind.h **** tap_key        (KC_EQL);
 2744               		.loc 4 7 0
 2745 0018 8EE2      		ldi r24,lo8(46)
 2746 001a 90E0      		ldi r25,0
 2747 001c 0E94 0000 		call tap_key
 2748               	.LVL341:
   8:/home/shum/qmk_firmware/keyboards/splitography/keymaps/beaklsi/common/plover_keybind.h **** unregister_code(KC_LCTL);
 2749               		.loc 4 8 0
 2750 0020 80EE      		ldi r24,lo8(-32)
 2751 0022 0E94 0000 		call unregister_code
 2752               	.LVL342:
   9:/home/shum/qmk_firmware/keyboards/splitography/keymaps/beaklsi/common/plover_keybind.h **** unregister_code(KC_LGUI);
 2753               		.loc 4 9 0
 2754 0026 83EE      		ldi r24,lo8(-29)
 2755 0028 0E94 0000 		call unregister_code
 2756               	.LVL343:
 557:/home/shum/qmk_firmware/keyboards/splitography/keymaps/beaklsi/common/keycode_functions.c **** #ifdef PLOVER_KEYBIND
 558:/home/shum/qmk_firmware/keyboards/splitography/keymaps/beaklsi/common/keycode_functions.c **** #include "plover_keybind.h"
 559:/home/shum/qmk_firmware/keyboards/splitography/keymaps/beaklsi/common/keycode_functions.c **** #endif
 560:/home/shum/qmk_firmware/keyboards/splitography/keymaps/beaklsi/common/keycode_functions.c ****     plover = state;
 2757               		.loc 1 560 0
 2758 002c C093 0000 		sts plover,r28
 2759               	.L195:
 2760               	/* epilogue start */
 561:/home/shum/qmk_firmware/keyboards/splitography/keymaps/beaklsi/common/keycode_functions.c ****   }
 562:/home/shum/qmk_firmware/keyboards/splitography/keymaps/beaklsi/common/keycode_functions.c **** }
 2761               		.loc 1 562 0
 2762 0030 CF91      		pop r28
 2763               	.LVL344:
 2764 0032 0895      		ret
 2765               		.cfi_endproc
 2766               	.LFE158:
 2768               		.section	.text.base_layer,"ax",@progbits
 2769               	.global	base_layer
 2771               	base_layer:
 2772               	.LFB152:
 442:/home/shum/qmk_firmware/keyboards/splitography/keymaps/beaklsi/common/keycode_functions.c ****   if (defer) { return; }                    // see process_record_user() CNTR_TL, CNTR_TR
 2773               		.loc 1 442 0
 2774               		.cfi_startproc
 2775               	.LVL345:
 2776               	/* prologue: function */
 2777               	/* frame size = 0 */
 2778               	/* stack size = 0 */
 2779               	.L__stack_usage = 0
 443:/home/shum/qmk_firmware/keyboards/splitography/keymaps/beaklsi/common/keycode_functions.c **** #ifdef AUDIO_ENABLE
 2780               		.loc 1 443 0
 2781 0000 8111      		cpse r24,__zero_reg__
 2782 0002 00C0      		rjmp .L197
 447:/home/shum/qmk_firmware/keyboards/splitography/keymaps/beaklsi/common/keycode_functions.c ****   set_single_persistent_default_layer(_BASE);
 2783               		.loc 1 447 0
 2784 0004 0E94 0000 		call clear_layers
 2785               	.LVL346:
 448:/home/shum/qmk_firmware/keyboards/splitography/keymaps/beaklsi/common/keycode_functions.c ****   toggle_plover(0);
 2786               		.loc 1 448 0
 2787 0008 80E0      		ldi r24,0
 2788 000a 0E94 0000 		call set_single_persistent_default_layer
 2789               	.LVL347:
 449:/home/shum/qmk_firmware/keyboards/splitography/keymaps/beaklsi/common/keycode_functions.c **** }
 2790               		.loc 1 449 0
 2791 000e 80E0      		ldi r24,0
 2792 0010 0C94 0000 		jmp toggle_plover
 2793               	.LVL348:
 2794               	.L197:
 2795               	/* epilogue start */
 450:/home/shum/qmk_firmware/keyboards/splitography/keymaps/beaklsi/common/keycode_functions.c **** 
 2796               		.loc 1 450 0
 2797 0014 0895      		ret
 2798               		.cfi_endproc
 2799               	.LFE152:
 2801               		.section	.text.tt_escape,"ax",@progbits
 2802               	.global	tt_escape
 2804               	tt_escape:
 2805               	.LFB113:
  46:/home/shum/qmk_firmware/keyboards/splitography/keymaps/beaklsi/common/keycode_functions.c ****   if (tt_keycode != keycode && tt_keycode) { base_layer(0); } // if different TT layer selected
 2806               		.loc 1 46 0
 2807               		.cfi_startproc
 2808               	.LVL349:
 2809 0000 0F93      		push r16
 2810               	.LCFI77:
 2811               		.cfi_def_cfa_offset 3
 2812               		.cfi_offset 16, -2
 2813 0002 1F93      		push r17
 2814               	.LCFI78:
 2815               		.cfi_def_cfa_offset 4
 2816               		.cfi_offset 17, -3
 2817 0004 CF93      		push r28
 2818               	.LCFI79:
 2819               		.cfi_def_cfa_offset 5
 2820               		.cfi_offset 28, -4
 2821 0006 DF93      		push r29
 2822               	.LCFI80:
 2823               		.cfi_def_cfa_offset 6
 2824               		.cfi_offset 29, -5
 2825               	/* prologue: function */
 2826               	/* frame size = 0 */
 2827               	/* stack size = 4 */
 2828               	.L__stack_usage = 4
 2829 0008 8C01      		movw r16,r24
 2830 000a EB01      		movw r28,r22
  47:/home/shum/qmk_firmware/keyboards/splitography/keymaps/beaklsi/common/keycode_functions.c ****   if (record->event.pressed)               { key_timer = timer_read(); }
 2831               		.loc 1 47 0
 2832 000c 8091 0000 		lds r24,tt_keycode
 2833 0010 9091 0000 		lds r25,tt_keycode+1
 2834               	.LVL350:
 2835 0014 8617      		cp r24,r22
 2836 0016 9707      		cpc r25,r23
 2837 0018 01F0      		breq .L200
  47:/home/shum/qmk_firmware/keyboards/splitography/keymaps/beaklsi/common/keycode_functions.c ****   if (record->event.pressed)               { key_timer = timer_read(); }
 2838               		.loc 1 47 0 is_stmt 0 discriminator 1
 2839 001a 892B      		or r24,r25
 2840 001c 01F0      		breq .L200
  47:/home/shum/qmk_firmware/keyboards/splitography/keymaps/beaklsi/common/keycode_functions.c ****   if (record->event.pressed)               { key_timer = timer_read(); }
 2841               		.loc 1 47 0 discriminator 2
 2842 001e 80E0      		ldi r24,0
 2843 0020 0E94 0000 		call base_layer
 2844               	.LVL351:
 2845               	.L200:
  48:/home/shum/qmk_firmware/keyboards/splitography/keymaps/beaklsi/common/keycode_functions.c ****   else {
 2846               		.loc 1 48 0 is_stmt 1
 2847 0024 F801      		movw r30,r16
 2848 0026 8281      		ldd r24,Z+2
 2849 0028 8823      		tst r24
 2850 002a 01F0      		breq .L201
  48:/home/shum/qmk_firmware/keyboards/splitography/keymaps/beaklsi/common/keycode_functions.c ****   else {
 2851               		.loc 1 48 0 is_stmt 0 discriminator 1
 2852 002c 0E94 0000 		call timer_read
 2853               	.LVL352:
 2854 0030 9093 0000 		sts key_timer+1,r25
 2855 0034 8093 0000 		sts key_timer,r24
 2856               	.L199:
 2857               	/* epilogue start */
  53:/home/shum/qmk_firmware/keyboards/splitography/keymaps/beaklsi/common/keycode_functions.c **** 
 2858               		.loc 1 53 0 is_stmt 1
 2859 0038 DF91      		pop r29
 2860 003a CF91      		pop r28
 2861               	.LVL353:
 2862 003c 1F91      		pop r17
 2863 003e 0F91      		pop r16
 2864               	.LVL354:
 2865 0040 0895      		ret
 2866               	.LVL355:
 2867               	.L201:
  50:/home/shum/qmk_firmware/keyboards/splitography/keymaps/beaklsi/common/keycode_functions.c ****     key_timer = 0;
 2868               		.loc 1 50 0
 2869 0042 8091 0000 		lds r24,key_timer
 2870 0046 9091 0000 		lds r25,key_timer+1
 2871 004a 0E94 0000 		call timer_elapsed
 2872               	.LVL356:
 2873 004e 883C      		cpi r24,-56
 2874 0050 9105      		cpc r25,__zero_reg__
 2875 0052 00F4      		brsh .L203
  50:/home/shum/qmk_firmware/keyboards/splitography/keymaps/beaklsi/common/keycode_functions.c ****     key_timer = 0;
 2876               		.loc 1 50 0 is_stmt 0 discriminator 1
 2877 0054 D093 0000 		sts tt_keycode+1,r29
 2878 0058 C093 0000 		sts tt_keycode,r28
 2879               	.L203:
  51:/home/shum/qmk_firmware/keyboards/splitography/keymaps/beaklsi/common/keycode_functions.c ****   }
 2880               		.loc 1 51 0 is_stmt 1
 2881 005c 1092 0000 		sts key_timer+1,__zero_reg__
 2882 0060 1092 0000 		sts key_timer,__zero_reg__
  53:/home/shum/qmk_firmware/keyboards/splitography/keymaps/beaklsi/common/keycode_functions.c **** 
 2883               		.loc 1 53 0
 2884 0064 00C0      		rjmp .L199
 2885               		.cfi_endproc
 2886               	.LFE113:
 2888               		.section	.text.steno,"ax",@progbits
 2889               	.global	steno
 2891               	steno:
 2892               	.LFB157:
 535:/home/shum/qmk_firmware/keyboards/splitography/keymaps/beaklsi/common/keycode_functions.c ****   if (record->event.pressed) {
 2893               		.loc 1 535 0
 2894               		.cfi_startproc
 2895               	.LVL357:
 2896               	/* prologue: function */
 2897               	/* frame size = 0 */
 2898               	/* stack size = 0 */
 2899               	.L__stack_usage = 0
 536:/home/shum/qmk_firmware/keyboards/splitography/keymaps/beaklsi/common/keycode_functions.c **** #ifdef AUDIO_ENABLE
 2900               		.loc 1 536 0
 2901 0000 FC01      		movw r30,r24
 2902 0002 8281      		ldd r24,Z+2
 2903               	.LVL358:
 2904 0004 8823      		tst r24
 2905 0006 01F0      		breq .L207
 540:/home/shum/qmk_firmware/keyboards/splitography/keymaps/beaklsi/common/keycode_functions.c ****     layer_on(_PLOVER);
 2906               		.loc 1 540 0
 2907 0008 0E94 0000 		call clear_layers
 2908               	.LVL359:
 541:/home/shum/qmk_firmware/keyboards/splitography/keymaps/beaklsi/common/keycode_functions.c **** #ifndef STENO_ENABLE
 2909               		.loc 1 541 0
 2910 000c 87E0      		ldi r24,lo8(7)
 2911 000e 0E94 0000 		call layer_on
 2912               	.LVL360:
 548:/home/shum/qmk_firmware/keyboards/splitography/keymaps/beaklsi/common/keycode_functions.c ****   }
 2913               		.loc 1 548 0
 2914 0012 81E0      		ldi r24,lo8(1)
 2915 0014 0C94 0000 		jmp toggle_plover
 2916               	.LVL361:
 2917               	.L207:
 2918               	/* epilogue start */
 550:/home/shum/qmk_firmware/keyboards/splitography/keymaps/beaklsi/common/keycode_functions.c **** 
 2919               		.loc 1 550 0
 2920 0018 0895      		ret
 2921               		.cfi_endproc
 2922               	.LFE157:
 2924               		.section	.text.process_record_user,"ax",@progbits
 2925               	.global	process_record_user
 2927               	process_record_user:
 2928               	.LFB159:
 2929               		.file 5 "keyboards/splitography/keymaps/beaklsi/keymap.c"
   1:keyboards/splitography/keymaps/beaklsi/keymap.c **** // This is the canonical layout file for the Quantum project. If you want to add another keyboard,
   2:keyboards/splitography/keymaps/beaklsi/keymap.c **** // this is the style you want to emulate.
   3:keyboards/splitography/keymaps/beaklsi/keymap.c **** //
   4:keyboards/splitography/keymaps/beaklsi/keymap.c **** // To flash splitography / planck firmware
   5:keyboards/splitography/keymaps/beaklsi/keymap.c **** // ▔▔▔▔▔▔▔▔▔▔▔▔▔▔▔▔▔▔▔▔▔▔▔▔▔▔▔▔▔▔
   6:keyboards/splitography/keymaps/beaklsi/keymap.c **** //   Reset keyboard or press hw reset button on base
   7:keyboards/splitography/keymaps/beaklsi/keymap.c **** //
   8:keyboards/splitography/keymaps/beaklsi/keymap.c **** //   cd qmk_firmware/keyboards/<keyboard>
   9:keyboards/splitography/keymaps/beaklsi/keymap.c **** //   sudo make KEYMAP=<keymap> dfu
  10:keyboards/splitography/keymaps/beaklsi/keymap.c **** //
  11:keyboards/splitography/keymaps/beaklsi/keymap.c **** //   sudo make clean           (good practice before flashing)
  12:keyboards/splitography/keymaps/beaklsi/keymap.c **** //   sudo make KEYMAP=<keymap> (to compile check)
  13:keyboards/splitography/keymaps/beaklsi/keymap.c **** //
  14:keyboards/splitography/keymaps/beaklsi/keymap.c **** // Package requirements (for arch linux)
  15:keyboards/splitography/keymaps/beaklsi/keymap.c **** // ▔▔▔▔▔▔▔▔▔▔▔▔▔▔▔▔▔▔▔▔▔▔▔▔▔▔▔▔▔▔▔▔
  16:keyboards/splitography/keymaps/beaklsi/keymap.c **** //   avr-gcc-atmel
  17:keyboards/splitography/keymaps/beaklsi/keymap.c **** //   avr-libc-atmel
  18:keyboards/splitography/keymaps/beaklsi/keymap.c **** //   dfu-programmer
  19:keyboards/splitography/keymaps/beaklsi/keymap.c **** //
  20:keyboards/splitography/keymaps/beaklsi/keymap.c **** // Notes
  21:keyboards/splitography/keymaps/beaklsi/keymap.c **** // ▔▔▔▔▔
  22:keyboards/splitography/keymaps/beaklsi/keymap.c **** //   ** E R G O   W I D E   S P L I T ** Layout
  23:keyboards/splitography/keymaps/beaklsi/keymap.c **** //
  24:keyboards/splitography/keymaps/beaklsi/keymap.c **** //   Autocompletion tap dance key pairs (),[],{} are available from the
  25:keyboards/splitography/keymaps/beaklsi/keymap.c **** //   number/symbol layer, as well as, numerous (un)shift key values
  26:keyboards/splitography/keymaps/beaklsi/keymap.c **** //
  27:keyboards/splitography/keymaps/beaklsi/keymap.c **** //   #define PRIVATE_STRING includes private_string.h, a user defined code
  28:keyboards/splitography/keymaps/beaklsi/keymap.c **** //   block for the PRIV tap dance e.g. SEND_STRING("secret messape"),
  29:keyboards/splitography/keymaps/beaklsi/keymap.c **** //   see function private()
  30:keyboards/splitography/keymaps/beaklsi/keymap.c **** //
  31:keyboards/splitography/keymaps/beaklsi/keymap.c **** // Code
  32:keyboards/splitography/keymaps/beaklsi/keymap.c **** // ▔▔▔▔
  33:keyboards/splitography/keymaps/beaklsi/keymap.c **** //   This source is shamelessly based on the "default" planck layout
  34:keyboards/splitography/keymaps/beaklsi/keymap.c **** //
  35:keyboards/splitography/keymaps/beaklsi/keymap.c **** //   #ifdef/#endif block structures are not indented, as syntax highlighting
  36:keyboards/splitography/keymaps/beaklsi/keymap.c **** //   in vim is sufficient for identification
  37:keyboards/splitography/keymaps/beaklsi/keymap.c **** //
  38:keyboards/splitography/keymaps/beaklsi/keymap.c **** //   c++ commenting style is used throughout
  39:keyboards/splitography/keymaps/beaklsi/keymap.c **** //
  40:keyboards/splitography/keymaps/beaklsi/keymap.c **** // Change history
  41:keyboards/splitography/keymaps/beaklsi/keymap.c **** // ▔▔▔▔▔▔▔▔▔▔▔▔▔▔
  42:keyboards/splitography/keymaps/beaklsi/keymap.c **** //   See http://thedarnedestthing.com/colophon
  43:keyboards/splitography/keymaps/beaklsi/keymap.c **** 
  44:keyboards/splitography/keymaps/beaklsi/keymap.c **** 
  45:keyboards/splitography/keymaps/beaklsi/keymap.c **** //                === N O T E ===
  46:keyboards/splitography/keymaps/beaklsi/keymap.c **** //
  47:keyboards/splitography/keymaps/beaklsi/keymap.c **** // sudo CPATH=<keymap.c directory>/common make ...
  48:keyboards/splitography/keymaps/beaklsi/keymap.c **** 
  49:keyboards/splitography/keymaps/beaklsi/keymap.c **** 
  50:keyboards/splitography/keymaps/beaklsi/keymap.c **** #ifndef PLANCK
  51:keyboards/splitography/keymaps/beaklsi/keymap.c **** #ifndef SPLITOGRAPHY
  52:keyboards/splitography/keymaps/beaklsi/keymap.c **** #define SPLITOGRAPHY
  53:keyboards/splitography/keymaps/beaklsi/keymap.c **** #endif
  54:keyboards/splitography/keymaps/beaklsi/keymap.c **** #endif
  55:keyboards/splitography/keymaps/beaklsi/keymap.c **** 
  56:keyboards/splitography/keymaps/beaklsi/keymap.c **** #include "config.h"
  57:keyboards/splitography/keymaps/beaklsi/keymap.c **** #ifdef SPLITOGRAPHY
  58:keyboards/splitography/keymaps/beaklsi/keymap.c **** #include "splitography.h"
  59:keyboards/splitography/keymaps/beaklsi/keymap.c **** #else
  60:keyboards/splitography/keymaps/beaklsi/keymap.c **** #include "planck.h"
  61:keyboards/splitography/keymaps/beaklsi/keymap.c **** #endif
  62:keyboards/splitography/keymaps/beaklsi/keymap.c **** #include "action_layer.h"
  63:keyboards/splitography/keymaps/beaklsi/keymap.c **** #ifdef STENO_ENABLE
  64:keyboards/splitography/keymaps/beaklsi/keymap.c **** #include "keymap_steno.h"
  65:keyboards/splitography/keymaps/beaklsi/keymap.c **** #endif
  66:keyboards/splitography/keymaps/beaklsi/keymap.c **** #ifdef AUDIO_ENABLE
  67:keyboards/splitography/keymaps/beaklsi/keymap.c **** #include "audio.h"
  68:keyboards/splitography/keymaps/beaklsi/keymap.c **** #endif
  69:keyboards/splitography/keymaps/beaklsi/keymap.c **** #include "eeconfig.h"
  70:keyboards/splitography/keymaps/beaklsi/keymap.c **** 
  71:keyboards/splitography/keymaps/beaklsi/keymap.c **** extern keymap_config_t keymap_config;
  72:keyboards/splitography/keymaps/beaklsi/keymap.c **** 
  73:keyboards/splitography/keymaps/beaklsi/keymap.c **** enum keyboard_layers {
  74:keyboards/splitography/keymaps/beaklsi/keymap.c ****   _BASE = 0
  75:keyboards/splitography/keymaps/beaklsi/keymap.c ****  ,_SHIFT
  76:keyboards/splitography/keymaps/beaklsi/keymap.c ****  ,_GUIFN
  77:keyboards/splitography/keymaps/beaklsi/keymap.c ****  ,_SYMBOL
  78:keyboards/splitography/keymaps/beaklsi/keymap.c ****  ,_MOUSE
  79:keyboards/splitography/keymaps/beaklsi/keymap.c ****  ,_NUMBER
  80:keyboards/splitography/keymaps/beaklsi/keymap.c ****  ,_FNCKEY
  81:keyboards/splitography/keymaps/beaklsi/keymap.c ****  ,_PLOVER
  82:keyboards/splitography/keymaps/beaklsi/keymap.c ****  ,_EDIT
  83:keyboards/splitography/keymaps/beaklsi/keymap.c **** #ifdef PLANCK
  84:keyboards/splitography/keymaps/beaklsi/keymap.c ****  ,_ADJUST
  85:keyboards/splitography/keymaps/beaklsi/keymap.c **** #endif
  86:keyboards/splitography/keymaps/beaklsi/keymap.c ****  ,_TTCAPS
  87:keyboards/splitography/keymaps/beaklsi/keymap.c ****  ,_TTFNCKEY
  88:keyboards/splitography/keymaps/beaklsi/keymap.c ****  ,_TTCURSOR
  89:keyboards/splitography/keymaps/beaklsi/keymap.c ****  ,_TTMOUSE
  90:keyboards/splitography/keymaps/beaklsi/keymap.c ****  ,_TTNUMBER
  91:keyboards/splitography/keymaps/beaklsi/keymap.c ****  ,_TTREGEX
  92:keyboards/splitography/keymaps/beaklsi/keymap.c ****  ,_END_LAYERS
  93:keyboards/splitography/keymaps/beaklsi/keymap.c **** };
  94:keyboards/splitography/keymaps/beaklsi/keymap.c **** 
  95:keyboards/splitography/keymaps/beaklsi/keymap.c **** enum keyboard_keycodes {
  96:keyboards/splitography/keymaps/beaklsi/keymap.c ****   BASE = SAFE_RANGE
  97:keyboards/splitography/keymaps/beaklsi/keymap.c ****  ,BASE1
  98:keyboards/splitography/keymaps/beaklsi/keymap.c ****  ,BASE2
  99:keyboards/splitography/keymaps/beaklsi/keymap.c ****  ,LT_I      // pseudo LT   (_SYMBOL, KC_I) for shifted key-codes, see process_record_user()
 100:keyboards/splitography/keymaps/beaklsi/keymap.c ****  ,ML_BSLS
 101:keyboards/splitography/keymaps/beaklsi/keymap.c ****  ,ML_EQL
 102:keyboards/splitography/keymaps/beaklsi/keymap.c ****  ,PLOVER
 103:keyboards/splitography/keymaps/beaklsi/keymap.c ****  ,SG_TILD   // pseudo GUI_T(S(KC_GRV))     for shifted key-codes, see process_record_user()
 104:keyboards/splitography/keymaps/beaklsi/keymap.c ****  ,SM_G      // pseudo MT   (MOD_LALT | MOD_LSFT, S(KC_G))
 105:keyboards/splitography/keymaps/beaklsi/keymap.c ****  ,SS_A      // pseudo SFT_T(S(KC_A))
 106:keyboards/splitography/keymaps/beaklsi/keymap.c ****  ,SS_T      // pseudo SFT_T(S(KC_T))
 107:keyboards/splitography/keymaps/beaklsi/keymap.c ****  ,TT_ESC
 108:keyboards/splitography/keymaps/beaklsi/keymap.c **** #ifdef STENO_ENABLE
 109:keyboards/splitography/keymaps/beaklsi/keymap.c ****  ,PS_STNA = STN_A
 110:keyboards/splitography/keymaps/beaklsi/keymap.c ****  ,PS_STNO = STN_O
 111:keyboards/splitography/keymaps/beaklsi/keymap.c ****  ,PS_STNE = STN_E
 112:keyboards/splitography/keymaps/beaklsi/keymap.c ****  ,PS_STNU = STN_U
 113:keyboards/splitography/keymaps/beaklsi/keymap.c **** #else
 114:keyboards/splitography/keymaps/beaklsi/keymap.c ****  ,LT_C    = LT (_SYMBOL, KC_C)
 115:keyboards/splitography/keymaps/beaklsi/keymap.c ****  ,LT_V    = LT (_NUMBER, KC_V)
 116:keyboards/splitography/keymaps/beaklsi/keymap.c ****  ,LT_N    = LT (_FNCKEY, KC_N)
 117:keyboards/splitography/keymaps/beaklsi/keymap.c ****  ,LT_M    = LT (_GUIFN, KC_M)
 118:keyboards/splitography/keymaps/beaklsi/keymap.c **** #endif
 119:keyboards/splitography/keymaps/beaklsi/keymap.c **** };
 120:keyboards/splitography/keymaps/beaklsi/keymap.c **** 
 121:keyboards/splitography/keymaps/beaklsi/keymap.c **** // modifier keys
 122:keyboards/splitography/keymaps/beaklsi/keymap.c **** #ifdef PLANCK
 123:keyboards/splitography/keymaps/beaklsi/keymap.c **** #define CT_RGHT CTL_T(KC_RGHT)
 124:keyboards/splitography/keymaps/beaklsi/keymap.c **** #define AT_DOWN ALT_T(KC_DOWN)
 125:keyboards/splitography/keymaps/beaklsi/keymap.c **** #define GT_UP   GUI_T(KC_UP)
 126:keyboards/splitography/keymaps/beaklsi/keymap.c **** #endif
 127:keyboards/splitography/keymaps/beaklsi/keymap.c **** #define AT_B    ALT_T(KC_B)
 128:keyboards/splitography/keymaps/beaklsi/keymap.c **** #define CT_C    CTL_T(KC_C)
 129:keyboards/splitography/keymaps/beaklsi/keymap.c **** #define MT_E    MT   (MOD_LCTL | MOD_LALT, KC_E)
 130:keyboards/splitography/keymaps/beaklsi/keymap.c **** #define ST_A    SFT_T(KC_A)
 131:keyboards/splitography/keymaps/beaklsi/keymap.c **** 
 132:keyboards/splitography/keymaps/beaklsi/keymap.c **** #define HOME_Q  GUI_T(KC_Q)
 133:keyboards/splitography/keymaps/beaklsi/keymap.c **** #define HOME_H  CTL_T(KC_H)
 134:keyboards/splitography/keymaps/beaklsi/keymap.c **** #define HOME_E  ALT_T(KC_E)
 135:keyboards/splitography/keymaps/beaklsi/keymap.c **** #define HOME_A  SFT_T(KC_A)
 136:keyboards/splitography/keymaps/beaklsi/keymap.c **** #define HOME_T  SFT_T(KC_T)
 137:keyboards/splitography/keymaps/beaklsi/keymap.c **** #define HOME_R  ALT_T(KC_R)
 138:keyboards/splitography/keymaps/beaklsi/keymap.c **** #define HOME_S  CTL_T(KC_S)
 139:keyboards/splitography/keymaps/beaklsi/keymap.c **** #define HOME_W  GUI_T(KC_W)
 140:keyboards/splitography/keymaps/beaklsi/keymap.c **** 
 141:keyboards/splitography/keymaps/beaklsi/keymap.c **** #include "tapdance.h"
 142:keyboards/splitography/keymaps/beaklsi/keymap.c **** 
 143:keyboards/splitography/keymaps/beaklsi/keymap.c **** // keycodes
 144:keyboards/splitography/keymaps/beaklsi/keymap.c **** #define ___x___ KC_TRNS
 145:keyboards/splitography/keymaps/beaklsi/keymap.c **** #define ___fn__ KC_TRNS
 146:keyboards/splitography/keymaps/beaklsi/keymap.c **** #ifdef _______
 147:keyboards/splitography/keymaps/beaklsi/keymap.c **** #undef _______
 148:keyboards/splitography/keymaps/beaklsi/keymap.c **** #endif
 149:keyboards/splitography/keymaps/beaklsi/keymap.c **** #define _______ KC_NO
 150:keyboards/splitography/keymaps/beaklsi/keymap.c **** 
 151:keyboards/splitography/keymaps/beaklsi/keymap.c **** #ifdef HASKELL
 152:keyboards/splitography/keymaps/beaklsi/keymap.c **** #define HS_COLN TD_COLN
 153:keyboards/splitography/keymaps/beaklsi/keymap.c **** #define HS_LT   TD_LT
 154:keyboards/splitography/keymaps/beaklsi/keymap.c **** #define HS_GT   TD_GT
 155:keyboards/splitography/keymaps/beaklsi/keymap.c **** #else
 156:keyboards/splitography/keymaps/beaklsi/keymap.c **** #define HS_COLN KC_COLN
 157:keyboards/splitography/keymaps/beaklsi/keymap.c **** #define HS_LT   KC_LT
 158:keyboards/splitography/keymaps/beaklsi/keymap.c **** #define HS_GT   KC_GT
 159:keyboards/splitography/keymaps/beaklsi/keymap.c **** #endif
 160:keyboards/splitography/keymaps/beaklsi/keymap.c **** 
