   1               		.file	"util.c"
   2               	__SP_H__ = 0x3e
   3               	__SP_L__ = 0x3d
   4               	__SREG__ = 0x3f
   5               	__tmp_reg__ = 0
   6               	__zero_reg__ = 1
   7               		.text
   8               	.Ltext0:
   9               		.cfi_sections	.debug_frame
  10               		.section	.text.bitpop,"ax",@progbits
  11               	.global	bitpop
  13               	bitpop:
  14               	.LFB0:
  15               		.file 1 "./tmk_core/common/util.c"
   1:./tmk_core/common/util.c **** /*
   2:./tmk_core/common/util.c **** Copyright 2011 Jun Wako <wakojun@gmail.com>
   3:./tmk_core/common/util.c **** 
   4:./tmk_core/common/util.c **** This program is free software: you can redistribute it and/or modify
   5:./tmk_core/common/util.c **** it under the terms of the GNU General Public License as published by
   6:./tmk_core/common/util.c **** the Free Software Foundation, either version 2 of the License, or
   7:./tmk_core/common/util.c **** (at your option) any later version.
   8:./tmk_core/common/util.c **** 
   9:./tmk_core/common/util.c **** This program is distributed in the hope that it will be useful,
  10:./tmk_core/common/util.c **** but WITHOUT ANY WARRANTY; without even the implied warranty of
  11:./tmk_core/common/util.c **** MERCHANTABILITY or FITNESS FOR A PARTICULAR PURPOSE.  See the
  12:./tmk_core/common/util.c **** GNU General Public License for more details.
  13:./tmk_core/common/util.c **** 
  14:./tmk_core/common/util.c **** You should have received a copy of the GNU General Public License
  15:./tmk_core/common/util.c **** along with this program.  If not, see <http://www.gnu.org/licenses/>.
  16:./tmk_core/common/util.c **** */
  17:./tmk_core/common/util.c **** 
  18:./tmk_core/common/util.c **** #include "util.h"
  19:./tmk_core/common/util.c **** 
  20:./tmk_core/common/util.c **** // bit population - return number of on-bit
  21:./tmk_core/common/util.c **** uint8_t bitpop(uint8_t bits)
  22:./tmk_core/common/util.c **** {
  16               		.loc 1 22 0
  17               		.cfi_startproc
  18               	.LVL0:
  19               	/* prologue: function */
  20               	/* frame size = 0 */
  21               	/* stack size = 0 */
  22               	.L__stack_usage = 0
  23:./tmk_core/common/util.c ****     uint8_t c;
  24:./tmk_core/common/util.c ****     for (c = 0; bits; c++)
  23               		.loc 1 24 0
  24 0000 90E0      		ldi r25,0
  25               	.LVL1:
  26               	.L2:
  27               		.loc 1 24 0 is_stmt 0 discriminator 1
  28 0002 8111      		cpse r24,__zero_reg__
  29 0004 00C0      		rjmp .L3
  25:./tmk_core/common/util.c ****         bits &= bits - 1;
  26:./tmk_core/common/util.c ****     return c;
  27:./tmk_core/common/util.c **** /*
  28:./tmk_core/common/util.c ****     const uint8_t bit_count[] = { 0, 1, 1, 2, 1, 2, 2, 3, 1, 2, 2, 3, 2, 3, 3, 4 };
  29:./tmk_core/common/util.c ****     return bit_count[bits>>4] + bit_count[bits&0x0F]
  30:./tmk_core/common/util.c **** */
  31:./tmk_core/common/util.c **** }
  30               		.loc 1 31 0 is_stmt 1
  31 0006 892F      		mov r24,r25
  32               	.LVL2:
  33               	/* epilogue start */
  34 0008 0895      		ret
  35               	.LVL3:
  36               	.L3:
  25:./tmk_core/common/util.c ****         bits &= bits - 1;
  37               		.loc 1 25 0 discriminator 3
  38 000a 2FEF      		ldi r18,lo8(-1)
  39 000c 280F      		add r18,r24
  40 000e 8223      		and r24,r18
  41               	.LVL4:
  24:./tmk_core/common/util.c ****         bits &= bits - 1;
  42               		.loc 1 24 0 discriminator 3
  43 0010 9F5F      		subi r25,lo8(-(1))
  44               	.LVL5:
  45 0012 00C0      		rjmp .L2
  46               		.cfi_endproc
  47               	.LFE0:
  49               		.section	.text.bitpop16,"ax",@progbits
  50               	.global	bitpop16
  52               	bitpop16:
  53               	.LFB1:
  32:./tmk_core/common/util.c **** 
  33:./tmk_core/common/util.c **** uint8_t bitpop16(uint16_t bits)
  34:./tmk_core/common/util.c **** {
  54               		.loc 1 34 0
  55               		.cfi_startproc
  56               	.LVL6:
  57               	/* prologue: function */
  58               	/* frame size = 0 */
  59               	/* stack size = 0 */
  60               	.L__stack_usage = 0
  35:./tmk_core/common/util.c ****     uint8_t c;
  36:./tmk_core/common/util.c ****     for (c = 0; bits; c++)
  61               		.loc 1 36 0
  62 0000 20E0      		ldi r18,0
  63               	.LVL7:
  64               	.L5:
  65               		.loc 1 36 0 is_stmt 0 discriminator 1
  66 0002 0097      		sbiw r24,0
  67 0004 01F4      		brne .L6
  37:./tmk_core/common/util.c ****         bits &= bits - 1;
  38:./tmk_core/common/util.c ****     return c;
  39:./tmk_core/common/util.c **** }
  68               		.loc 1 39 0 is_stmt 1
  69 0006 822F      		mov r24,r18
  70               	.LVL8:
  71               	/* epilogue start */
  72 0008 0895      		ret
  73               	.LVL9:
  74               	.L6:
  37:./tmk_core/common/util.c ****         bits &= bits - 1;
  75               		.loc 1 37 0 discriminator 3
  76 000a AC01      		movw r20,r24
  77 000c 4150      		subi r20,1
  78 000e 5109      		sbc r21,__zero_reg__
  79 0010 8423      		and r24,r20
  80               	.LVL10:
  81 0012 9523      		and r25,r21
  82               	.LVL11:
  36:./tmk_core/common/util.c ****         bits &= bits - 1;
  83               		.loc 1 36 0 discriminator 3
  84 0014 2F5F      		subi r18,lo8(-(1))
  85               	.LVL12:
  86 0016 00C0      		rjmp .L5
  87               		.cfi_endproc
  88               	.LFE1:
  90               		.section	.text.bitpop32,"ax",@progbits
  91               	.global	bitpop32
  93               	bitpop32:
  94               	.LFB2:
  40:./tmk_core/common/util.c **** 
  41:./tmk_core/common/util.c **** uint8_t bitpop32(uint32_t bits)
  42:./tmk_core/common/util.c **** {
  95               		.loc 1 42 0
  96               		.cfi_startproc
  97               	.LVL13:
  98 0000 CF92      		push r12
  99               	.LCFI0:
 100               		.cfi_def_cfa_offset 3
 101               		.cfi_offset 12, -2
 102 0002 DF92      		push r13
 103               	.LCFI1:
 104               		.cfi_def_cfa_offset 4
 105               		.cfi_offset 13, -3
 106 0004 EF92      		push r14
 107               	.LCFI2:
 108               		.cfi_def_cfa_offset 5
 109               		.cfi_offset 14, -4
 110 0006 FF92      		push r15
 111               	.LCFI3:
 112               		.cfi_def_cfa_offset 6
 113               		.cfi_offset 15, -5
 114               	/* prologue: function */
 115               	/* frame size = 0 */
 116               	/* stack size = 4 */
 117               	.L__stack_usage = 4
 118               	.LVL14:
  43:./tmk_core/common/util.c ****     uint8_t c;
  44:./tmk_core/common/util.c ****     for (c = 0; bits; c++)
 119               		.loc 1 44 0
 120 0008 20E0      		ldi r18,0
 121               	.LVL15:
 122               	.L8:
 123               		.loc 1 44 0 is_stmt 0 discriminator 1
 124 000a 6115      		cp r22,__zero_reg__
 125 000c 7105      		cpc r23,__zero_reg__
 126 000e 8105      		cpc r24,__zero_reg__
 127 0010 9105      		cpc r25,__zero_reg__
 128 0012 01F4      		brne .L9
  45:./tmk_core/common/util.c ****         bits &= bits - 1;
  46:./tmk_core/common/util.c ****     return c;
  47:./tmk_core/common/util.c **** }
 129               		.loc 1 47 0 is_stmt 1
 130 0014 822F      		mov r24,r18
 131               	/* epilogue start */
 132 0016 FF90      		pop r15
 133 0018 EF90      		pop r14
 134 001a DF90      		pop r13
 135 001c CF90      		pop r12
 136 001e 0895      		ret
 137               	.L9:
  45:./tmk_core/common/util.c ****         bits &= bits - 1;
 138               		.loc 1 45 0 discriminator 3
 139 0020 6B01      		movw r12,r22
 140 0022 7C01      		movw r14,r24
 141 0024 31E0      		ldi r19,1
 142 0026 C31A      		sub r12,r19
 143 0028 D108      		sbc r13,__zero_reg__
 144 002a E108      		sbc r14,__zero_reg__
 145 002c F108      		sbc r15,__zero_reg__
 146 002e 6C21      		and r22,r12
 147               	.LVL16:
 148 0030 7D21      		and r23,r13
 149 0032 8E21      		and r24,r14
 150 0034 9F21      		and r25,r15
 151               	.LVL17:
  44:./tmk_core/common/util.c ****         bits &= bits - 1;
 152               		.loc 1 44 0 discriminator 3
 153 0036 2F5F      		subi r18,lo8(-(1))
 154               	.LVL18:
 155 0038 00C0      		rjmp .L8
 156               		.cfi_endproc
 157               	.LFE2:
 159               		.section	.text.biton,"ax",@progbits
 160               	.global	biton
 162               	biton:
 163               	.LFB3:
  48:./tmk_core/common/util.c **** 
  49:./tmk_core/common/util.c **** // most significant on-bit - return highest location of on-bit
  50:./tmk_core/common/util.c **** // NOTE: return 0 when bit0 is on or all bits are off
  51:./tmk_core/common/util.c **** uint8_t biton(uint8_t bits)
  52:./tmk_core/common/util.c **** {
 164               		.loc 1 52 0
 165               		.cfi_startproc
 166               	.LVL19:
 167               	/* prologue: function */
 168               	/* frame size = 0 */
 169               	/* stack size = 0 */
 170               	.L__stack_usage = 0
  53:./tmk_core/common/util.c ****     uint8_t n = 0;
  54:./tmk_core/common/util.c ****     if (bits >> 4) { bits >>= 4; n += 4;}
 171               		.loc 1 54 0
 172 0000 982F      		mov r25,r24
 173 0002 9295      		swap r25
 174 0004 9F70      		andi r25,lo8(15)
  53:./tmk_core/common/util.c ****     uint8_t n = 0;
 175               		.loc 1 53 0
 176 0006 20E0      		ldi r18,0
 177               		.loc 1 54 0
 178 0008 01F0      		breq .L11
 179 000a 892F      		mov r24,r25
 180               	.LVL20:
 181 000c 24E0      		ldi r18,lo8(4)
 182               	.L11:
 183               	.LVL21:
  55:./tmk_core/common/util.c ****     if (bits >> 2) { bits >>= 2; n += 2;}
 184               		.loc 1 55 0
 185 000e 982F      		mov r25,r24
 186 0010 9695      		lsr r25
 187 0012 9695      		lsr r25
 188 0014 01F0      		breq .L12
 189               	.LVL22:
 190               		.loc 1 55 0 is_stmt 0 discriminator 1
 191 0016 2E5F      		subi r18,lo8(-(2))
 192               	.LVL23:
 193 0018 892F      		mov r24,r25
 194               	.LVL24:
 195               	.L12:
  56:./tmk_core/common/util.c ****     if (bits >> 1) { bits >>= 1; n += 1;}
 196               		.loc 1 56 0 is_stmt 1
 197 001a 982F      		mov r25,r24
 198 001c 9695      		lsr r25
 199 001e 01F0      		breq .L10
 200               	.LVL25:
 201               		.loc 1 56 0 is_stmt 0 discriminator 1
 202 0020 2F5F      		subi r18,lo8(-(1))
 203               	.LVL26:
 204               	.L10:
  57:./tmk_core/common/util.c ****     return n;
  58:./tmk_core/common/util.c **** }
 205               		.loc 1 58 0 is_stmt 1
 206 0022 822F      		mov r24,r18
 207               	/* epilogue start */
 208 0024 0895      		ret
 209               		.cfi_endproc
 210               	.LFE3:
 212               		.section	.text.biton16,"ax",@progbits
 213               	.global	biton16
 215               	biton16:
 216               	.LFB4:
  59:./tmk_core/common/util.c **** 
  60:./tmk_core/common/util.c **** uint8_t biton16(uint16_t bits)
  61:./tmk_core/common/util.c **** {
 217               		.loc 1 61 0
 218               		.cfi_startproc
 219               	.LVL27:
 220               	/* prologue: function */
 221               	/* frame size = 0 */
 222               	/* stack size = 0 */
 223               	.L__stack_usage = 0
  62:./tmk_core/common/util.c ****     uint8_t n = 0;
  63:./tmk_core/common/util.c ****     if (bits >> 8) { bits >>= 8; n += 8;}
 224               		.loc 1 63 0
 225 0000 292F      		mov r18,r25
 226 0002 3327      		clr r19
  62:./tmk_core/common/util.c ****     uint8_t n = 0;
 227               		.loc 1 62 0
 228 0004 40E0      		ldi r20,0
 229               		.loc 1 63 0
 230 0006 2115      		cp r18,__zero_reg__
 231 0008 3105      		cpc r19,__zero_reg__
 232 000a 01F0      		breq .L22
 233 000c C901      		movw r24,r18
 234               	.LVL28:
 235 000e 48E0      		ldi r20,lo8(8)
 236               	.L22:
 237               	.LVL29:
  64:./tmk_core/common/util.c ****     if (bits >> 4) { bits >>= 4; n += 4;}
 238               		.loc 1 64 0
 239 0010 9C01      		movw r18,r24
 240 0012 64E0      		ldi r22,4
 241               		1:
 242 0014 3695      		lsr r19
 243 0016 2795      		ror r18
 244 0018 6A95      		dec r22
 245 001a 01F4      		brne 1b
 246 001c 2115      		cp r18,__zero_reg__
 247 001e 3105      		cpc r19,__zero_reg__
 248 0020 01F0      		breq .L23
 249               	.LVL30:
 250               		.loc 1 64 0 is_stmt 0 discriminator 1
 251 0022 4C5F      		subi r20,lo8(-(4))
 252               	.LVL31:
 253 0024 C901      		movw r24,r18
 254               	.LVL32:
 255               	.L23:
  65:./tmk_core/common/util.c ****     if (bits >> 2) { bits >>= 2; n += 2;}
 256               		.loc 1 65 0 is_stmt 1
 257 0026 9C01      		movw r18,r24
 258 0028 3695      		lsr r19
 259 002a 2795      		ror r18
 260 002c 3695      		lsr r19
 261 002e 2795      		ror r18
 262 0030 2115      		cp r18,__zero_reg__
 263 0032 3105      		cpc r19,__zero_reg__
 264 0034 01F0      		breq .L24
 265               	.LVL33:
 266               		.loc 1 65 0 is_stmt 0 discriminator 1
 267 0036 4E5F      		subi r20,lo8(-(2))
 268               	.LVL34:
 269 0038 C901      		movw r24,r18
 270               	.LVL35:
 271               	.L24:
  66:./tmk_core/common/util.c ****     if (bits >> 1) { bits >>= 1; n += 1;}
 272               		.loc 1 66 0 is_stmt 1
 273 003a 9695      		lsr r25
 274 003c 8795      		ror r24
 275               	.LVL36:
 276 003e 892B      		or r24,r25
 277 0040 01F0      		breq .L21
 278               	.LVL37:
 279               		.loc 1 66 0 is_stmt 0 discriminator 1
 280 0042 4F5F      		subi r20,lo8(-(1))
 281               	.LVL38:
 282               	.L21:
  67:./tmk_core/common/util.c ****     return n;
  68:./tmk_core/common/util.c **** }
 283               		.loc 1 68 0 is_stmt 1
 284 0044 842F      		mov r24,r20
 285               	/* epilogue start */
 286 0046 0895      		ret
 287               		.cfi_endproc
 288               	.LFE4:
 290               		.section	.text.biton32,"ax",@progbits
 291               	.global	biton32
 293               	biton32:
 294               	.LFB5:
  69:./tmk_core/common/util.c **** 
  70:./tmk_core/common/util.c **** uint8_t biton32(uint32_t bits)
  71:./tmk_core/common/util.c **** {
 295               		.loc 1 71 0
 296               		.cfi_startproc
 297               	.LVL39:
 298 0000 CF92      		push r12
 299               	.LCFI4:
 300               		.cfi_def_cfa_offset 3
 301               		.cfi_offset 12, -2
 302 0002 DF92      		push r13
 303               	.LCFI5:
 304               		.cfi_def_cfa_offset 4
 305               		.cfi_offset 13, -3
 306 0004 EF92      		push r14
 307               	.LCFI6:
 308               		.cfi_def_cfa_offset 5
 309               		.cfi_offset 14, -4
 310 0006 FF92      		push r15
 311               	.LCFI7:
 312               		.cfi_def_cfa_offset 6
 313               		.cfi_offset 15, -5
 314               	/* prologue: function */
 315               	/* frame size = 0 */
 316               	/* stack size = 4 */
 317               	.L__stack_usage = 4
 318               	.LVL40:
  72:./tmk_core/common/util.c ****     uint8_t n = 0;
  73:./tmk_core/common/util.c ****     if (bits >>16) { bits >>=16; n +=16;}
 319               		.loc 1 73 0
 320 0008 6C01      		movw r12,r24
 321 000a EE24      		clr r14
 322 000c FF24      		clr r15
  72:./tmk_core/common/util.c ****     uint8_t n = 0;
 323               		.loc 1 72 0
 324 000e 20E0      		ldi r18,0
 325               		.loc 1 73 0
 326 0010 C114      		cp r12,__zero_reg__
 327 0012 D104      		cpc r13,__zero_reg__
 328 0014 E104      		cpc r14,__zero_reg__
 329 0016 F104      		cpc r15,__zero_reg__
 330 0018 01F0      		breq .L37
 331 001a C701      		movw r24,r14
 332 001c B601      		movw r22,r12
 333               	.LVL41:
 334 001e 20E1      		ldi r18,lo8(16)
 335               	.L37:
 336               	.LVL42:
  74:./tmk_core/common/util.c ****     if (bits >> 8) { bits >>= 8; n += 8;}
 337               		.loc 1 74 0
 338 0020 C72E      		mov r12,r23
 339 0022 D82E      		mov r13,r24
 340 0024 E92E      		mov r14,r25
 341 0026 FF24      		clr r15
 342 0028 C114      		cp r12,__zero_reg__
 343 002a D104      		cpc r13,__zero_reg__
 344 002c E104      		cpc r14,__zero_reg__
 345 002e F104      		cpc r15,__zero_reg__
 346 0030 01F0      		breq .L38
 347               	.LVL43:
 348               		.loc 1 74 0 is_stmt 0 discriminator 1
 349 0032 285F      		subi r18,lo8(-(8))
 350               	.LVL44:
 351 0034 C701      		movw r24,r14
 352 0036 B601      		movw r22,r12
 353               	.LVL45:
 354               	.L38:
  75:./tmk_core/common/util.c ****     if (bits >> 4) { bits >>= 4; n += 4;}
 355               		.loc 1 75 0 is_stmt 1
 356 0038 6B01      		movw r12,r22
 357 003a 7C01      		movw r14,r24
 358 003c 54E0      		ldi r21,4
 359               		1:
 360 003e F694      		lsr r15
 361 0040 E794      		ror r14
 362 0042 D794      		ror r13
 363 0044 C794      		ror r12
 364 0046 5A95      		dec r21
 365 0048 01F4      		brne 1b
 366 004a C114      		cp r12,__zero_reg__
 367 004c D104      		cpc r13,__zero_reg__
 368 004e E104      		cpc r14,__zero_reg__
 369 0050 F104      		cpc r15,__zero_reg__
 370 0052 01F0      		breq .L39
 371               	.LVL46:
 372               		.loc 1 75 0 is_stmt 0 discriminator 1
 373 0054 2C5F      		subi r18,lo8(-(4))
 374               	.LVL47:
 375 0056 C701      		movw r24,r14
 376 0058 B601      		movw r22,r12
 377               	.LVL48:
 378               	.L39:
  76:./tmk_core/common/util.c ****     if (bits >> 2) { bits >>= 2; n += 2;}
 379               		.loc 1 76 0 is_stmt 1
 380 005a 6B01      		movw r12,r22
 381 005c 7C01      		movw r14,r24
 382 005e 42E0      		ldi r20,2
 383               		1:
 384 0060 F694      		lsr r15
 385 0062 E794      		ror r14
 386 0064 D794      		ror r13
 387 0066 C794      		ror r12
 388 0068 4A95      		dec r20
 389 006a 01F4      		brne 1b
 390 006c C114      		cp r12,__zero_reg__
 391 006e D104      		cpc r13,__zero_reg__
 392 0070 E104      		cpc r14,__zero_reg__
 393 0072 F104      		cpc r15,__zero_reg__
 394 0074 01F0      		breq .L40
 395               	.LVL49:
 396               		.loc 1 76 0 is_stmt 0 discriminator 1
 397 0076 2E5F      		subi r18,lo8(-(2))
 398               	.LVL50:
 399 0078 C701      		movw r24,r14
 400 007a B601      		movw r22,r12
 401               	.LVL51:
 402               	.L40:
  77:./tmk_core/common/util.c ****     if (bits >> 1) { bits >>= 1; n += 1;}
 403               		.loc 1 77 0 is_stmt 1
 404 007c 9695      		lsr r25
 405 007e 8795      		ror r24
 406 0080 7795      		ror r23
 407 0082 6795      		ror r22
 408               	.LVL52:
 409 0084 672B      		or r22,r23
 410 0086 682B      		or r22,r24
 411 0088 692B      		or r22,r25
 412 008a 01F0      		breq .L36
 413               	.LVL53:
 414               		.loc 1 77 0 is_stmt 0 discriminator 1
 415 008c 2F5F      		subi r18,lo8(-(1))
 416               	.LVL54:
 417               	.L36:
  78:./tmk_core/common/util.c ****     return n;
  79:./tmk_core/common/util.c **** }
 418               		.loc 1 79 0 is_stmt 1
 419 008e 822F      		mov r24,r18
 420               	/* epilogue start */
 421 0090 FF90      		pop r15
 422 0092 EF90      		pop r14
 423 0094 DF90      		pop r13
 424 0096 CF90      		pop r12
 425 0098 0895      		ret
 426               		.cfi_endproc
 427               	.LFE5:
 429               		.section	.text.bitrev,"ax",@progbits
 430               	.global	bitrev
 432               	bitrev:
 433               	.LFB6:
  80:./tmk_core/common/util.c **** 
  81:./tmk_core/common/util.c **** 
  82:./tmk_core/common/util.c **** 
  83:./tmk_core/common/util.c **** uint8_t bitrev(uint8_t bits)
  84:./tmk_core/common/util.c **** {
 434               		.loc 1 84 0
 435               		.cfi_startproc
 436               	.LVL55:
 437               	/* prologue: function */
 438               	/* frame size = 0 */
 439               	/* stack size = 0 */
 440               	.L__stack_usage = 0
  85:./tmk_core/common/util.c ****     bits = (bits & 0x0f)<<4 | (bits & 0xf0)>>4;
 441               		.loc 1 85 0
 442 0000 8295      		swap r24
 443               	.LVL56:
  86:./tmk_core/common/util.c ****     bits = (bits & 0b00110011)<<2 | (bits & 0b11001100)>>2;
 444               		.loc 1 86 0
 445 0002 90E0      		ldi r25,0
 446               	.LVL57:
 447 0004 9C01      		movw r18,r24
 448 0006 220F      		lsl r18
 449 0008 331F      		rol r19
 450 000a 220F      		lsl r18
 451 000c 331F      		rol r19
 452 000e 2C7C      		andi r18,lo8(-52)
 453 0010 9595      		asr r25
 454 0012 8795      		ror r24
 455 0014 9595      		asr r25
 456 0016 8795      		ror r24
 457               	.LVL58:
 458 0018 8373      		andi r24,lo8(51)
 459 001a 282B      		or r18,r24
  87:./tmk_core/common/util.c ****     bits = (bits & 0b01010101)<<1 | (bits & 0b10101010)>>1;
 460               		.loc 1 87 0
 461 001c 30E0      		ldi r19,0
 462               	.LVL59:
 463 001e C901      		movw r24,r18
 464 0020 880F      		lsl r24
 465 0022 991F      		rol r25
 466 0024 8A7A      		andi r24,lo8(-86)
 467 0026 3595      		asr r19
 468 0028 2795      		ror r18
 469               	.LVL60:
 470 002a 2575      		andi r18,lo8(85)
  88:./tmk_core/common/util.c ****     return bits;
  89:./tmk_core/common/util.c **** }
 471               		.loc 1 89 0
 472 002c 822B      		or r24,r18
 473               	/* epilogue start */
 474 002e 0895      		ret
 475               		.cfi_endproc
 476               	.LFE6:
 478               		.section	.text.bitrev16,"ax",@progbits
 479               	.global	bitrev16
 481               	bitrev16:
 482               	.LFB7:
  90:./tmk_core/common/util.c **** 
  91:./tmk_core/common/util.c **** uint16_t bitrev16(uint16_t bits)
  92:./tmk_core/common/util.c **** {
 483               		.loc 1 92 0
 484               		.cfi_startproc
 485               	.LVL61:
 486 0000 CF93      		push r28
 487               	.LCFI8:
 488               		.cfi_def_cfa_offset 3
 489               		.cfi_offset 28, -2
 490 0002 DF93      		push r29
 491               	.LCFI9:
 492               		.cfi_def_cfa_offset 4
 493               		.cfi_offset 29, -3
 494               	/* prologue: function */
 495               	/* frame size = 0 */
 496               	/* stack size = 2 */
 497               	.L__stack_usage = 2
 498 0004 D92F      		mov r29,r25
  93:./tmk_core/common/util.c ****     bits = bitrev(bits & 0x00ff)<<8 | bitrev((bits & 0xff00)>>8);
 499               		.loc 1 93 0
 500 0006 0E94 0000 		call bitrev
 501               	.LVL62:
 502 000a C82F      		mov r28,r24
 503 000c 8D2F      		mov r24,r29
 504 000e 0E94 0000 		call bitrev
 505               	.LVL63:
  94:./tmk_core/common/util.c ****     return bits;
  95:./tmk_core/common/util.c **** }
 506               		.loc 1 95 0
 507 0012 9C2F      		mov r25,r28
 508               	/* epilogue start */
 509 0014 DF91      		pop r29
 510 0016 CF91      		pop r28
 511               	.LVL64:
 512 0018 0895      		ret
 513               		.cfi_endproc
 514               	.LFE7:
 516               		.section	.text.bitrev32,"ax",@progbits
 517               	.global	bitrev32
 519               	bitrev32:
 520               	.LFB8:
  96:./tmk_core/common/util.c **** 
  97:./tmk_core/common/util.c **** uint32_t bitrev32(uint32_t bits)
  98:./tmk_core/common/util.c **** {
 521               		.loc 1 98 0
 522               		.cfi_startproc
 523               	.LVL65:
 524 0000 CF92      		push r12
 525               	.LCFI10:
 526               		.cfi_def_cfa_offset 3
 527               		.cfi_offset 12, -2
 528 0002 DF92      		push r13
 529               	.LCFI11:
 530               		.cfi_def_cfa_offset 4
 531               		.cfi_offset 13, -3
 532 0004 EF92      		push r14
 533               	.LCFI12:
 534               		.cfi_def_cfa_offset 5
 535               		.cfi_offset 14, -4
 536 0006 FF92      		push r15
 537               	.LCFI13:
 538               		.cfi_def_cfa_offset 6
 539               		.cfi_offset 15, -5
 540 0008 0F93      		push r16
 541               	.LCFI14:
 542               		.cfi_def_cfa_offset 7
 543               		.cfi_offset 16, -6
 544 000a 1F93      		push r17
 545               	.LCFI15:
 546               		.cfi_def_cfa_offset 8
 547               		.cfi_offset 17, -7
 548 000c CF93      		push r28
 549               	.LCFI16:
 550               		.cfi_def_cfa_offset 9
 551               		.cfi_offset 28, -8
 552 000e DF93      		push r29
 553               	.LCFI17:
 554               		.cfi_def_cfa_offset 10
 555               		.cfi_offset 29, -9
 556               	/* prologue: function */
 557               	/* frame size = 0 */
 558               	/* stack size = 8 */
 559               	.L__stack_usage = 8
 560 0010 7C01      		movw r14,r24
  99:./tmk_core/common/util.c ****     bits = (uint32_t)bitrev16(bits & 0x0000ffff)<<16 | bitrev16((bits & 0xffff0000)>>16);
 561               		.loc 1 99 0
 562 0012 CB01      		movw r24,r22
 563 0014 0E94 0000 		call bitrev16
 564               	.LVL66:
 565 0018 EC01      		movw r28,r24
 566 001a C701      		movw r24,r14
 567 001c 0E94 0000 		call bitrev16
 568               	.LVL67:
 569 0020 8C01      		movw r16,r24
 570               	.LVL68:
 571 0022 BE01      		movw r22,r28
 572 0024 90E0      		ldi r25,0
 573 0026 80E0      		ldi r24,0
 574 0028 CB01      		movw r24,r22
 575 002a 7727      		clr r23
 576 002c 6627      		clr r22
 577 002e 30E0      		ldi r19,0
 578 0030 20E0      		ldi r18,0
 579 0032 602B      		or r22,r16
 580 0034 712B      		or r23,r17
 581 0036 822B      		or r24,r18
 582 0038 932B      		or r25,r19
 583               	/* epilogue start */
 100:./tmk_core/common/util.c ****     return bits;
 101:./tmk_core/common/util.c **** }
 584               		.loc 1 101 0
 585 003a DF91      		pop r29
 586 003c CF91      		pop r28
 587               	.LVL69:
 588 003e 1F91      		pop r17
 589 0040 0F91      		pop r16
 590 0042 FF90      		pop r15
 591 0044 EF90      		pop r14
 592 0046 DF90      		pop r13
 593 0048 CF90      		pop r12
 594 004a 0895      		ret
 595               		.cfi_endproc
 596               	.LFE8:
 598               		.text
 599               	.Letext0:
 600               		.file 2 "/usr/avr/include/stdint.h"